

HI-TECH Software PIC PRO Macro Assembler V9.83 build 10920 
                                                                                               Wed Jan 13 15:27:31 2021

HI-TECH Software Omniscient Code Generator (PRO mode) build 10920
     1                           	processor	PAN2416AV
     2                           	opt	pw 120
     3                           	opt	pm
     4                           	psect	idataBANK0,global,class=CODE,delta=2
     5                           	psect	strings,global,class=STRING,delta=2
     6                           	psect	cinit,global,class=CODE,delta=2
     7                           	psect	bssCOMMON,global,class=COMMON,space=1,delta=1
     8                           	psect	bssBANK0,global,class=BANK0,space=1,delta=1
     9                           	psect	dataBANK0,global,class=BANK0,space=1,delta=1
    10                           	psect	bssBANK1,global,class=BANK1,space=1,delta=1
    11                           	psect	clrtext,global,class=CODE,delta=2
    12                           	psect	cstackCOMMON,global,class=COMMON,space=1,delta=1
    13                           	psect	cstackBANK0,global,class=BANK0,space=1,delta=1
    14                           	psect	maintext,global,class=CODE,delta=2
    15                           	psect	text1132,local,class=CODE,delta=2
    16                           	psect	text1135,local,class=CODE,delta=2
    17                           	psect	text1140,local,class=CODE,delta=2
    18                           	psect	text1141,local,class=CODE,delta=2
    19                           	psect	text1147,local,class=CODE,delta=2
    20                           	psect	text1159,local,class=CODE,delta=2
    21                           	psect	text1160,local,class=CODE,delta=2
    22                           	psect	text1161,local,class=CODE,delta=2
    23                           	psect	text1162,local,class=CODE,delta=2
    24                           	psect	text1163,local,class=CODE,delta=2
    25                           	psect	text1164,local,class=CODE,delta=2
    26                           	psect	text1165,local,class=CODE,delta=2
    27                           	psect	text1167,local,class=CODE,delta=2
    28                           	psect	text1168,local,class=CODE,delta=2
    29                           	psect	intentry,global,class=CODE,delta=2
    30                           	psect	text1170,local,class=CODE,delta=2
    31                           	psect	pa_nodes,global,class=CODE,delta=2
    32                           	dabs	1,0x7E,2
    33  000A                     
    34                           	psect	idataBANK0
    35  0000                     __pidataBANK0:	
    36                           
    37                           	psect	strings
    38  035E                     __pstrings:	
    39  035E                     stringtab:	
    40                           ;	global	stringdir,stringtab,__stringbase
    41                           
    42  035E                     stringcode:	
    43                           ;	String table - string pointers are 1 byte each
    44                           
    45  035E                     stringdir:	
    46  035E  3003               	movlw	high stringdir
    47  035F  008A               	movwf	10
    48  0360  0804               	movf	4,w
    49  0361  0A84               	incf	4,f
    50  0362  0782               	addwf	2,f
    51  0363                     __stringbase:	
    52  0363  3400               	retlw	0
    53  0364                     _ble_crc_38:	
    54  0364  34D6               	retlw	214
    55  0365  34C5               	retlw	197
    56  0366  3444               	retlw	68
    57  0367  3420               	retlw	32
    58  0368  3459               	retlw	89
    59  0369  34DE               	retlw	222
    60  036A  34E1               	retlw	225
    61  036B  348F               	retlw	143
    62  036C  341B               	retlw	27
    63  036D  34A5               	retlw	165
    64  036E  34AF               	retlw	175
    65  036F  3442               	retlw	66
    66  0370  347B               	retlw	123
    67  0371  344E               	retlw	78
    68  0372  34CD               	retlw	205
    69  0373  3460               	retlw	96
    70  0374  34EB               	retlw	235
    71  0375  3462               	retlw	98
    72  0376  3422               	retlw	34
    73  0377  3490               	retlw	144
    74  0378  342C               	retlw	44
    75  0379  34EF               	retlw	239
    76  037A  34F0               	retlw	240
    77  037B  34C7               	retlw	199
    78  037C  348D               	retlw	141
    79  037D  34D2               	retlw	210
    80  037E  3457               	retlw	87
    81  037F  34A1               	retlw	161
    82  0380  343D               	retlw	61
    83  0381  34A7               	retlw	167
    84  0382  3466               	retlw	102
    85  0383  34B0               	retlw	176
    86  0384  3475               	retlw	117
    87  0385  3431               	retlw	49
    88  0386  3411               	retlw	17
    89  0387  3448               	retlw	72
    90  0388  3496               	retlw	150
    91  0389  3477               	retlw	119
    92  038A  34F8               	retlw	248
    93  038B  34E3               	retlw	227
    94  038C  3446               	retlw	70
    95  038D  34E9               	retlw	233
    96  038E                     _crc_2_4G_lib:	
    97  038E  34C7               	retlw	199
    98  038F  348D               	retlw	141
    99  0390  34D2               	retlw	210
   100  0391  3457               	retlw	87
   101  0392  34A1               	retlw	161
   102  0393  343D               	retlw	61
   103  0394  34A7               	retlw	167
   104  0395  3466               	retlw	102
   105  0396  34B0               	retlw	176
   106  0397  3475               	retlw	117
   107  0398  3431               	retlw	49
   108  0399  3411               	retlw	17
   109  039A  3448               	retlw	72
   110  039B  3496               	retlw	150
   111  039C  3477               	retlw	119
   112  039D  34F8               	retlw	248
   113  039E  34E3               	retlw	227
   114  039F  3446               	retlw	70
   115  03A0  34E9               	retlw	233
   116  03A1  34AB               	retlw	171
   117  03A2  34D0               	retlw	208
   118  03A3                     _crc_lab:	
   119  03A3  3441               	retlw	65
   120  03A4  3492               	retlw	146
   121  03A5  3453               	retlw	83
   122  03A6  342A               	retlw	42
   123  03A7  34FC               	retlw	252
   124  03A8  34AB               	retlw	171
   125  03A9  34CE               	retlw	206
   126  03AA  3426               	retlw	38
   127  03AB  340D               	retlw	13
   128  03AC  341E               	retlw	30
   129  03AD  3499               	retlw	153
   130  03AE  3478               	retlw	120
   131  03AF  3400               	retlw	0
   132  03B0  3422               	retlw	34
   133  03B1  3499               	retlw	153
   134  03B2  34DE               	retlw	222
   135  03B3                     RF_Carrier@RF_cal2_data:	
   136  03B3  3445               	retlw	69
   137  03B4  3421               	retlw	33
   138  03B5  343F               	retlw	63
   139  03B6  342D               	retlw	45
   140  03B7  345C               	retlw	92
   141  03B8  3440               	retlw	64
   142  03B9                     RF_Init@RF_cal2_data:	
   143  03B9  3445               	retlw	69
   144  03BA  3421               	retlw	33
   145  03BB  343F               	retlw	63
   146  03BC  342D               	retlw	45
   147  03BD  345C               	retlw	92
   148  03BE  3440               	retlw	64
   149  03BF                     RF_Carrier@BB_cal_data:	
   150  03BF  340A               	retlw	10
   151  03C0  346D               	retlw	109
   152  03C1  3467               	retlw	103
   153  03C2  349C               	retlw	156
   154  03C3  3446               	retlw	70
   155  03C4                     RF_Init@BB_cal_data:	
   156  03C4  340A               	retlw	10
   157  03C5  346D               	retlw	109
   158  03C6  3467               	retlw	103
   159  03C7  349C               	retlw	156
   160  03C8  3446               	retlw	70
   161  03C9                     RF_Carrier@Dem_cal2_data:	
   162  03C9  340B               	retlw	11
   163  03CA  34DF               	retlw	223
   164  03CB  3402               	retlw	2
   165  03CC                     RF_Carrier@RF_cal_data:	
   166  03CC  3416               	retlw	22
   167  03CD  3433               	retlw	51
   168  03CE  3427               	retlw	39
   169  03CF                     RF_Init@Dem_cal2_data:	
   170  03CF  340B               	retlw	11
   171  03D0  34DF               	retlw	223
   172  03D1  3402               	retlw	2
   173  03D2                     RF_Init@RF_cal_data:	
   174  03D2  3416               	retlw	22
   175  03D3  3433               	retlw	51
   176  03D4  3427               	retlw	39
   177  03D5                     _RX_ADDRESS_DEF:	
   178  03D5  342D               	retlw	45
   179  03D6  34D7               	retlw	215
   180  03D7  34B9               	retlw	185
   181  03D8                     _TX_ADDRESS_DEF:	
   182  03D8  34CC               	retlw	204
   183  03D9  34CC               	retlw	204
   184  03DA  34CC               	retlw	204
   185  03DB                     RF_Carrier@Dem_cal_data:	
   186  03DB  34E1               	retlw	225
   187  03DC                     RF_Init@Dem_cal_data:	
   188  03DC  3401               	retlw	1
   189  000B                     _INTCON	set	11
   190  000C                     _PIR1	set	12
   191  0010                     _T1CON	set	16
   192  000F                     _TMR1H	set	15
   193  000E                     _TMR1L	set	14
   194  002C                     _RA4	set	44
   195  002D                     _RA5	set	45
   196  002F                     _RA7	set	47
   197  0031                     _RB1	set	49
   198  0032                     _RB2	set	50
   199  0033                     _RB3	set	51
   200  0034                     _RB4	set	52
   201  0035                     _RB5	set	53
   202  0036                     _RB6	set	54
   203  0038                     _RC0	set	56
   204  0039                     _RC1	set	57
   205  003A                     _RC2	set	58
   206  0049                     _RE1	set	73
   207  004A                     _RE2	set	74
   208  0081                     _OPTION_REG	set	129
   209  008F                     _OSCCON	set	143
   210  0090                     _OSCTUNE	set	144
   211  008C                     _PIE1	set	140
   212  0086                     _TRISB	set	134
   213  0087                     _TRISC	set	135
   214  0095                     _WPUB	set	149
   215  042B                     _TRISA3	set	1067
   216  042C                     _TRISA4	set	1068
   217  042D                     _TRISA5	set	1069
   218  042F                     _TRISA7	set	1071
   219  0434                     _TRISB4	set	1076
   220  0435                     _TRISB5	set	1077
   221  0436                     _TRISB6	set	1078
   222  0438                     _TRISC0	set	1080
   223  0439                     _TRISC1	set	1081
   224  0449                     _TRISE1	set	1097
   225  044A                     _TRISE2	set	1098
   226  0C79                     _WPUC1	set	3193
   227                           
   228                           	psect	cinit
   229  054F                     start_initialization:	
   230  054F  3020               	movlw	low __pbssBANK0
   231                           
   232                           ; Clear objects allocated to COMMON
   233  0550  01F6               	clrf	__pbssCOMMON& (0+127)
   234  0551  01F7               	clrf	(__pbssCOMMON+1)& (0+127)
   235  0552  01F8               	clrf	(__pbssCOMMON+2)& (0+127)
   236  0553  01F9               	clrf	(__pbssCOMMON+3)& (0+127)
   237  0554  01FA               	clrf	(__pbssCOMMON+4)& (0+127)
   238                           
   239                           ; Clear objects allocated to BANK0
   240  0555  1383               	bcf	3,7	;select IRP bank0
   241  0556  0084               	movwf	4
   242  0557  3050               	movlw	low (__pbssBANK0+48)
   243  0558  118A  2588  118A   	fcall	clear_ram
   244                           
   245                           ; Clear objects allocated to BANK1
   246  055B  30A0               	movlw	low __pbssBANK1
   247  055C  0084               	movwf	4
   248  055D  30EE               	movlw	low (__pbssBANK1+78)
   249  055E  118A  2588         	fcall	clear_ram
   250                           
   251                           ;initializer for _match_channel_flag
   252  0560  3010               	movlw	16
   253  0561  00ED               	movwf	__pdataBANK0& (0+127)
   254                           
   255                           ;initializer for _sys_stute
   256  0562  3002               	movlw	2
   257  0563  00EE               	movwf	(__pdataBANK0+1)& (0+127)
   258  0564                     end_of_initialization:	
   259                           ;End of C runtime variable initialization code
   260                           
   261  0564  0183               	clrf	3
   262  0565  118A  2C52         	ljmp	_main	;jump to C main() function
   263                           
   264                           	psect	bssCOMMON
   265  0076                     __pbssCOMMON:	
   266  0076                     _KEY0_FLAG:	
   267  0076                     	ds	1
   268  0077                     _KEY1_FLAG:	
   269  0077                     	ds	1
   270  0078                     _KEY2_FLAG:	
   271  0078                     	ds	1
   272  0079                     _key_long_flag:	
   273  0079                     	ds	1
   274  007A                     _key_long_flag_add:	
   275  007A                     	ds	1
   276                           
   277                           	psect	bssBANK0
   278  0020                     __pbssBANK0:	
   279  0020                     _KEY0:	
   280  0020                     	ds	3
   281  0023                     _KEY1:	
   282  0023                     	ds	3
   283  0026                     _KEY2:	
   284  0026                     	ds	3
   285  0029                     _channel_delay:	
   286  0029                     	ds	3
   287  002C                     _ADC_digital_value:	
   288  002C                     	ds	2
   289  002E                     _Timer1_set_time:	
   290  002E                     	ds	2
   291  0030                     _flag_5min_add:	
   292  0030                     	ds	2
   293  0032                     _flag_5s_add:	
   294  0032                     	ds	2
   295  0034                     _flag_time_key0_add:	
   296  0034                     	ds	2
   297  0036                     _flag_time_key1_add:	
   298  0036                     	ds	2
   299  0038                     _flag_time_key2_add:	
   300  0038                     	ds	2
   301  003A                     _Timer0_set_time:	
   302  003A                     	ds	1
   303  003B                     _delay_flag:	
   304  003B                     	ds	1
   305  003C                     _last_PORTB_value:	
   306  003C                     	ds	1
   307  003D                     _rf_buf:	
   308  003D                     	ds	18
   309  004F                     _channel_flag:	
   310  004F                     	ds	1
   311                           
   312                           	psect	dataBANK0
   313  006D                     __pdataBANK0:	
   314  006D                     _match_channel_flag:	
   315  006D                     	ds	1
   316  006E                     _sys_stute:	
   317  006E                     	ds	1
   318                           
   319                           	psect	bssBANK1
   320  00A0                     __pbssBANK1:	
   321  00A0                     _virtual_timer_group:	
   322  00A0                     	ds	6
   323  00A6                     _control_id:	
   324  00A6                     	ds	72
   325                           
   326                           	psect	clrtext
   327  0588                     clear_ram:	
   328                           ;	Called with FSR containing the base address, and
   329                           ;	W with the last address+1
   330                           
   331  0588  0064               	clrwdt	;clear the watchdog before getting into this loop
   332  0589                     clrloop:	
   333  0589  0180               	clrf	0	;clear RAM location pointed to by FSR
   334  058A  0A84               	incf	4,f	;increment pointer
   335  058B  0604               	xorwf	4,w	;XOR with final address
   336  058C  1903               	btfsc	3,2	;have we reached the end yet?
   337  058D  3400               	retlw	0	;all done for this memory range, return
   338  058E  0604               	xorwf	4,w	;XOR again to restore value
   339  058F  2D89               	goto	clrloop	;do the next byte
   340                           
   341                           	psect	cstackCOMMON
   342  0070                     __pcstackCOMMON:	
   343  0070                     ?_system_set_CPU_frequency:	
   344  0070                     ?_IIC_Init:	
   345                           ; 0 bytes @ 0x0
   346                           
   347  0070                     ?_key_Init:	
   348                           ; 0 bytes @ 0x0
   349                           
   350  0070                     ?_RF_Init:	
   351                           ; 0 bytes @ 0x0
   352                           
   353  0070                     ?_RF_Set_RxMode:	
   354                           ; 0 bytes @ 0x0
   355                           
   356  0070                     ?_Timer1_Init:	
   357                           ; 0 bytes @ 0x0
   358                           
   359  0070                     ?_Enable_Interrupt:	
   360                           ; 0 bytes @ 0x0
   361                           
   362  0070                     ?_recive_task:	
   363                           ; 0 bytes @ 0x0
   364                           
   365  0070                     ?_key_value_read:	
   366                           ; 0 bytes @ 0x0
   367                           
   368  0070                     ?_delay_task:	
   369                           ; 0 bytes @ 0x0
   370                           
   371  0070                     ?_TIMER1_ISR:	
   372                           ; 0 bytes @ 0x0
   373                           
   374  0070                     ??_TIMER1_ISR:	
   375                           ; 0 bytes @ 0x0
   376                           
   377  0070                     ?_SPI_init:	
   378                           ; 0 bytes @ 0x0
   379                           
   380  0070                     ?_RF_ClearFIFO:	
   381                           ; 0 bytes @ 0x0
   382                           
   383  0070                     ?_RF_ClearStatus:	
   384                           ; 0 bytes @ 0x0
   385                           
   386  0070                     ?_main:	
   387                           ; 0 bytes @ 0x0
   388                           
   389  0070                     ?_ISR:	
   390                           ; 0 bytes @ 0x0
   391                           
   392  0070                     ??_ISR:	
   393                           ; 0 bytes @ 0x0
   394                           
   395  0070                     ?_key_scan:	
   396                           ; 0 bytes @ 0x0
   397                           
   398  0070                     ?_iic_delay_us:	
   399                           ; 0 bytes @ 0x0
   400                           
   401  0070                     ?_IIC_START:	
   402                           ; 0 bytes @ 0x0
   403                           
   404  0070                     ?_IIC_STOP:	
   405                           ; 0 bytes @ 0x0
   406                           
   407  0070                     ?_IIC_ACK:	
   408                           ; 0 bytes @ 0x0
   409                           
   410  0070                     ?_IIC_NACK:	
   411                           ; 0 bytes @ 0x0
   412                           
   413  0070                     ?_I2C_SendByte:	
   414                           ; 0 bytes @ 0x0
   415                           
   416  0070                     ?_RF_GetStatus:	
   417                           ; 0 bytes @ 0x0
   418                           
   419  0070                     ?_RF_ReadReg:	
   420                           ; 1 bytes @ 0x0
   421                           
   422  0070                     ?_SPI_RW:	
   423                           ; 1 bytes @ 0x0
   424                           
   425  0070                     ?_rx_data:	
   426                           ; 1 bytes @ 0x0
   427                           
   428  0070                     ?_IIC_Wait_ACK:	
   429                           ; 1 bytes @ 0x0
   430                           
   431  0070                     ?_AT24C02_Read_Byte:	
   432                           ; 1 bytes @ 0x0
   433                           
   434  0070                     ?_loadParamsFromEeprom:	
   435                           ; 1 bytes @ 0x0
   436                           
   437                           
   438                           ; 2 bytes @ 0x0
   439  0070                     	ds	2
   440  0072                     ISR@peripheral_intterrupt_touch:	
   441                           
   442                           ; 1 bytes @ 0x2
   443  0072                     	ds	1
   444  0073                     ??_system_set_CPU_frequency:	
   445  0073                     ?_soft_delay_ms:	
   446                           ; 0 bytes @ 0x3
   447                           
   448  0073                     ??_IIC_Init:	
   449                           ; 0 bytes @ 0x3
   450                           
   451  0073                     ??_key_Init:	
   452                           ; 0 bytes @ 0x3
   453                           
   454  0073                     ??_Timer1_Init:	
   455                           ; 0 bytes @ 0x3
   456                           
   457  0073                     ?_Timer1_start:	
   458                           ; 0 bytes @ 0x3
   459                           
   460  0073                     ??_Enable_Interrupt:	
   461                           ; 0 bytes @ 0x3
   462                           
   463  0073                     ?_channel_set:	
   464                           ; 0 bytes @ 0x3
   465                           
   466  0073                     ??_delay_task:	
   467                           ; 0 bytes @ 0x3
   468                           
   469  0073                     ??_SPI_init:	
   470                           ; 0 bytes @ 0x3
   471                           
   472  0073                     ??_SPI_RW:	
   473                           ; 0 bytes @ 0x3
   474                           
   475  0073                     ??_iic_delay_us:	
   476                           ; 0 bytes @ 0x3
   477                           
   478  0073                     ?___bmul:	
   479                           ; 0 bytes @ 0x3
   480                           
   481  0073                     ?_UpdateCRC:	
   482                           ; 1 bytes @ 0x3
   483                           
   484  0073                     system_set_CPU_frequency@CPU_Frequency:	
   485                           ; 2 bytes @ 0x3
   486                           
   487  0073                     Timer1_Init@TIMER1_DIVIDER:	
   488                           ; 1 bytes @ 0x3
   489                           
   490  0073                     SPI_RW@read_reg_addr:	
   491                           ; 1 bytes @ 0x3
   492                           
   493  0073                     channel_set@status:	
   494                           ; 1 bytes @ 0x3
   495                           
   496  0073                     iic_delay_us@delay:	
   497                           ; 1 bytes @ 0x3
   498                           
   499  0073                     ___bmul@multiplicand:	
   500                           ; 1 bytes @ 0x3
   501                           
   502  0073                     Timer1_start@T_nums:	
   503                           ; 1 bytes @ 0x3
   504                           
   505  0073                     soft_delay_ms@ms:	
   506                           ; 2 bytes @ 0x3
   507                           
   508  0073                     UpdateCRC@len:	
   509                           ; 2 bytes @ 0x3
   510                           
   511                           
   512                           ; 2 bytes @ 0x3
   513  0073                     	ds	1
   514  0074                     ??_channel_set:	
   515  0074                     ??_IIC_START:	
   516                           ; 0 bytes @ 0x4
   517                           
   518  0074                     ??_IIC_STOP:	
   519                           ; 0 bytes @ 0x4
   520                           
   521  0074                     ??_IIC_Wait_ACK:	
   522                           ; 0 bytes @ 0x4
   523                           
   524  0074                     ??_IIC_ACK:	
   525                           ; 0 bytes @ 0x4
   526                           
   527  0074                     ??_IIC_NACK:	
   528                           ; 0 bytes @ 0x4
   529                           
   530  0074                     ??_I2C_SendByte:	
   531                           ; 0 bytes @ 0x4
   532                           
   533  0074                     ??___bmul:	
   534                           ; 0 bytes @ 0x4
   535                           
   536  0074                     ?_I2C_ReadByte:	
   537                           ; 0 bytes @ 0x4
   538                           
   539  0074                     SPI_RW@i:	
   540                           ; 2 bytes @ 0x4
   541                           
   542  0074                     channel_set@channel_num:	
   543                           ; 1 bytes @ 0x4
   544                           
   545  0074                     I2C_SendByte@Data:	
   546                           ; 1 bytes @ 0x4
   547                           
   548  0074                     ___bmul@product:	
   549                           ; 1 bytes @ 0x4
   550                           
   551                           
   552                           ; 1 bytes @ 0x4
   553  0074                     	ds	1
   554  0075                     ??_soft_delay_ms:	
   555  0075                     ??_key_value_read:	
   556                           ; 0 bytes @ 0x5
   557                           
   558  0075                     ??_RF_GetStatus:	
   559                           ; 0 bytes @ 0x5
   560                           
   561  0075                     ?_RF_WriteReg:	
   562                           ; 0 bytes @ 0x5
   563                           
   564  0075                     ??_RF_Write_Buff:	
   565                           ; 0 bytes @ 0x5
   566                           
   567  0075                     ??_RF_Read_Buff:	
   568                           ; 0 bytes @ 0x5
   569                           
   570  0075                     ??_RF_ReadReg:	
   571                           ; 0 bytes @ 0x5
   572                           
   573  0075                     ??_key_scan:	
   574                           ; 0 bytes @ 0x5
   575                           
   576  0075                     Timer1_start@Timer1_ISR_execution_total_time:	
   577                           ; 0 bytes @ 0x5
   578                           
   579  0075                     RF_WriteReg@write_data:	
   580                           ; 1 bytes @ 0x5
   581                           
   582  0075                     I2C_SendByte@cnt:	
   583                           ; 1 bytes @ 0x5
   584                           
   585  0075                     ___bmul@multiplier:	
   586                           ; 1 bytes @ 0x5
   587                           
   588                           
   589                           ; 1 bytes @ 0x5
   590  0075                     	ds	1
   591  0076                     ??_RF_Init:	
   592  0076                     ??_RF_Set_RxMode:	
   593                           ; 0 bytes @ 0x6
   594                           
   595  0076                     ??_RF_WriteReg:	
   596                           ; 0 bytes @ 0x6
   597                           
   598  0076                     ??_RF_ClearFIFO:	
   599                           ; 0 bytes @ 0x6
   600                           
   601  0076                     ??_RF_ClearStatus:	
   602                           ; 0 bytes @ 0x6
   603                           
   604  0076                     ??_AT24C02_Write_Byte:	
   605                           ; 0 bytes @ 0x6
   606                           
   607  0076                     ??_loadParamsFromEeprom:	
   608                           ; 0 bytes @ 0x6
   609                           
   610  0076                     ??_main:	
   611                           ; 0 bytes @ 0x6
   612                           
   613  0076                     ??_I2C_ReadByte:	
   614                           ; 0 bytes @ 0x6
   615                           
   616  0076                     ??_AT24C02_Read_Byte:	
   617                           ; 0 bytes @ 0x6
   618                           
   619                           
   620                           	psect	cstackBANK0
   621  0050                     __pcstackBANK0:	
   622                           ; 0 bytes @ 0x6
   623                           
   624  0050                     ??_Timer1_start:	
   625  0050                     ?_RF_Write_Buff:	
   626                           ; 0 bytes @ 0x0
   627                           
   628  0050                     ?_RF_Read_Buff:	
   629                           ; 0 bytes @ 0x0
   630                           
   631  0050                     ?_AT24C02_Write_Byte:	
   632                           ; 0 bytes @ 0x0
   633                           
   634  0050                     ??_UpdateCRC:	
   635                           ; 0 bytes @ 0x0
   636                           
   637  0050                     RF_Read_Buff@pBuff:	
   638                           ; 0 bytes @ 0x0
   639                           
   640  0050                     RF_Write_Buff@pBuff:	
   641                           ; 1 bytes @ 0x0
   642                           
   643  0050                     RF_WriteReg@reg_addr:	
   644                           ; 1 bytes @ 0x0
   645                           
   646  0050                     RF_ReadReg@reg_addr:	
   647                           ; 1 bytes @ 0x0
   648                           
   649  0050                     I2C_ReadByte@ack:	
   650                           ; 1 bytes @ 0x0
   651                           
   652  0050                     AT24C02_Write_Byte@data:	
   653                           ; 1 bytes @ 0x0
   654                           
   655  0050                     soft_delay_ms@i:	
   656                           ; 1 bytes @ 0x0
   657                           
   658                           
   659                           ; 2 bytes @ 0x0
   660  0050                     	ds	1
   661  0051                     RF_Read_Buff@length:	
   662  0051                     RF_Write_Buff@length:	
   663                           ; 1 bytes @ 0x1
   664                           
   665  0051                     RF_ReadReg@tmp:	
   666                           ; 1 bytes @ 0x1
   667                           
   668  0051                     AT24C02_Write_Byte@addr:	
   669                           ; 1 bytes @ 0x1
   670                           
   671  0051                     I2C_ReadByte@data:	
   672                           ; 1 bytes @ 0x1
   673                           
   674                           
   675                           ; 2 bytes @ 0x1
   676  0051                     	ds	1
   677  0052                     RF_Read_Buff@reg_addr:	
   678  0052                     RF_Write_Buff@reg_addr:	
   679                           ; 1 bytes @ 0x2
   680                           
   681  0052                     soft_delay_ms@j:	
   682                           ; 1 bytes @ 0x2
   683                           
   684                           
   685                           ; 1 bytes @ 0x2
   686  0052                     	ds	1
   687  0053                     RF_Read_Buff@byte_ctr:	
   688  0053                     RF_Write_Buff@i:	
   689                           ; 1 bytes @ 0x3
   690                           
   691  0053                     soft_delay_ms@k:	
   692                           ; 1 bytes @ 0x3
   693                           
   694  0053                     UpdateCRC@CRC_input:	
   695                           ; 1 bytes @ 0x3
   696                           
   697  0053                     I2C_ReadByte@cnt:	
   698                           ; 1 bytes @ 0x3
   699                           
   700                           
   701                           ; 1 bytes @ 0x3
   702  0053                     	ds	1
   703  0054                     ?_AT24C02_Write_Msg:	
   704  0054                     ?_RF_RxData:	
   705                           ; 0 bytes @ 0x4
   706                           
   707  0054                     RF_RxData@length:	
   708                           ; 1 bytes @ 0x4
   709                           
   710  0054                     UpdateCRC@k:	
   711                           ; 1 bytes @ 0x4
   712                           
   713  0054                     AT24C02_Read_Byte@addr:	
   714                           ; 1 bytes @ 0x4
   715                           
   716  0054                     AT24C02_Write_Msg@data:	
   717                           ; 1 bytes @ 0x4
   718                           
   719                           
   720                           ; 1 bytes @ 0x4
   721  0054                     	ds	1
   722  0055                     ??_RF_RxData:	
   723  0055                     UpdateCRC@i:	
   724                           ; 0 bytes @ 0x5
   725                           
   726  0055                     AT24C02_Read_Byte@temp:	
   727                           ; 1 bytes @ 0x5
   728                           
   729  0055                     AT24C02_Write_Msg@len:	
   730                           ; 1 bytes @ 0x5
   731                           
   732                           
   733                           ; 1 bytes @ 0x5
   734  0055                     	ds	1
   735  0056                     ?_AT24C02_Read_Msg:	
   736  0056                     ??_AT24C02_Write_Msg:	
   737                           ; 0 bytes @ 0x6
   738                           
   739  0056                     RF_RxData@payload_buff:	
   740                           ; 0 bytes @ 0x6
   741                           
   742  0056                     AT24C02_Read_Msg@data:	
   743                           ; 1 bytes @ 0x6
   744                           
   745  0056                     UpdateCRC@CRC_acc:	
   746                           ; 1 bytes @ 0x6
   747                           
   748                           
   749                           ; 2 bytes @ 0x6
   750  0056                     	ds	1
   751  0057                     AT24C02_Write_Msg@addr:	
   752  0057                     AT24C02_Read_Msg@len:	
   753                           ; 1 bytes @ 0x7
   754                           
   755                           
   756                           ; 1 bytes @ 0x7
   757  0057                     	ds	1
   758  0058                     ??_AT24C02_Read_Msg:	
   759  0058                     ??_rx_data:	
   760                           ; 0 bytes @ 0x8
   761                           
   762  0058                     AT24C02_Write_Msg@i:	
   763                           ; 0 bytes @ 0x8
   764                           
   765                           
   766                           ; 1 bytes @ 0x8
   767  0058                     	ds	1
   768  0059                     AT24C02_Read_Msg@addr:	
   769                           
   770                           ; 1 bytes @ 0x9
   771  0059                     	ds	1
   772  005A                     AT24C02_Read_Msg@i:	
   773                           
   774                           ; 1 bytes @ 0xA
   775  005A                     	ds	1
   776  005B                     loadParamsFromEeprom@i:	
   777  005B                     rx_data@crc16:	
   778                           ; 1 bytes @ 0xB
   779                           
   780                           
   781                           ; 2 bytes @ 0xB
   782  005B                     	ds	2
   783  005D                     rx_data@rand:	
   784                           
   785                           ; 1 bytes @ 0xD
   786  005D                     	ds	1
   787  005E                     rx_data@rx_flag:	
   788                           
   789                           ; 1 bytes @ 0xE
   790  005E                     	ds	1
   791  005F                     rx_data@i:	
   792                           
   793                           ; 1 bytes @ 0xF
   794  005F                     	ds	1
   795  0060                     ??_recive_task:	
   796                           
   797                           ; 0 bytes @ 0x10
   798  0060                     	ds	4
   799  0064                     recive_task@msg:	
   800                           
   801                           ; 6 bytes @ 0x14
   802  0064                     	ds	6
   803  006A                     recive_task@match_flag:	
   804                           
   805                           ; 1 bytes @ 0x1A
   806  006A                     	ds	1
   807  006B                     recive_task@flag:	
   808                           
   809                           ; 1 bytes @ 0x1B
   810  006B                     	ds	1
   811  006C                     recive_task@i:	
   812                           
   813                           ; 1 bytes @ 0x1C
   814  006C                     	ds	1
   815                           
   816                           	psect	maintext
   817  0452                     __pmaintext:	
   818 ;;Data sizes: Strings 0, constant 121, data 2, bss 131, persistent 0 stack 0
   819 ;;Auto spaces:   Size  Autos    Used
   820 ;; COMMON          14      6      11
   821 ;; BANK0           80     29      79
   822 ;; BANK1           80      0      78
   823 ;;
   824 ;; Pointer list with targets:
   825 ;; ?_I2C_ReadByte	unsigned int  size(1) Largest target is 0
   826 ;;
   827 ;; ?_UpdateCRC	unsigned short  size(1) Largest target is 0
   828 ;;
   829 ;; AT24C02_Read_Msg@data	PTR unsigned char  size(1) Largest target is 72
   830 ;;		 -> channel_flag(BANK0[1]), control_id(BANK1[72]), 
   831 ;;
   832 ;; AT24C02_Write_Msg@data	PTR unsigned char  size(1) Largest target is 72
   833 ;;		 -> recive_task@msg(BANK0[6]), channel_flag(BANK0[1]), control_id(BANK1[72]), 
   834 ;;
   835 ;; UpdateCRC@CRC_input	PTR unsigned char  size(1) Largest target is 18
   836 ;;		 -> rf_buf(BANK0[18]), 
   837 ;;
   838 ;; RF_Write_Buff@pBuff	PTR unsigned char  size(1) Largest target is 6
   839 ;;		 -> RF_Carrier@Dem_cal2_data(CODE[3]), RF_Carrier@RF_cal_data(CODE[3]), RF_Carrier@Dem_cal_data(CODE[1]), RF_Carrier
      +@RF_cal2_data(CODE[6]), 
   840 ;;		 -> RF_Carrier@BB_cal_data(CODE[5]), RF_Init@Dem_cal2_data(CODE[3]), RF_Init@RF_cal_data(CODE[3]), RF_Init@Dem_cal_d
      +ata(CODE[1]), 
   841 ;;		 -> RF_Init@RF_cal2_data(CODE[6]), RF_Init@BB_cal_data(CODE[5]), RX_ADDRESS_DEF(CODE[3]), TX_ADDRESS_DEF(CODE[3]), 
   842 ;;
   843 ;; RF_Read_Buff@pBuff	PTR unsigned char  size(1) Largest target is 18
   844 ;;		 -> rf_buf(BANK0[18]), 
   845 ;;
   846 ;; RF_RxData@payload_buff	PTR unsigned char  size(1) Largest target is 18
   847 ;;		 -> rf_buf(BANK0[18]), 
   848 ;;
   849 ;;
   850 ;; Critical Paths under _main in COMMON
   851 ;;
   852 ;;   _main->_Timer1_start
   853 ;;   _recive_task->___bmul
   854 ;;   _loadParamsFromEeprom->___bmul
   855 ;;   _AT24C02_Read_Msg->___bmul
   856 ;;   _AT24C02_Read_Byte->_I2C_SendByte
   857 ;;   _AT24C02_Read_Byte->_I2C_ReadByte
   858 ;;   _AT24C02_Write_Msg->___bmul
   859 ;;   _RF_RxData->_RF_Read_Buff
   860 ;;   _I2C_ReadByte->_iic_delay_us
   861 ;;   _AT24C02_Write_Byte->_I2C_SendByte
   862 ;;   _RF_ClearStatus->_RF_WriteReg
   863 ;;   _RF_ClearFIFO->_RF_WriteReg
   864 ;;   _key_value_read->_soft_delay_ms
   865 ;;   _RF_Set_RxMode->_RF_WriteReg
   866 ;;   _RF_Init->_RF_WriteReg
   867 ;;   _I2C_SendByte->_iic_delay_us
   868 ;;   _IIC_NACK->_iic_delay_us
   869 ;;   _IIC_ACK->_iic_delay_us
   870 ;;   _IIC_Wait_ACK->_iic_delay_us
   871 ;;   _IIC_STOP->_iic_delay_us
   872 ;;   _IIC_START->_iic_delay_us
   873 ;;   _key_scan->_soft_delay_ms
   874 ;;   _RF_ReadReg->_SPI_RW
   875 ;;   _RF_Read_Buff->_SPI_RW
   876 ;;   _RF_Write_Buff->_SPI_RW
   877 ;;   _RF_WriteReg->_SPI_RW
   878 ;;
   879 ;; Critical Paths under _ISR in COMMON
   880 ;;
   881 ;;   None.
   882 ;;
   883 ;; Critical Paths under _main in BANK0
   884 ;;
   885 ;;   _main->_recive_task
   886 ;;   _recive_task->_rx_data
   887 ;;   _loadParamsFromEeprom->_AT24C02_Read_Msg
   888 ;;   _rx_data->_UpdateCRC
   889 ;;   _AT24C02_Read_Msg->_AT24C02_Read_Byte
   890 ;;   _AT24C02_Read_Byte->_I2C_ReadByte
   891 ;;   _AT24C02_Write_Msg->_soft_delay_ms
   892 ;;   _RF_RxData->_RF_Read_Buff
   893 ;;   _RF_ClearStatus->_RF_WriteReg
   894 ;;   _RF_ClearFIFO->_RF_WriteReg
   895 ;;   _RF_GetStatus->_RF_ReadReg
   896 ;;   _key_value_read->_soft_delay_ms
   897 ;;   _RF_Set_RxMode->_soft_delay_ms
   898 ;;   _RF_Init->_RF_Write_Buff
   899 ;;   _key_scan->_soft_delay_ms
   900 ;;
   901 ;; Critical Paths under _ISR in BANK0
   902 ;;
   903 ;;   None.
   904 ;;
   905 ;; Critical Paths under _main in BANK1
   906 ;;
   907 ;;   None.
   908 ;;
   909 ;; Critical Paths under _ISR in BANK1
   910 ;;
   911 ;;   None.
   912 ;;
   913 ;;Main: autosize = 0, tempsize = 0, incstack = 0, save=0
   914 ;;
   915 ;;
   916 ;;Call Graph Tables:
   917 ;;
   918 ;; ---------------------------------------------------------------------------------
   919 ;; (Depth) Function   	        Calls       Base Space   Used Autos Params    Refs
   920 ;; ---------------------------------------------------------------------------------
   921 ;; (0) _main                                                 0     0      0   12939
   922 ;;           _system_set_CPU_frequency
   923 ;;                      _soft_delay_ms
   924 ;;                           _IIC_Init
   925 ;;                           _key_Init
   926 ;;                            _RF_Init
   927 ;;                      _RF_Set_RxMode
   928 ;;                        _Timer1_Init
   929 ;;                       _Timer1_start
   930 ;;               _loadParamsFromEeprom
   931 ;;                   _Enable_Interrupt
   932 ;;                        _channel_set
   933 ;;                        _recive_task
   934 ;;                     _key_value_read
   935 ;;                         _delay_task
   936 ;; ---------------------------------------------------------------------------------
   937 ;; (1) _recive_task                                         13    13      0   10584
   938 ;;                                             16 BANK0     13    13      0
   939 ;;                 _AT24C02_Write_Byte
   940 ;;                      _soft_delay_ms
   941 ;;                             ___bmul
   942 ;;                   _AT24C02_Read_Msg
   943 ;;                            _rx_data
   944 ;;                  _AT24C02_Write_Msg
   945 ;;                       _RF_ClearFIFO
   946 ;;                     _RF_ClearStatus
   947 ;; ---------------------------------------------------------------------------------
   948 ;; (1) _loadParamsFromEeprom                                 1     1      0     897
   949 ;;                                             11 BANK0      1     1      0
   950 ;;                             ___bmul
   951 ;;                   _AT24C02_Read_Msg
   952 ;; ---------------------------------------------------------------------------------
   953 ;; (2) _rx_data                                              8     8      0    1697
   954 ;;                                              8 BANK0      8     8      0
   955 ;;                          _RF_RxData
   956 ;;                          _UpdateCRC
   957 ;; ---------------------------------------------------------------------------------
   958 ;; (2) _AT24C02_Read_Msg                                     5     3      2     675
   959 ;;                                              6 BANK0      5     3      2
   960 ;;                  _AT24C02_Read_Byte
   961 ;;                      _soft_delay_ms
   962 ;;                             ___bmul (ARG)
   963 ;; ---------------------------------------------------------------------------------
   964 ;; (3) _AT24C02_Read_Byte                                    2     2      0     370
   965 ;;                                              4 BANK0      2     2      0
   966 ;;                          _IIC_START
   967 ;;                       _I2C_SendByte
   968 ;;                       _IIC_Wait_ACK
   969 ;;                       _I2C_ReadByte
   970 ;;                           _IIC_STOP
   971 ;; ---------------------------------------------------------------------------------
   972 ;; (2) _AT24C02_Write_Msg                                    5     3      2     533
   973 ;;                                              4 BANK0      5     3      2
   974 ;;                 _AT24C02_Write_Byte
   975 ;;                      _soft_delay_ms
   976 ;;                             ___bmul (ARG)
   977 ;; ---------------------------------------------------------------------------------
   978 ;; (3) _RF_RxData                                            3     2      1     956
   979 ;;                                              4 BANK0      3     2      1
   980 ;;                       _RF_GetStatus
   981 ;;                       _RF_Read_Buff
   982 ;;                       _RF_ClearFIFO
   983 ;;                     _RF_ClearStatus
   984 ;; ---------------------------------------------------------------------------------
   985 ;; (4) _I2C_ReadByte                                         6     4      2     158
   986 ;;                                              4 COMMON     2     0      2
   987 ;;                                              0 BANK0      4     4      0
   988 ;;                       _iic_delay_us
   989 ;;                           _IIC_NACK
   990 ;;                            _IIC_ACK
   991 ;; ---------------------------------------------------------------------------------
   992 ;; (3) _AT24C02_Write_Byte                                   2     1      1     228
   993 ;;                                              0 BANK0      2     1      1
   994 ;;                          _IIC_START
   995 ;;                       _I2C_SendByte
   996 ;;                       _IIC_Wait_ACK
   997 ;;                           _IIC_STOP
   998 ;; ---------------------------------------------------------------------------------
   999 ;; (2) _RF_ClearStatus                                       0     0      0     198
  1000 ;;                        _RF_WriteReg
  1001 ;; ---------------------------------------------------------------------------------
  1002 ;; (2) _RF_ClearFIFO                                         0     0      0     198
  1003 ;;                        _RF_WriteReg
  1004 ;; ---------------------------------------------------------------------------------
  1005 ;; (4) _RF_GetStatus                                         0     0      0     201
  1006 ;;                         _RF_ReadReg
  1007 ;; ---------------------------------------------------------------------------------
  1008 ;; (1) _key_value_read                                       0     0      0     276
  1009 ;;                           _key_scan
  1010 ;;                      _soft_delay_ms
  1011 ;; ---------------------------------------------------------------------------------
  1012 ;; (1) _RF_Set_RxMode                                        0     0      0     336
  1013 ;;                        _RF_WriteReg
  1014 ;;                      _soft_delay_ms
  1015 ;; ---------------------------------------------------------------------------------
  1016 ;; (1) _RF_Init                                              1     1      0     532
  1017 ;;                                              4 BANK0      1     1      0
  1018 ;;                           _SPI_init
  1019 ;;                        _RF_WriteReg
  1020 ;;                      _RF_Write_Buff
  1021 ;; ---------------------------------------------------------------------------------
  1022 ;; (4) _I2C_SendByte                                         2     2      0      91
  1023 ;;                                              4 COMMON     2     2      0
  1024 ;;                       _iic_delay_us
  1025 ;; ---------------------------------------------------------------------------------
  1026 ;; (5) _IIC_NACK                                             0     0      0      22
  1027 ;;                       _iic_delay_us
  1028 ;; ---------------------------------------------------------------------------------
  1029 ;; (5) _IIC_ACK                                              0     0      0      22
  1030 ;;                       _iic_delay_us
  1031 ;; ---------------------------------------------------------------------------------
  1032 ;; (4) _IIC_Wait_ACK                                         1     1      0      31
  1033 ;;                                              4 COMMON     1     1      0
  1034 ;;                       _iic_delay_us
  1035 ;; ---------------------------------------------------------------------------------
  1036 ;; (4) _IIC_STOP                                             0     0      0      22
  1037 ;;                       _iic_delay_us
  1038 ;; ---------------------------------------------------------------------------------
  1039 ;; (4) _IIC_START                                            0     0      0      22
  1040 ;;                       _iic_delay_us
  1041 ;; ---------------------------------------------------------------------------------
  1042 ;; (2) _key_scan                                             0     0      0     138
  1043 ;;                      _soft_delay_ms
  1044 ;; ---------------------------------------------------------------------------------
  1045 ;; (5) _RF_ReadReg                                           2     2      0     201
  1046 ;;                                              0 BANK0      2     2      0
  1047 ;;                             _SPI_RW
  1048 ;; ---------------------------------------------------------------------------------
  1049 ;; (4) _RF_Read_Buff                                         5     3      2     297
  1050 ;;                                              5 COMMON     1     1      0
  1051 ;;                                              0 BANK0      4     2      2
  1052 ;;                             _SPI_RW
  1053 ;; ---------------------------------------------------------------------------------
  1054 ;; (2) _RF_Write_Buff                                        4     2      2     297
  1055 ;;                                              0 BANK0      4     2      2
  1056 ;;                             _SPI_RW
  1057 ;; ---------------------------------------------------------------------------------
  1058 ;; (3) _RF_WriteReg                                          2     1      1     198
  1059 ;;                                              5 COMMON     1     0      1
  1060 ;;                                              0 BANK0      1     1      0
  1061 ;;                             _SPI_RW
  1062 ;; ---------------------------------------------------------------------------------
  1063 ;; (2) ___bmul                                               3     2      1      92
  1064 ;;                                              3 COMMON     3     2      1
  1065 ;; ---------------------------------------------------------------------------------
  1066 ;; (5) _iic_delay_us                                         1     1      0      22
  1067 ;;                                              3 COMMON     1     1      0
  1068 ;; ---------------------------------------------------------------------------------
  1069 ;; (3) _UpdateCRC                                           10     8      2     169
  1070 ;;                                              3 COMMON     2     0      2
  1071 ;;                                              0 BANK0      8     8      0
  1072 ;; ---------------------------------------------------------------------------------
  1073 ;; (4) _SPI_RW                                               2     2      0     136
  1074 ;;                                              3 COMMON     2     2      0
  1075 ;; ---------------------------------------------------------------------------------
  1076 ;; (2) _SPI_init                                             0     0      0       0
  1077 ;; ---------------------------------------------------------------------------------
  1078 ;; (1) _delay_task                                           0     0      0       0
  1079 ;; ---------------------------------------------------------------------------------
  1080 ;; (1) _channel_set                                          2     1      1      88
  1081 ;;                                              3 COMMON     2     1      1
  1082 ;; ---------------------------------------------------------------------------------
  1083 ;; (1) _Enable_Interrupt                                     0     0      0       0
  1084 ;; ---------------------------------------------------------------------------------
  1085 ;; (1) _Timer1_start                                         5     2      3      44
  1086 ;;                                              3 COMMON     3     0      3
  1087 ;;                                              0 BANK0      2     2      0
  1088 ;; ---------------------------------------------------------------------------------
  1089 ;; (1) _Timer1_Init                                          1     1      0      22
  1090 ;;                                              3 COMMON     1     1      0
  1091 ;; ---------------------------------------------------------------------------------
  1092 ;; (1) _key_Init                                             0     0      0       0
  1093 ;; ---------------------------------------------------------------------------------
  1094 ;; (1) _IIC_Init                                             0     0      0       0
  1095 ;; ---------------------------------------------------------------------------------
  1096 ;; (2) _soft_delay_ms                                        6     4      2     138
  1097 ;;                                              3 COMMON     2     0      2
  1098 ;;                                              0 BANK0      4     4      0
  1099 ;; ---------------------------------------------------------------------------------
  1100 ;; (1) _system_set_CPU_frequency                             1     1      0      22
  1101 ;;                                              3 COMMON     1     1      0
  1102 ;; ---------------------------------------------------------------------------------
  1103 ;; Estimated maximum stack depth 5
  1104 ;; ---------------------------------------------------------------------------------
  1105 ;; (Depth) Function   	        Calls       Base Space   Used Autos Params    Refs
  1106 ;; ---------------------------------------------------------------------------------
  1107 ;; (7) _ISR                                                  6     6      0      24
  1108 ;;                                              0 COMMON     3     3      0
  1109 ;;                         _TIMER1_ISR
  1110 ;; ---------------------------------------------------------------------------------
  1111 ;; (8) _TIMER1_ISR                                           0     0      0       0
  1112 ;; ---------------------------------------------------------------------------------
  1113 ;; Estimated maximum stack depth 8
  1114 ;; ---------------------------------------------------------------------------------
  1115 ;; Call Graph Graphs:
  1116 ;; _main (ROOT)
  1117 ;;   _system_set_CPU_frequency
  1118 ;;   _soft_delay_ms
  1119 ;;   _IIC_Init
  1120 ;;   _key_Init
  1121 ;;   _RF_Init
  1122 ;;     _SPI_init
  1123 ;;     _RF_WriteReg
  1124 ;;       _SPI_RW
  1125 ;;     _RF_Write_Buff
  1126 ;;       _SPI_RW
  1127 ;;   _RF_Set_RxMode
  1128 ;;     _RF_WriteReg
  1129 ;;       _SPI_RW
  1130 ;;     _soft_delay_ms
  1131 ;;   _Timer1_Init
  1132 ;;   _Timer1_start
  1133 ;;   _loadParamsFromEeprom
  1134 ;;     ___bmul
  1135 ;;     _AT24C02_Read_Msg
  1136 ;;       _AT24C02_Read_Byte
  1137 ;;         _IIC_START
  1138 ;;           _iic_delay_us
  1139 ;;         _I2C_SendByte
  1140 ;;           _iic_delay_us
  1141 ;;         _IIC_Wait_ACK
  1142 ;;           _iic_delay_us
  1143 ;;         _I2C_ReadByte
  1144 ;;           _iic_delay_us
  1145 ;;           _IIC_NACK
  1146 ;;             _iic_delay_us
  1147 ;;           _IIC_ACK
  1148 ;;             _iic_delay_us
  1149 ;;         _IIC_STOP
  1150 ;;           _iic_delay_us
  1151 ;;       _soft_delay_ms
  1152 ;;       ___bmul (ARG)
  1153 ;;   _Enable_Interrupt
  1154 ;;   _channel_set
  1155 ;;   _recive_task
  1156 ;;     _AT24C02_Write_Byte
  1157 ;;       _IIC_START
  1158 ;;         _iic_delay_us
  1159 ;;       _I2C_SendByte
  1160 ;;         _iic_delay_us
  1161 ;;       _IIC_Wait_ACK
  1162 ;;         _iic_delay_us
  1163 ;;       _IIC_STOP
  1164 ;;         _iic_delay_us
  1165 ;;     _soft_delay_ms
  1166 ;;     ___bmul
  1167 ;;     _AT24C02_Read_Msg
  1168 ;;       _AT24C02_Read_Byte
  1169 ;;         _IIC_START
  1170 ;;           _iic_delay_us
  1171 ;;         _I2C_SendByte
  1172 ;;           _iic_delay_us
  1173 ;;         _IIC_Wait_ACK
  1174 ;;           _iic_delay_us
  1175 ;;         _I2C_ReadByte
  1176 ;;           _iic_delay_us
  1177 ;;           _IIC_NACK
  1178 ;;             _iic_delay_us
  1179 ;;           _IIC_ACK
  1180 ;;             _iic_delay_us
  1181 ;;         _IIC_STOP
  1182 ;;           _iic_delay_us
  1183 ;;       _soft_delay_ms
  1184 ;;       ___bmul (ARG)
  1185 ;;     _rx_data
  1186 ;;       _RF_RxData
  1187 ;;         _RF_GetStatus
  1188 ;;           _RF_ReadReg
  1189 ;;             _SPI_RW
  1190 ;;         _RF_Read_Buff
  1191 ;;           _SPI_RW
  1192 ;;         _RF_ClearFIFO
  1193 ;;           _RF_WriteReg
  1194 ;;             _SPI_RW
  1195 ;;         _RF_ClearStatus
  1196 ;;           _RF_WriteReg
  1197 ;;             _SPI_RW
  1198 ;;       _UpdateCRC
  1199 ;;     _AT24C02_Write_Msg
  1200 ;;       _AT24C02_Write_Byte
  1201 ;;         _IIC_START
  1202 ;;           _iic_delay_us
  1203 ;;         _I2C_SendByte
  1204 ;;           _iic_delay_us
  1205 ;;         _IIC_Wait_ACK
  1206 ;;           _iic_delay_us
  1207 ;;         _IIC_STOP
  1208 ;;           _iic_delay_us
  1209 ;;       _soft_delay_ms
  1210 ;;       ___bmul (ARG)
  1211 ;;     _RF_ClearFIFO
  1212 ;;       _RF_WriteReg
  1213 ;;         _SPI_RW
  1214 ;;     _RF_ClearStatus
  1215 ;;       _RF_WriteReg
  1216 ;;         _SPI_RW
  1217 ;;   _key_value_read
  1218 ;;     _key_scan
  1219 ;;       _soft_delay_ms
  1220 ;;     _soft_delay_ms
  1221 ;;   _delay_task
  1222 ;;
  1223 ;; _ISR (ROOT)
  1224 ;;   _TIMER1_ISR
  1225 ;;
  1226 ;; Address spaces:
  1227 ;;Name               Size   Autos  Total    Cost      Usage
  1228 ;;SFR3                 0      0       0       4        0.0%
  1229 ;;BITSFR3              0      0       0       4        0.0%
  1230 ;;SFR2                 0      0       0       5        0.0%
  1231 ;;BITSFR2              0      0       0       5        0.0%
  1232 ;;SFR1                 0      0       0       2        0.0%
  1233 ;;BITSFR1              0      0       0       2        0.0%
  1234 ;;BANK1               50      0      4E       7       97.5%
  1235 ;;BITBANK1            50      0       0       6        0.0%
  1236 ;;CODE                 0      0       0       0        0.0%
  1237 ;;DATA                 0      0      B2       8        0.0%
  1238 ;;ABS                  0      0      A8       3        0.0%
  1239 ;;NULL                 0      0       0       0        0.0%
  1240 ;;STACK                0      0       A       2        0.0%
  1241 ;;BANK0               50     1D      4F       5       98.8%
  1242 ;;BITBANK0            50      0       0       4        0.0%
  1243 ;;SFR0                 0      0       0       1        0.0%
  1244 ;;BITSFR0              0      0       0       1        0.0%
  1245 ;;COMMON               E      6       B       1       78.6%
  1246 ;;BITCOMMON            E      0       0       0        0.0%
  1247                           
  1248                           
  1249 ;; *************** function _main *****************
  1250 ;; Defined at:
  1251 ;;		line 78 in file "F:\\\PAV03fix\PAV03\pav03\src\main.c"
  1252 ;; Parameters:    Size  Location     Type
  1253 ;;		None
  1254 ;; Auto vars:     Size  Location     Type
  1255 ;;		None
  1256 ;; Return value:  Size  Location     Type
  1257 ;;		None               void
  1258 ;; Registers used:
  1259 ;;		wreg, fsr0l, fsr0h, status,2, status,0, btemp+1, pclath, cstack
  1260 ;; Tracked objects:
  1261 ;;		On entry : 17F/0
  1262 ;;		On exit  : 60/0
  1263 ;;		Unchanged: FFE00/0
  1264 ;; Data sizes:     COMMON   BANK0   BANK1
  1265 ;;      Params:         0       0       0
  1266 ;;      Locals:         0       0       0
  1267 ;;      Temps:          0       0       0
  1268 ;;      Totals:         0       0       0
  1269 ;;Total ram usage:        0 bytes
  1270 ;; Hardware stack levels required when called:    8
  1271 ;; This function calls:
  1272 ;;		_system_set_CPU_frequency
  1273 ;;		_soft_delay_ms
  1274 ;;		_IIC_Init
  1275 ;;		_key_Init
  1276 ;;		_RF_Init
  1277 ;;		_RF_Set_RxMode
  1278 ;;		_Timer1_Init
  1279 ;;		_Timer1_start
  1280 ;;		_loadParamsFromEeprom
  1281 ;;		_Enable_Interrupt
  1282 ;;		_channel_set
  1283 ;;		_recive_task
  1284 ;;		_key_value_read
  1285 ;;		_delay_task
  1286 ;; This function is called by:
  1287 ;;		Startup code after reset
  1288 ;; This function uses a non-reentrant model
  1289 ;;
  1290  0452                     _main:	
  1291                           
  1292                           ;main.c: 79: system_set_CPU_frequency(CPU_FREQUENCY_8M);
  1293                           
  1294                           ; Regs used in _main: [wreg-fsr0h+status,2+status,0+btemp+1+pclath+cstack]
  1295  0452  3071               	movlw	113
  1296  0453  118A  25A3  118A   	fcall	_system_set_CPU_frequency
  1297                           
  1298                           ;main.c: 80: soft_delay_ms(500);
  1299  0456  30F4               	movlw	244
  1300  0457  00F3               	movwf	?_soft_delay_ms
  1301  0458  3001               	movlw	1
  1302  0459  00F4               	movwf	?_soft_delay_ms+1
  1303  045A  158A  275D  118A   	fcall	_soft_delay_ms
  1304  045D  0000               	nop	;#
  1305                           
  1306                           ;main.c: 84: TRISC = 0x00;
  1307  045E  1683               	bsf	3,5	;RP0=1, select bank1
  1308  045F  1303               	bcf	3,6	;RP1=0, select bank1
  1309  0460  0187               	clrf	7	;volatile
  1310                           
  1311                           ;main.c: 85: TRISB |= 0x70;
  1312  0461  3070               	movlw	112
  1313  0462  0486               	iorwf	6,f	;volatile
  1314                           
  1315                           ;main.c: 87: RC0 = 1;
  1316  0463  1283               	bcf	3,5	;RP0=0, select bank0
  1317  0464  1407               	bsf	7,0
  1318                           
  1319                           ;main.c: 89: IIC_Init();
  1320  0465  118A  259D  118A   	fcall	_IIC_Init
  1321                           
  1322                           ;main.c: 90: key_Init();
  1323  0468  118A  2597  118A   	fcall	_key_Init
  1324                           
  1325                           ;main.c: 91: RF_Init();
  1326  046B  118A  210A  118A   	fcall	_RF_Init
  1327                           
  1328                           ;main.c: 92: RF_Set_RxMode();
  1329  046E  118A  200D  118A   	fcall	_RF_Set_RxMode
  1330                           
  1331                           ;main.c: 94: Timer1_Init(TIMER1_DIV_8);
  1332  0471  3030               	movlw	48
  1333  0472  118A  2590  118A   	fcall	_Timer1_Init
  1334                           
  1335                           ;main.c: 95: Timer1_start(10000, 0);
  1336  0475  3010               	movlw	16
  1337  0476  00F3               	movwf	?_Timer1_start
  1338  0477  3027               	movlw	39
  1339  0478  00F4               	movwf	?_Timer1_start+1
  1340  0479  01F5               	clrf	?_Timer1_start+2
  1341  047A  118A  2567  118A   	fcall	_Timer1_start
  1342                           
  1343                           ;main.c: 97: loadParamsFromEeprom();
  1344  047D  158A  2025  118A   	fcall	_loadParamsFromEeprom
  1345                           
  1346                           ;main.c: 99: Enable_Interrupt();
  1347  0480  118A  25A8  118A   	fcall	_Enable_Interrupt
  1348                           
  1349                           ;main.c: 101: (TRISC0=0,RC0=0);
  1350  0483  1683               	bsf	3,5	;RP0=1, select bank1
  1351  0484  1007               	bcf	7,0
  1352  0485  1283               	bcf	3,5	;RP0=0, select bank0
  1353  0486  3064               	movlw	100
  1354  0487  1007               	bcf	7,0
  1355                           
  1356                           ;main.c: 102: soft_delay_ms(100);
  1357  0488  00F3               	movwf	?_soft_delay_ms
  1358  0489  01F4               	clrf	?_soft_delay_ms+1
  1359  048A  158A  275D  118A   	fcall	_soft_delay_ms
  1360                           
  1361                           ;main.c: 103: (TRISC0=0,RC0=1);
  1362  048D  1683               	bsf	3,5	;RP0=1, select bank1
  1363  048E  1007               	bcf	7,0
  1364  048F  1283               	bcf	3,5	;RP0=0, select bank0
  1365  0490  1407               	bsf	7,0
  1366  0491                     l17772:	
  1367                           
  1368                           ;main.c: 106: {
  1369                           ;main.c: 107: channel_set(0, KEY0.channel_status);
  1370  0491  0820               	movf	_KEY0,w
  1371  0492  00F3               	movwf	?_channel_set
  1372  0493  3000               	movlw	0
  1373  0494  118A  24F2  118A   	fcall	_channel_set
  1374                           
  1375                           ;main.c: 108: channel_set(1, KEY1.channel_status);
  1376  0497  0823               	movf	_KEY1,w
  1377  0498  00F3               	movwf	?_channel_set
  1378  0499  3001               	movlw	1
  1379  049A  118A  24F2  118A   	fcall	_channel_set
  1380                           
  1381                           ;main.c: 109: channel_set(2, KEY2.channel_status);
  1382  049D  0826               	movf	_KEY2,w
  1383  049E  00F3               	movwf	?_channel_set
  1384  049F  3002               	movlw	2
  1385  04A0  118A  24F2  118A   	fcall	_channel_set
  1386                           
  1387                           ;main.c: 111: recive_task();
  1388  04A3  158A  2041  118A   	fcall	_recive_task
  1389                           
  1390                           ;main.c: 113: key_value_read();
  1391  04A6  118A  21D3  118A   	fcall	_key_value_read
  1392                           
  1393                           ;main.c: 115: delay_task();
  1394  04A9  118A  23DD  118A   	fcall	_delay_task
  1395  04AC  2C91               	goto	l17772
  1396  04AD                     __end_of_main:	
  1397                           
  1398                           	psect	text1132
  1399  0808                     __ptext1132:	
  1400 ;; =============== function _AT24C02_Read_Msg ends ============
  1401                           
  1402                           
  1403 ;; *************** function _AT24C02_Read_Byte *****************
  1404 ;; Defined at:
  1405 ;;		line 21 in file "F:\\\PAV03fix\PAV03\pav03\src\e2prom.c"
  1406 ;; Parameters:    Size  Location     Type
  1407 ;;  addr            1    wreg     unsigned char 
  1408 ;; Auto vars:     Size  Location     Type
  1409 ;;  addr            1    4[BANK0 ] unsigned char 
  1410 ;;  temp            1    5[BANK0 ] unsigned char 
  1411 ;; Return value:  Size  Location     Type
  1412 ;;                  1    wreg      unsigned char 
  1413 ;; Registers used:
  1414 ;;		wreg, status,2, status,0, pclath, cstack
  1415 ;; Tracked objects:
  1416 ;;		On entry : 60/0
  1417 ;;		On exit  : 60/0
  1418 ;;		Unchanged: FFF9F/0
  1419 ;; Data sizes:     COMMON   BANK0   BANK1
  1420 ;;      Params:         0       0       0
  1421 ;;      Locals:         0       2       0
  1422 ;;      Temps:          0       0       0
  1423 ;;      Totals:         0       2       0
  1424 ;;Total ram usage:        2 bytes
  1425 ;; Hardware stack levels used:    1
  1426 ;; Hardware stack levels required when called:    5
  1427 ;; This function calls:
  1428 ;;		_IIC_START
  1429 ;;		_I2C_SendByte
  1430 ;;		_IIC_Wait_ACK
  1431 ;;		_I2C_ReadByte
  1432 ;;		_IIC_STOP
  1433 ;; This function is called by:
  1434 ;;		_AT24C02_Read_Msg
  1435 ;; This function uses a non-reentrant model
  1436 ;;
  1437  0808                     _AT24C02_Read_Byte:	
  1438                           
  1439                           ; Regs used in _AT24C02_Read_Byte: [wreg+status,2+status,0+pclath+cstack]
  1440                           ;AT24C02_Read_Byte@addr stored from wreg
  1441  0808  00D4               	movwf	AT24C02_Read_Byte@addr
  1442                           
  1443                           ;e2prom.c: 23: IIC_START();
  1444  0809  27F3  158A         	fcall	_IIC_START
  1445                           
  1446                           ;e2prom.c: 25: I2C_SendByte(0XA0);
  1447  080B  30A0               	movlw	160
  1448  080C  27BE  158A         	fcall	_I2C_SendByte
  1449                           
  1450                           ;e2prom.c: 26: IIC_Wait_ACK();
  1451  080E  27D9  158A         	fcall	_IIC_Wait_ACK
  1452                           
  1453                           ;e2prom.c: 27: I2C_SendByte(addr);
  1454  0810  0854               	movf	AT24C02_Read_Byte@addr,w
  1455  0811  27BE  158A         	fcall	_I2C_SendByte
  1456                           
  1457                           ;e2prom.c: 28: IIC_Wait_ACK();
  1458  0813  27D9  158A         	fcall	_IIC_Wait_ACK
  1459                           
  1460                           ;e2prom.c: 31: IIC_START();
  1461  0815  27F3  158A         	fcall	_IIC_START
  1462                           
  1463                           ;e2prom.c: 32: I2C_SendByte(0XA1);
  1464  0817  30A1               	movlw	161
  1465  0818  27BE  158A         	fcall	_I2C_SendByte
  1466                           
  1467                           ;e2prom.c: 33: IIC_Wait_ACK();
  1468  081A  27D9               	fcall	_IIC_Wait_ACK
  1469                           
  1470                           ;e2prom.c: 34: temp = I2C_ReadByte(1);
  1471  081B  3001               	movlw	1
  1472  081C  118A  24AD  158A   	fcall	_I2C_ReadByte
  1473  081F  0874               	movf	?_I2C_ReadByte,w
  1474  0820  00D5               	movwf	AT24C02_Read_Byte@temp
  1475                           
  1476                           ;e2prom.c: 35: IIC_STOP();
  1477  0821  118A  257E         	fcall	_IIC_STOP
  1478                           
  1479                           ;e2prom.c: 37: return temp;
  1480  0823  0855               	movf	AT24C02_Read_Byte@temp,w
  1481  0824  0008               	return
  1482  0825                     __end_of_AT24C02_Read_Byte:	
  1483  0825                     __ptext1129:	
  1484 ;; =============== function _recive_task ends ============
  1485                           
  1486                           
  1487 ;; *************** function _loadParamsFromEeprom *****************
  1488 ;; Defined at:
  1489 ;;		line 57 in file "F:\\\PAV03fix\PAV03\pav03\src\main.c"
  1490 ;; Parameters:    Size  Location     Type
  1491 ;;		None
  1492 ;; Auto vars:     Size  Location     Type
  1493 ;;  i               1   11[BANK0 ] unsigned char 
  1494 ;; Return value:  Size  Location     Type
  1495 ;;                  2  662[COMMON] int 
  1496 ;; Registers used:
  1497 ;;		wreg, fsr0l, fsr0h, status,2, status,0, pclath, cstack
  1498 ;; Tracked objects:
  1499 ;;		On entry : 60/0
  1500 ;;		On exit  : 60/0
  1501 ;;		Unchanged: FFE9F/0
  1502 ;; Data sizes:     COMMON   BANK0   BANK1
  1503 ;;      Params:         0       0       0
  1504 ;;      Locals:         0       1       0
  1505 ;;      Temps:          0       0       0
  1506 ;;      Totals:         0       1       0
  1507 ;;Total ram usage:        1 bytes
  1508 ;; Hardware stack levels used:    1
  1509 ;; Hardware stack levels required when called:    7
  1510 ;; This function calls:
  1511 ;;		___bmul
  1512 ;;		_AT24C02_Read_Msg
  1513 ;; This function is called by:
  1514 ;;		_main
  1515 ;; This function uses a non-reentrant model
  1516 ;;
  1517  0825                     _loadParamsFromEeprom:	
  1518                           
  1519                           ;main.c: 58: unsigned char i;
  1520                           ;main.c: 60: for(i=0; i<12; i++)
  1521                           
  1522                           ; Regs used in _loadParamsFromEeprom: [wreg-fsr0h+status,2+status,0+pclath+cstack]
  1523  0825  01DB               	clrf	loadParamsFromEeprom@i
  1524  0826                     l16888:	
  1525  0826  300C               	movlw	12
  1526  0827  025B               	subwf	loadParamsFromEeprom@i,w
  1527  0828  1803               	btfsc	3,0
  1528  0829  283B               	goto	l16898
  1529                           
  1530                           ;main.c: 61: {
  1531                           ;main.c: 62: AT24C02_Read_Msg(i*6, control_id[i], 6);
  1532  082A  3006               	movlw	6
  1533  082B  00F3               	movwf	?___bmul
  1534  082C  085B               	movf	loadParamsFromEeprom@i,w
  1535  082D  274F  158A         	fcall	___bmul
  1536  082F  3EA6               	addlw	_control_id& (0+255)
  1537  0830  00D6               	movwf	?_AT24C02_Read_Msg
  1538  0831  3006               	movlw	6
  1539  0832  00D7               	movwf	?_AT24C02_Read_Msg+1
  1540  0833  00F3               	movwf	?___bmul
  1541  0834  085B               	movf	loadParamsFromEeprom@i,w
  1542  0835  274F  158A         	fcall	___bmul
  1543  0837  2793  158A         	fcall	_AT24C02_Read_Msg
  1544  0839  0ADB               	incf	loadParamsFromEeprom@i,f
  1545  083A  2826               	goto	l16888
  1546  083B                     l16898:	
  1547                           
  1548                           ;main.c: 63: }
  1549                           ;main.c: 65: AT24C02_Read_Msg(110, &channel_flag, 1);
  1550  083B  304F               	movlw	_channel_flag& (0+255)
  1551  083C  00D6               	movwf	?_AT24C02_Read_Msg
  1552  083D  306E               	movlw	110
  1553  083E  01D7               	clrf	?_AT24C02_Read_Msg+1
  1554  083F  0AD7               	incf	?_AT24C02_Read_Msg+1,f
  1555  0840  2F93               	ljmp	_AT24C02_Read_Msg
  1556  0841                     __end_of_loadParamsFromEeprom:	
  1557  0841                     __ptext1128:	
  1558 ;; =============== function _main ends ============
  1559                           
  1560                           
  1561 ;; *************** function _recive_task *****************
  1562 ;; Defined at:
  1563 ;;		line 123 in file "F:\\\PAV03fix\PAV03\pav03\src\recive.c"
  1564 ;; Parameters:    Size  Location     Type
  1565 ;;		None
  1566 ;; Auto vars:     Size  Location     Type
  1567 ;;  msg             6   20[BANK0 ] unsigned char [6]
  1568 ;;  i               1   28[BANK0 ] unsigned char 
  1569 ;;  flag            1   27[BANK0 ] unsigned char 
  1570 ;;  match_flag      1   26[BANK0 ] unsigned char 
  1571 ;; Return value:  Size  Location     Type
  1572 ;;		None               void
  1573 ;; Registers used:
  1574 ;;		wreg, fsr0l, fsr0h, status,2, status,0, btemp+1, pclath, cstack
  1575 ;; Tracked objects:
  1576 ;;		On entry : 60/0
  1577 ;;		On exit  : 60/0
  1578 ;;		Unchanged: FFE9F/0
  1579 ;; Data sizes:     COMMON   BANK0   BANK1
  1580 ;;      Params:         0       0       0
  1581 ;;      Locals:         0       9       0
  1582 ;;      Temps:          0       4       0
  1583 ;;      Totals:         0      13       0
  1584 ;;Total ram usage:       13 bytes
  1585 ;; Hardware stack levels used:    1
  1586 ;; Hardware stack levels required when called:    7
  1587 ;; This function calls:
  1588 ;;		_AT24C02_Write_Byte
  1589 ;;		_soft_delay_ms
  1590 ;;		___bmul
  1591 ;;		_AT24C02_Read_Msg
  1592 ;;		_rx_data
  1593 ;;		_AT24C02_Write_Msg
  1594 ;;		_RF_ClearFIFO
  1595 ;;		_RF_ClearStatus
  1596 ;; This function is called by:
  1597 ;;		_main
  1598 ;; This function uses a non-reentrant model
  1599 ;;
  1600  0841                     _recive_task:	
  1601                           
  1602                           ;recive.c: 126: unsigned char match_flag = 0;
  1603                           
  1604                           ; Regs used in _recive_task: [wreg-fsr0h+status,2+status,0+btemp+1+pclath+cstack]
  1605  0841  01EA               	clrf	recive_task@match_flag
  1606                           
  1607                           ;recive.c: 127: unsigned char flag = 0;
  1608  0842  01EB               	clrf	recive_task@flag
  1609                           
  1610                           ;recive.c: 128: unsigned char msg[6];
  1611                           ;recive.c: 130: switch(sys_stute)
  1612  0843  086E               	movf	_sys_stute,w
  1613                           
  1614                           ; Switch size 1, requested type "space"
  1615                           ; Number of cases is 3, Range of values is 1 to 3
  1616                           ; switch strategies available:
  1617                           ; Name         Instructions Cycles
  1618                           ; simple_byte           10     6 (average)
  1619                           ; direct_byte           16    10 (fixed)
  1620                           ; jumptable            263     9 (fixed)
  1621                           ;	Chosen strategy is simple_byte
  1622  0844  3A01               	xorlw	1	; case 1
  1623  0845  1903               	skipnz
  1624  0846  2C58               	goto	l17404
  1625  0847  3A03               	xorlw	3	; case 2
  1626  0848  1903               	skipnz
  1627  0849  28E1               	goto	l9843
  1628  084A  3A01               	xorlw	1	; case 3
  1629  084B  1903               	skipnz
  1630  084C  284E               	goto	l9826
  1631  084D  2F4E               	goto	l10035
  1632  084E                     l9826:	
  1633                           ;recive.c: 131: {
  1634                           ;recive.c: 132: case 3:
  1635                           
  1636                           
  1637                           ;recive.c: 133: {
  1638                           ;recive.c: 134: (TRISC0=0,RC0=1);
  1639  084E  1683               	bsf	3,5	;RP0=1, select bank1
  1640  084F  1007               	bcf	7,0
  1641  0850  1283               	bcf	3,5	;RP0=0, select bank0
  1642  0851  1407               	bsf	7,0
  1643                           
  1644                           ;recive.c: 135: if(key_long_flag == 0x11)
  1645  0852  0879               	movf	_key_long_flag,w
  1646  0853  3A11               	xorlw	17
  1647  0854  1D03               	skipz
  1648  0855  2869               	goto	l16916
  1649                           
  1650                           ;recive.c: 136: {
  1651                           ;recive.c: 137: key_long_flag = 0;
  1652  0856  01F9               	clrf	_key_long_flag
  1653                           
  1654                           ;recive.c: 138: KEY0.key_flag_5s = 0;
  1655  0857  01A2               	clrf	_KEY0+2
  1656                           
  1657                           ;recive.c: 139: for(i = 0; i < 18; i++)
  1658  0858  01EC               	clrf	recive_task@i
  1659  0859                     l16906:	
  1660  0859  3012               	movlw	18
  1661  085A  026C               	subwf	recive_task@i,w
  1662  085B  1803               	btfsc	3,0
  1663  085C  2899               	goto	l16948
  1664                           
  1665                           ;recive.c: 140: {
  1666                           ;recive.c: 141: AT24C02_Write_Byte(i + 0, 0xff);
  1667  085D  30FF               	movlw	255
  1668  085E  00D0               	movwf	?_AT24C02_Write_Byte
  1669  085F  086C               	movf	recive_task@i,w
  1670  0860  27AB  158A         	fcall	_AT24C02_Write_Byte
  1671                           
  1672                           ;recive.c: 142: soft_delay_ms(1);
  1673  0862  01F3               	clrf	?_soft_delay_ms
  1674  0863  0AF3               	incf	?_soft_delay_ms,f
  1675  0864  01F4               	clrf	?_soft_delay_ms+1
  1676  0865  275D  158A         	fcall	_soft_delay_ms
  1677  0867  0AEC               	incf	recive_task@i,f
  1678  0868  2859               	goto	l16906
  1679  0869                     l16916:	
  1680                           
  1681                           ;recive.c: 145: else if(key_long_flag == 0x21)
  1682  0869  0879               	movf	_key_long_flag,w
  1683  086A  3A21               	xorlw	33
  1684  086B  1D03               	skipz
  1685  086C  2881               	goto	l16932
  1686  086D  3012               	movlw	18
  1687                           
  1688                           ;recive.c: 146: {
  1689                           ;recive.c: 147: key_long_flag = 0;
  1690  086E  01F9               	clrf	_key_long_flag
  1691                           
  1692                           ;recive.c: 148: KEY1.key_flag_5s = 0;
  1693  086F  01A5               	clrf	_KEY1+2
  1694                           
  1695                           ;recive.c: 149: for(i = 18; i < 36; i++)
  1696  0870  00EC               	movwf	recive_task@i
  1697  0871                     l16922:	
  1698  0871  3024               	movlw	36
  1699  0872  026C               	subwf	recive_task@i,w
  1700  0873  1803               	btfsc	3,0
  1701  0874  2899               	goto	l16948
  1702                           
  1703                           ;recive.c: 150: {
  1704                           ;recive.c: 151: AT24C02_Write_Byte(i, 0xff);
  1705  0875  30FF               	movlw	255
  1706  0876  00D0               	movwf	?_AT24C02_Write_Byte
  1707  0877  086C               	movf	recive_task@i,w
  1708  0878  27AB  158A         	fcall	_AT24C02_Write_Byte
  1709                           
  1710                           ;recive.c: 152: soft_delay_ms(1);
  1711  087A  01F3               	clrf	?_soft_delay_ms
  1712  087B  0AF3               	incf	?_soft_delay_ms,f
  1713  087C  01F4               	clrf	?_soft_delay_ms+1
  1714  087D  275D  158A         	fcall	_soft_delay_ms
  1715  087F  0AEC               	incf	recive_task@i,f
  1716  0880  2871               	goto	l16922
  1717  0881                     l16932:	
  1718                           
  1719                           ;recive.c: 155: else if(key_long_flag == 0x41)
  1720  0881  0879               	movf	_key_long_flag,w
  1721  0882  3A41               	xorlw	65
  1722  0883  1D03               	skipz
  1723  0884  2899               	goto	l16948
  1724  0885  3024               	movlw	36
  1725                           
  1726                           ;recive.c: 156: {
  1727                           ;recive.c: 157: key_long_flag = 0;
  1728  0886  01F9               	clrf	_key_long_flag
  1729                           
  1730                           ;recive.c: 158: KEY2.key_flag_5s = 0;
  1731  0887  01A8               	clrf	_KEY2+2
  1732                           
  1733                           ;recive.c: 159: for(i = 36; i < 54; i++)
  1734  0888  00EC               	movwf	recive_task@i
  1735  0889                     l16938:	
  1736  0889  3036               	movlw	54
  1737  088A  026C               	subwf	recive_task@i,w
  1738  088B  1803               	btfsc	3,0
  1739  088C  2899               	goto	l16948
  1740                           
  1741                           ;recive.c: 160: {
  1742                           ;recive.c: 161: AT24C02_Write_Byte(i, 0xff);
  1743  088D  30FF               	movlw	255
  1744  088E  00D0               	movwf	?_AT24C02_Write_Byte
  1745  088F  086C               	movf	recive_task@i,w
  1746  0890  27AB  158A         	fcall	_AT24C02_Write_Byte
  1747                           
  1748                           ;recive.c: 162: soft_delay_ms(1);
  1749  0892  01F3               	clrf	?_soft_delay_ms
  1750  0893  0AF3               	incf	?_soft_delay_ms,f
  1751  0894  01F4               	clrf	?_soft_delay_ms+1
  1752  0895  275D  158A         	fcall	_soft_delay_ms
  1753  0897  0AEC               	incf	recive_task@i,f
  1754  0898  2889               	goto	l16938
  1755  0899                     l16948:	
  1756                           
  1757                           ;recive.c: 163: }
  1758                           ;recive.c: 164: }
  1759                           ;recive.c: 166: for(i = 54; i < 72; i++)
  1760  0899  3036               	movlw	54
  1761  089A  00EC               	movwf	recive_task@i
  1762  089B                     L1:	
  1763  089B  3048               	movlw	72
  1764  089C  026C               	subwf	recive_task@i,w
  1765  089D  1803               	btfsc	3,0
  1766  089E  28AA               	goto	l16958
  1767                           
  1768                           ;recive.c: 167: {
  1769                           ;recive.c: 168: AT24C02_Write_Byte(i, 0x00);
  1770  089F  01D0               	clrf	?_AT24C02_Write_Byte
  1771  08A0  086C               	movf	recive_task@i,w
  1772  08A1  27AB  158A         	fcall	_AT24C02_Write_Byte
  1773                           
  1774                           ;recive.c: 169: soft_delay_ms(1);
  1775  08A3  01F3               	clrf	?_soft_delay_ms
  1776  08A4  0AF3               	incf	?_soft_delay_ms,f
  1777  08A5  01F4               	clrf	?_soft_delay_ms+1
  1778  08A6  275D  158A         	fcall	_soft_delay_ms
  1779  08A8  0AEC               	incf	recive_task@i,f
  1780  08A9  289B               	goto	L1
  1781  08AA                     l16958:	
  1782                           
  1783                           ;recive.c: 170: }
  1784                           ;recive.c: 172: for(i = 0; i < 12; i++)
  1785  08AA  01EC               	clrf	recive_task@i
  1786  08AB                     l16960:	
  1787  08AB  300C               	movlw	12
  1788  08AC  026C               	subwf	recive_task@i,w
  1789  08AD  1803               	btfsc	3,0
  1790  08AE  28C0               	goto	l9841
  1791                           
  1792                           ;recive.c: 173: {
  1793                           ;recive.c: 174: AT24C02_Read_Msg(i * 6, control_id[i], 6);
  1794  08AF  3006               	movlw	6
  1795  08B0  00F3               	movwf	?___bmul
  1796  08B1  086C               	movf	recive_task@i,w
  1797  08B2  274F  158A         	fcall	___bmul
  1798  08B4  3EA6               	addlw	_control_id& (0+255)
  1799  08B5  00D6               	movwf	?_AT24C02_Read_Msg
  1800  08B6  3006               	movlw	6
  1801  08B7  00D7               	movwf	?_AT24C02_Read_Msg+1
  1802  08B8  00F3               	movwf	?___bmul
  1803  08B9  086C               	movf	recive_task@i,w
  1804  08BA  274F  158A         	fcall	___bmul
  1805  08BC  2793  158A         	fcall	_AT24C02_Read_Msg
  1806  08BE  0AEC               	incf	recive_task@i,f
  1807  08BF  28AB               	goto	l16960
  1808  08C0                     l9841:	
  1809                           
  1810                           ;recive.c: 175: }
  1811                           ;recive.c: 176: (TRISC0=0,RC0=0);
  1812  08C0  1683               	bsf	3,5	;RP0=1, select bank1
  1813  08C1  1007               	bcf	7,0
  1814  08C2  1283               	bcf	3,5	;RP0=0, select bank0
  1815  08C3  3064               	movlw	100
  1816  08C4  1007               	bcf	7,0
  1817                           
  1818                           ;recive.c: 177: soft_delay_ms(100);
  1819  08C5  00F3               	movwf	?_soft_delay_ms
  1820  08C6  01F4               	clrf	?_soft_delay_ms+1
  1821  08C7  275D  158A         	fcall	_soft_delay_ms
  1822                           
  1823                           ;recive.c: 178: (TRISC0=0,RC0=1);
  1824  08C9  1683               	bsf	3,5	;RP0=1, select bank1
  1825  08CA  1007               	bcf	7,0
  1826  08CB  1283               	bcf	3,5	;RP0=0, select bank0
  1827  08CC  3064               	movlw	100
  1828  08CD  1407               	bsf	7,0
  1829                           
  1830                           ;recive.c: 179: soft_delay_ms(100);
  1831  08CE  00F3               	movwf	?_soft_delay_ms
  1832  08CF  01F4               	clrf	?_soft_delay_ms+1
  1833  08D0  275D  158A         	fcall	_soft_delay_ms
  1834                           
  1835                           ;recive.c: 180: (TRISC0=0,RC0=0);
  1836  08D2  1683               	bsf	3,5	;RP0=1, select bank1
  1837  08D3  1007               	bcf	7,0
  1838  08D4  1283               	bcf	3,5	;RP0=0, select bank0
  1839  08D5  3064               	movlw	100
  1840  08D6  1007               	bcf	7,0
  1841                           
  1842                           ;recive.c: 181: soft_delay_ms(100);
  1843  08D7  00F3               	movwf	?_soft_delay_ms
  1844  08D8  01F4               	clrf	?_soft_delay_ms+1
  1845  08D9  275D               	fcall	_soft_delay_ms
  1846                           
  1847                           ;recive.c: 182: (TRISC0=0,RC0=1);
  1848  08DA  1683               	bsf	3,5	;RP0=1, select bank1
  1849  08DB  1007               	bcf	7,0
  1850  08DC  1283               	bcf	3,5	;RP0=0, select bank0
  1851  08DD  1407               	bsf	7,0
  1852                           
  1853                           ;recive.c: 183: sys_stute=1;
  1854  08DE  01EE               	clrf	_sys_stute
  1855  08DF  0AEE               	incf	_sys_stute,f
  1856                           
  1857                           ;recive.c: 184: }break;
  1858  08E0  0008               	return
  1859  08E1                     l9843:	
  1860                           ;recive.c: 186: case 2:
  1861                           
  1862                           
  1863                           ;recive.c: 187: {
  1864                           ;recive.c: 188: match_channel_flag |= 0x01;
  1865  08E1  146D               	bsf	_match_channel_flag,0
  1866                           
  1867                           ;recive.c: 189: if(key_long_flag == 0x11)
  1868  08E2  0879               	movf	_key_long_flag,w
  1869  08E3  3A11               	xorlw	17
  1870  08E4  1D03               	skipz
  1871  08E5  28E9               	goto	l16992
  1872  08E6  3010               	movlw	16
  1873                           
  1874                           ;recive.c: 190: {
  1875                           ;recive.c: 191: KEY0.key_flag_3s = 0;
  1876  08E7  01A1               	clrf	_KEY0+1
  1877  08E8  28F6               	goto	L6
  1878  08E9                     l16992:	
  1879                           ;recive.c: 195: }
  1880                           
  1881                           ;recive.c: 194: match_channel_flag = 0x10;
  1882                           
  1883                           ;recive.c: 193: key_long_flag = 0;
  1884                           
  1885                           ;recive.c: 192: flag_5s_add = 0;
  1886                           
  1887                           
  1888                           ;recive.c: 196: else if(key_long_flag == 0x21)
  1889  08E9  0879               	movf	_key_long_flag,w
  1890  08EA  3A21               	xorlw	33
  1891  08EB  1D03               	skipz
  1892  08EC  28F0               	goto	l16998
  1893  08ED  3020               	movlw	32
  1894                           
  1895                           ;recive.c: 197: {
  1896                           ;recive.c: 198: KEY1.key_flag_3s = 0;
  1897  08EE  01A4               	clrf	_KEY1+1
  1898  08EF  28F6               	goto	L6
  1899  08F0                     l16998:	
  1900                           ;recive.c: 202: }
  1901                           
  1902                           ;recive.c: 201: match_channel_flag = 0x20;
  1903                           
  1904                           ;recive.c: 200: key_long_flag = 0;
  1905                           
  1906                           ;recive.c: 199: flag_5s_add = 0;
  1907                           
  1908                           
  1909                           ;recive.c: 203: else if(key_long_flag == 0x41)
  1910  08F0  0879               	movf	_key_long_flag,w
  1911  08F1  3A41               	xorlw	65
  1912  08F2  1D03               	skipz
  1913  08F3  28FA               	goto	l17004
  1914  08F4  3040               	movlw	64
  1915                           
  1916                           ;recive.c: 204: {
  1917                           ;recive.c: 205: KEY2.key_flag_3s = 0;
  1918  08F5  01A7               	clrf	_KEY2+1
  1919  08F6                     L6:	
  1920                           
  1921                           ;recive.c: 206: flag_5s_add = 0;
  1922  08F6  01B2               	clrf	_flag_5s_add
  1923  08F7  01B3               	clrf	_flag_5s_add+1
  1924                           
  1925                           ;recive.c: 207: key_long_flag = 0;
  1926  08F8  01F9               	clrf	_key_long_flag
  1927                           
  1928                           ;recive.c: 208: match_channel_flag = 0x40;
  1929  08F9  00ED               	movwf	_match_channel_flag
  1930  08FA                     l17004:	
  1931                           
  1932                           ;recive.c: 209: }
  1933                           ;recive.c: 218: if(rx_data())
  1934  08FA  118A  201D  158A   	fcall	_rx_data
  1935  08FD  3A00               	xorlw	0
  1936  08FE  1903               	skipnz
  1937  08FF  2C4E               	goto	l17398
  1938                           
  1939                           ;recive.c: 219: {
  1940                           ;recive.c: 220: msg[0] = rf_buf[3];
  1941  0900  0840               	movf	_rf_buf+3,w
  1942  0901  00E4               	movwf	recive_task@msg
  1943                           
  1944                           ;recive.c: 221: msg[1] = rf_buf[4];
  1945  0902  0841               	movf	_rf_buf+4,w
  1946  0903  00E5               	movwf	recive_task@msg+1
  1947                           
  1948                           ;recive.c: 222: msg[2] = rf_buf[5];
  1949  0904  0842               	movf	_rf_buf+5,w
  1950  0905  00E6               	movwf	recive_task@msg+2
  1951                           
  1952                           ;recive.c: 223: msg[3] = rf_buf[6];
  1953  0906  0843               	movf	_rf_buf+6,w
  1954  0907  00E7               	movwf	recive_task@msg+3
  1955                           
  1956                           ;recive.c: 224: msg[4] = rf_buf[10];
  1957  0908  0847               	movf	_rf_buf+10,w
  1958  0909  00E8               	movwf	recive_task@msg+4
  1959                           
  1960                           ;recive.c: 225: msg[5] = rf_buf[2];
  1961  090A  083F               	movf	_rf_buf+2,w
  1962  090B  00E9               	movwf	recive_task@msg+5
  1963                           
  1964                           ;recive.c: 228: if (rf_buf[8] == (0x20))
  1965  090C  0845               	movf	_rf_buf+8,w
  1966  090D  3A20               	xorlw	32
  1967  090E  1D03               	skipz
  1968  090F  2A3A               	goto	l17136
  1969                           
  1970                           ;recive.c: 229: {
  1971                           ;recive.c: 230: for(i = 0; i < 3; i++)
  1972  0910  01EC               	clrf	recive_task@i
  1973                           
  1974                           ;recive.c: 239: break;
  1975  0911  2914               	goto	l17010
  1976  0912                     l17026:	
  1977                           
  1978                           ;recive.c: 241: else
  1979                           ;recive.c: 242: {
  1980                           ;recive.c: 243: match_flag = 0;
  1981  0912  01EA               	clrf	recive_task@match_flag
  1982  0913  0AEC               	incf	recive_task@i,f
  1983  0914                     l17010:	
  1984  0914  3003               	movlw	3
  1985  0915  026C               	subwf	recive_task@i,w
  1986  0916  1803               	btfsc	3,0
  1987  0917  2947               	goto	l17032
  1988                           
  1989                           ;recive.c: 231: {
  1990                           ;recive.c: 232: if((msg[0] == control_id[i + 9][0])
  1991                           ;recive.c: 233: &&(msg[1] == control_id[i + 9][1])
  1992                           ;recive.c: 234: &&(msg[2] == control_id[i + 9][2])
  1993                           ;recive.c: 235: &&(msg[3] == control_id[i + 9][3])
  1994                           ;recive.c: 236: )
  1995  0918  3006               	movlw	6
  1996  0919  00F3               	movwf	?___bmul
  1997  091A  086C               	movf	recive_task@i,w
  1998  091B  274F  158A         	fcall	___bmul
  1999  091D  3EDC               	addlw	(_control_id+54)& (0+255)
  2000  091E  0084               	movwf	4
  2001  091F  1383               	bcf	3,7	;select IRP bank1
  2002  0920  0800               	movf	0,w
  2003  0921  0664               	xorwf	recive_task@msg,w
  2004  0922  1D03               	skipz
  2005  0923  2912               	goto	l17026
  2006  0924  3006               	movlw	6
  2007  0925  00F3               	movwf	?___bmul
  2008  0926  086C               	movf	recive_task@i,w
  2009  0927  274F  158A         	fcall	___bmul
  2010  0929  3EDD               	addlw	(_control_id+55)& (0+255)
  2011  092A  0084               	movwf	4
  2012  092B  0865               	movf	recive_task@msg+1,w
  2013  092C  0600               	xorwf	0,w
  2014  092D  1D03               	skipz
  2015  092E  2912               	goto	l17026
  2016  092F  3006               	movlw	6
  2017  0930  00F3               	movwf	?___bmul
  2018  0931  086C               	movf	recive_task@i,w
  2019  0932  274F  158A         	fcall	___bmul
  2020  0934  3EDE               	addlw	(_control_id+56)& (0+255)
  2021  0935  0084               	movwf	4
  2022  0936  0866               	movf	recive_task@msg+2,w
  2023  0937  0600               	xorwf	0,w
  2024  0938  1D03               	skipz
  2025  0939  2912               	goto	l17026
  2026  093A  3006               	movlw	6
  2027  093B  00F3               	movwf	?___bmul
  2028  093C  086C               	movf	recive_task@i,w
  2029  093D  274F  158A         	fcall	___bmul
  2030  093F  3EDF               	addlw	(_control_id+57)& (0+255)
  2031  0940  0084               	movwf	4
  2032  0941  0867               	movf	recive_task@msg+3,w
  2033  0942  0600               	xorwf	0,w
  2034  0943  1D03               	skipz
  2035  0944  2912               	goto	l17026
  2036                           
  2037                           ;recive.c: 237: {
  2038                           ;recive.c: 238: match_flag = 1;
  2039  0945  01EA               	clrf	recive_task@match_flag
  2040  0946  0AEA               	incf	recive_task@match_flag,f
  2041  0947                     l17032:	
  2042                           
  2043                           ;recive.c: 244: }
  2044                           ;recive.c: 245: }
  2045                           ;recive.c: 247: if(match_flag == 0)
  2046  0947  08EA               	movf	recive_task@match_flag,f
  2047  0948  1D03               	skipz
  2048  0949  29A5               	goto	l17066
  2049                           
  2050                           ;recive.c: 248: {
  2051                           ;recive.c: 249: flag = (channel_flag >> 6) & 0x03;
  2052  094A  084F               	movf	_channel_flag,w
  2053  094B  00E0               	movwf	??_recive_task
  2054  094C  3006               	movlw	6
  2055  094D                     u5755:	
  2056  094D  1003               	clrc
  2057  094E  0CE0               	rrf	??_recive_task,f
  2058  094F  3EFF               	addlw	-1
  2059  0950  1D03               	skipz
  2060  0951  294D               	goto	u5755
  2061  0952  0860               	movf	??_recive_task,w
  2062  0953  00EB               	movwf	recive_task@flag
  2063  0954  3003               	movlw	3
  2064  0955  05EB               	andwf	recive_task@flag,f
  2065                           
  2066                           ;recive.c: 250: if(flag >= 3)
  2067  0956  026B               	subwf	recive_task@flag,w
  2068  0957  1803               	btfsc	3,0
  2069                           
  2070                           ;recive.c: 251: {
  2071                           ;recive.c: 252: flag = 0;
  2072  0958  01EB               	clrf	recive_task@flag
  2073                           
  2074                           ;recive.c: 253: }
  2075                           ;recive.c: 254: AT24C02_Write_Msg(9 * 6 + flag * 6, msg, 4);
  2076  0959  3064               	movlw	recive_task@msg& (0+255)
  2077  095A  00D4               	movwf	?_AT24C02_Write_Msg
  2078  095B  3004               	movlw	4
  2079  095C  00D5               	movwf	?_AT24C02_Write_Msg+1
  2080  095D  3006               	movlw	6
  2081  095E  00F3               	movwf	?___bmul
  2082  095F  086B               	movf	recive_task@flag,w
  2083  0960  274F  158A         	fcall	___bmul
  2084  0962  3E36               	addlw	54
  2085  0963  277A  158A         	fcall	_AT24C02_Write_Msg
  2086                           
  2087                           ;recive.c: 255: AT24C02_Write_Msg(9 * 6 + flag * 6 + 5, msg + 5, 1);
  2088  0965  3069               	movlw	(recive_task@msg+5)& (0+255)
  2089  0966  00D4               	movwf	?_AT24C02_Write_Msg
  2090  0967  3006               	movlw	6
  2091  0968  01D5               	clrf	?_AT24C02_Write_Msg+1
  2092  0969  0AD5               	incf	?_AT24C02_Write_Msg+1,f
  2093  096A  00F3               	movwf	?___bmul
  2094  096B  086B               	movf	recive_task@flag,w
  2095  096C  274F  158A         	fcall	___bmul
  2096  096E  3E3B               	addlw	59
  2097  096F  277A  158A         	fcall	_AT24C02_Write_Msg
  2098                           
  2099                           ;recive.c: 256: for(i = 0; i < 4; i++)
  2100  0971  01EC               	clrf	recive_task@i
  2101  0972                     l17044:	
  2102  0972  3004               	movlw	4
  2103  0973  026C               	subwf	recive_task@i,w
  2104  0974  1803               	btfsc	3,0
  2105  0975  298C               	goto	l17054
  2106                           
  2107                           ;recive.c: 257: {
  2108                           ;recive.c: 258: control_id[flag + 9][i] = msg[i];
  2109  0976  086C               	movf	recive_task@i,w
  2110  0977  3E64               	addlw	recive_task@msg& (0+255)
  2111  0978  0084               	movwf	4
  2112  0979  1383               	bcf	3,7	;select IRP bank0
  2113  097A  0800               	movf	0,w
  2114  097B  00E0               	movwf	??_recive_task
  2115  097C  3006               	movlw	6
  2116  097D  00F3               	movwf	?___bmul
  2117  097E  086B               	movf	recive_task@flag,w
  2118  097F  274F  158A         	fcall	___bmul
  2119  0981  00E1               	movwf	??_recive_task+1
  2120  0982  3EDC               	addlw	(_control_id+54)& (0+255)
  2121  0983  00E2               	movwf	??_recive_task+2
  2122  0984  086C               	movf	recive_task@i,w
  2123  0985  0762               	addwf	??_recive_task+2,w
  2124  0986  00E3               	movwf	??_recive_task+3
  2125  0987  0084               	movwf	4
  2126  0988  0860               	movf	??_recive_task,w
  2127  0989  0080               	movwf	0
  2128  098A  0AEC               	incf	recive_task@i,f
  2129  098B  2972               	goto	l17044
  2130  098C                     l17054:	
  2131                           
  2132                           ;recive.c: 259: }
  2133                           ;recive.c: 261: control_id[flag + 9][5] = msg[5];
  2134  098C  3006               	movlw	6
  2135  098D  00F3               	movwf	?___bmul
  2136  098E  086B               	movf	recive_task@flag,w
  2137  098F  274F  158A         	fcall	___bmul
  2138  0991  3EE1               	addlw	(_control_id+59)& (0+255)
  2139  0992  0084               	movwf	4
  2140  0993  0869               	movf	recive_task@msg+5,w
  2141  0994  1383               	bcf	3,7	;select IRP bank1
  2142  0995  0080               	movwf	0
  2143  0996  3003               	movlw	3
  2144                           
  2145                           ;recive.c: 262: flag ++;
  2146  0997  0AEB               	incf	recive_task@flag,f
  2147                           
  2148                           ;recive.c: 263: if(flag >= 3)
  2149  0998  026B               	subwf	recive_task@flag,w
  2150  0999  1803               	btfsc	3,0
  2151                           
  2152                           ;recive.c: 264: {
  2153                           ;recive.c: 265: flag = 0;
  2154  099A  01EB               	clrf	recive_task@flag
  2155                           
  2156                           ;recive.c: 266: }
  2157                           ;recive.c: 267: channel_flag &= (~(0x03 << 6));
  2158  099B  303F               	movlw	63
  2159  099C  05CF               	andwf	_channel_flag,f
  2160                           
  2161                           ;recive.c: 268: channel_flag |= (flag << 6);
  2162  099D  086B               	movf	recive_task@flag,w
  2163  099E  00E0               	movwf	??_recive_task
  2164  099F  0CE0               	rrf	??_recive_task,f
  2165  09A0  0CE0               	rrf	??_recive_task,f
  2166  09A1  0C60               	rrf	??_recive_task,w
  2167  09A2  39C0               	andlw	192
  2168  09A3  04CF               	iorwf	_channel_flag,f
  2169                           
  2170                           ;recive.c: 269: }
  2171  09A4  29BD               	goto	l9860
  2172  09A5                     l17066:	
  2173                           
  2174                           ;recive.c: 270: else
  2175                           ;recive.c: 271: {
  2176                           ;recive.c: 272: flag = i;
  2177  09A5  086C               	movf	recive_task@i,w
  2178  09A6  00EB               	movwf	recive_task@flag
  2179                           
  2180                           ;recive.c: 273: AT24C02_Write_Msg(9 * 6 + flag * 6 + 5, msg + 5, 1);
  2181  09A7  3069               	movlw	(recive_task@msg+5)& (0+255)
  2182  09A8  00D4               	movwf	?_AT24C02_Write_Msg
  2183  09A9  3006               	movlw	6
  2184  09AA  01D5               	clrf	?_AT24C02_Write_Msg+1
  2185  09AB  0AD5               	incf	?_AT24C02_Write_Msg+1,f
  2186  09AC  00F3               	movwf	?___bmul
  2187  09AD  086B               	movf	recive_task@flag,w
  2188  09AE  274F  158A         	fcall	___bmul
  2189  09B0  3E3B               	addlw	59
  2190  09B1  277A  158A         	fcall	_AT24C02_Write_Msg
  2191                           
  2192                           ;recive.c: 274: control_id[flag + 9][5] = msg[5];
  2193  09B3  3006               	movlw	6
  2194  09B4  00F3               	movwf	?___bmul
  2195  09B5  086B               	movf	recive_task@flag,w
  2196  09B6  274F  158A         	fcall	___bmul
  2197  09B8  3EE1               	addlw	(_control_id+59)& (0+255)
  2198  09B9  0084               	movwf	4
  2199  09BA  0869               	movf	recive_task@msg+5,w
  2200  09BB  1383               	bcf	3,7	;select IRP bank1
  2201  09BC  0080               	movwf	0
  2202  09BD                     l9860:	
  2203                           
  2204                           ;recive.c: 275: }
  2205                           ;recive.c: 279: for(i = 9; i < 12; i++)
  2206  09BD  3009               	movlw	9
  2207  09BE  00EC               	movwf	recive_task@i
  2208  09BF                     L3:	
  2209  09BF  300C               	movlw	12
  2210  09C0  026C               	subwf	recive_task@i,w
  2211  09C1  1803               	btfsc	3,0
  2212  09C2  29FE               	goto	l17104
  2213                           
  2214                           ;recive.c: 280: {
  2215                           ;recive.c: 281: if ((control_id[i][4] & (0x01 << rf_buf[9])) != 0)
  2216  09C3  3006               	movlw	6
  2217  09C4  00F3               	movwf	?___bmul
  2218  09C5  086C               	movf	recive_task@i,w
  2219  09C6  274F  158A         	fcall	___bmul
  2220  09C8  3EAA               	addlw	(_control_id+4)& (0+255)
  2221  09C9  0084               	movwf	4
  2222  09CA  3001               	movlw	1
  2223  09CB  00E0               	movwf	??_recive_task
  2224  09CC  0A46               	incf	_rf_buf+9,w
  2225  09CD  29D0               	goto	u5804
  2226  09CE                     u5805:	
  2227  09CE  1003               	clrc
  2228  09CF  0DE0               	rlf	??_recive_task,f
  2229  09D0                     u5804:	
  2230  09D0  3EFF               	addlw	-1
  2231  09D1  1D03               	skipz
  2232  09D2  29CE               	goto	u5805
  2233  09D3  0860               	movf	??_recive_task,w
  2234  09D4  0500               	andwf	0,w
  2235  09D5  1903               	btfsc	3,2
  2236  09D6  29EC               	goto	l17088
  2237                           
  2238                           ;recive.c: 282: {
  2239                           ;recive.c: 283: if (i == 9)
  2240  09D7  086C               	movf	recive_task@i,w
  2241  09D8  3A09               	xorlw	9
  2242  09D9  1D03               	skipz
  2243  09DA  29DE               	goto	l17080
  2244                           
  2245                           ;recive.c: 284: {
  2246                           ;recive.c: 285: KEY0.channel_status = 1;
  2247  09DB  01A0               	clrf	_KEY0
  2248  09DC  0AA0               	incf	_KEY0,f
  2249                           
  2250                           ;recive.c: 286: }
  2251  09DD  29FC               	goto	l17100
  2252  09DE                     l17080:	
  2253                           
  2254                           ;recive.c: 287: else if (i == 10)
  2255  09DE  086C               	movf	recive_task@i,w
  2256  09DF  3A0A               	xorlw	10
  2257  09E0  1D03               	skipz
  2258  09E1  29E5               	goto	l17084
  2259                           
  2260                           ;recive.c: 288: {
  2261                           ;recive.c: 289: KEY1.channel_status = 1;
  2262  09E2  01A3               	clrf	_KEY1
  2263  09E3  0AA3               	incf	_KEY1,f
  2264                           
  2265                           ;recive.c: 290: }
  2266  09E4  29FC               	goto	l17100
  2267  09E5                     l17084:	
  2268                           
  2269                           ;recive.c: 291: else if (i == 11)
  2270  09E5  086C               	movf	recive_task@i,w
  2271  09E6  3A0B               	xorlw	11
  2272  09E7  1D03               	skipz
  2273  09E8  29FC               	goto	l17100
  2274                           
  2275                           ;recive.c: 292: {
  2276                           ;recive.c: 293: KEY2.channel_status = 1;
  2277  09E9  01A6               	clrf	_KEY2
  2278  09EA  0AA6               	incf	_KEY2,f
  2279  09EB  29FC               	goto	l17100
  2280  09EC                     l17088:	
  2281                           ;recive.c: 294: }
  2282                           ;recive.c: 295: }
  2283                           
  2284                           
  2285                           ;recive.c: 296: else
  2286                           ;recive.c: 297: {
  2287                           ;recive.c: 298: if (i == 9)
  2288  09EC  086C               	movf	recive_task@i,w
  2289  09ED  3A09               	xorlw	9
  2290  09EE  1D03               	skipz
  2291  09EF  29F2               	goto	l17092
  2292                           
  2293                           ;recive.c: 299: {
  2294                           ;recive.c: 300: KEY0.channel_status = 0;
  2295  09F0  01A0               	clrf	_KEY0
  2296                           
  2297                           ;recive.c: 301: }
  2298  09F1  29FC               	goto	l17100
  2299  09F2                     l17092:	
  2300                           
  2301                           ;recive.c: 302: else if (i == 10)
  2302  09F2  086C               	movf	recive_task@i,w
  2303  09F3  3A0A               	xorlw	10
  2304  09F4  1D03               	skipz
  2305  09F5  29F8               	goto	l17096
  2306                           
  2307                           ;recive.c: 303: {
  2308                           ;recive.c: 304: KEY1.channel_status = 0;
  2309  09F6  01A3               	clrf	_KEY1
  2310                           
  2311                           ;recive.c: 305: }
  2312  09F7  29FC               	goto	l17100
  2313  09F8                     l17096:	
  2314                           
  2315                           ;recive.c: 306: else if (i == 11)
  2316  09F8  086C               	movf	recive_task@i,w
  2317  09F9  3A0B               	xorlw	11
  2318  09FA  1903               	btfsc	3,2
  2319                           
  2320                           ;recive.c: 307: {
  2321                           ;recive.c: 308: KEY2.channel_status = 0;
  2322  09FB  01A6               	clrf	_KEY2
  2323  09FC                     l17100:	
  2324  09FC  0AEC               	incf	recive_task@i,f
  2325  09FD  29BF               	goto	L3
  2326  09FE                     l17104:	
  2327  09FE  304F               	movlw	_channel_flag& (0+255)
  2328                           
  2329                           ;recive.c: 309: }
  2330                           ;recive.c: 310: }
  2331                           ;recive.c: 311: }
  2332                           ;recive.c: 315: key_long_flag = 0;
  2333  09FF  01F9               	clrf	_key_long_flag
  2334                           
  2335                           ;recive.c: 317: AT24C02_Write_Msg(110, &channel_flag,1);
  2336  0A00  00D4               	movwf	?_AT24C02_Write_Msg
  2337  0A01  306E               	movlw	110
  2338  0A02  01D5               	clrf	?_AT24C02_Write_Msg+1
  2339  0A03  0AD5               	incf	?_AT24C02_Write_Msg+1,f
  2340  0A04  277A  158A         	fcall	_AT24C02_Write_Msg
  2341                           
  2342                           ;recive.c: 318: AT24C02_Write_Msg(110, &channel_flag,1);
  2343  0A06  304F               	movlw	_channel_flag& (0+255)
  2344  0A07  00D4               	movwf	?_AT24C02_Write_Msg
  2345  0A08  306E               	movlw	110
  2346  0A09  01D5               	clrf	?_AT24C02_Write_Msg+1
  2347  0A0A  0AD5               	incf	?_AT24C02_Write_Msg+1,f
  2348  0A0B  277A  158A         	fcall	_AT24C02_Write_Msg
  2349                           
  2350                           ;recive.c: 320: for(i = 0; i < 12; i++)
  2351  0A0D  01EC               	clrf	recive_task@i
  2352  0A0E                     l17110:	
  2353  0A0E  300C               	movlw	12
  2354  0A0F  026C               	subwf	recive_task@i,w
  2355  0A10  1803               	btfsc	3,0
  2356  0A11  2A23               	goto	l17120
  2357                           
  2358                           ;recive.c: 321: {
  2359                           ;recive.c: 322: AT24C02_Read_Msg(i * 6, control_id[i], 6);
  2360  0A12  3006               	movlw	6
  2361  0A13  00F3               	movwf	?___bmul
  2362  0A14  086C               	movf	recive_task@i,w
  2363  0A15  274F  158A         	fcall	___bmul
  2364  0A17  3EA6               	addlw	_control_id& (0+255)
  2365  0A18  00D6               	movwf	?_AT24C02_Read_Msg
  2366  0A19  3006               	movlw	6
  2367  0A1A  00D7               	movwf	?_AT24C02_Read_Msg+1
  2368  0A1B  00F3               	movwf	?___bmul
  2369  0A1C  086C               	movf	recive_task@i,w
  2370  0A1D  274F  158A         	fcall	___bmul
  2371  0A1F  2793  158A         	fcall	_AT24C02_Read_Msg
  2372  0A21  0AEC               	incf	recive_task@i,f
  2373  0A22  2A0E               	goto	l17110
  2374  0A23                     l17120:	
  2375                           
  2376                           ;recive.c: 323: }
  2377                           ;recive.c: 324: AT24C02_Read_Msg(110, &channel_flag, 1);
  2378  0A23  304F               	movlw	_channel_flag& (0+255)
  2379  0A24  00D6               	movwf	?_AT24C02_Read_Msg
  2380  0A25  306E               	movlw	110
  2381  0A26  01D7               	clrf	?_AT24C02_Read_Msg+1
  2382  0A27  0AD7               	incf	?_AT24C02_Read_Msg+1,f
  2383  0A28  2793  158A         	fcall	_AT24C02_Read_Msg
  2384                           
  2385                           ;recive.c: 326: sys_stute = 1;
  2386  0A2A  01EE               	clrf	_sys_stute
  2387  0A2B  0AEE               	incf	_sys_stute,f
  2388                           
  2389                           ;recive.c: 328: (TRISC0=0,RC0=0);
  2390  0A2C  1683               	bsf	3,5	;RP0=1, select bank1
  2391  0A2D  1007               	bcf	7,0
  2392  0A2E  1283               	bcf	3,5	;RP0=0, select bank0
  2393  0A2F  3064               	movlw	100
  2394  0A30  1007               	bcf	7,0
  2395                           
  2396                           ;recive.c: 329: soft_delay_ms(100);
  2397  0A31  00F3               	movwf	?_soft_delay_ms
  2398  0A32  01F4               	clrf	?_soft_delay_ms+1
  2399  0A33  275D               	fcall	_soft_delay_ms
  2400                           
  2401                           ;recive.c: 330: (TRISC0=0,RC0=1);
  2402  0A34  1683               	bsf	3,5	;RP0=1, select bank1
  2403  0A35  1007               	bcf	7,0
  2404  0A36  1283               	bcf	3,5	;RP0=0, select bank0
  2405  0A37  1407               	bsf	7,0
  2406  0A38                     l17134:	
  2407                           
  2408                           ;recive.c: 331: match_channel_flag = 0;
  2409  0A38  01ED               	clrf	_match_channel_flag
  2410                           
  2411                           ;recive.c: 332: }
  2412  0A39  0008               	return
  2413  0A3A                     l17136:	
  2414                           
  2415                           ;recive.c: 333: else if (rf_buf[8] == (0x10) && msg[4] != 0xff)
  2416  0A3A  0845               	movf	_rf_buf+8,w
  2417  0A3B  3A10               	xorlw	16
  2418  0A3C  1D03               	skipz
  2419  0A3D  0008               	return
  2420  0A3E  0868               	movf	recive_task@msg+4,w
  2421  0A3F  3AFF               	xorlw	255
  2422  0A40  1903               	skipnz
  2423  0A41  0008               	return
  2424                           
  2425                           ;recive.c: 334: {
  2426                           ;recive.c: 335: if(match_channel_flag & 0x10)
  2427  0A42  1E6D               	btfss	_match_channel_flag,4
  2428  0A43  2ADE               	goto	l9879
  2429                           
  2430                           ;recive.c: 336: {
  2431                           ;recive.c: 337: for(i = 0; i < 3; i++)
  2432  0A44  01EC               	clrf	recive_task@i
  2433                           
  2434                           ;recive.c: 347: break;
  2435  0A45  2A48               	goto	l17144
  2436  0A46                     l17162:	
  2437                           
  2438                           ;recive.c: 349: else
  2439                           ;recive.c: 350: {
  2440                           ;recive.c: 351: match_flag = 0;
  2441  0A46  01EA               	clrf	recive_task@match_flag
  2442  0A47  0AEC               	incf	recive_task@i,f
  2443  0A48                     l17144:	
  2444  0A48  3003               	movlw	3
  2445  0A49  026C               	subwf	recive_task@i,w
  2446  0A4A  1803               	btfsc	3,0
  2447  0A4B  2A86               	goto	l17168
  2448                           
  2449                           ;recive.c: 338: {
  2450                           ;recive.c: 339: if((msg[0] == control_id[i][0])
  2451                           ;recive.c: 340: &&(msg[1] == control_id[i][1])
  2452                           ;recive.c: 341: &&(msg[2] == control_id[i][2])
  2453                           ;recive.c: 342: &&(msg[3] == control_id[i][3])
  2454                           ;recive.c: 343: &&(msg[4] == control_id[i][4])
  2455                           ;recive.c: 344: )
  2456  0A4C  3006               	movlw	6
  2457  0A4D  00F3               	movwf	?___bmul
  2458  0A4E  086C               	movf	recive_task@i,w
  2459  0A4F  274F  158A         	fcall	___bmul
  2460  0A51  3EA6               	addlw	_control_id& (0+255)
  2461  0A52  0084               	movwf	4
  2462  0A53  1383               	bcf	3,7	;select IRP bank1
  2463  0A54  0800               	movf	0,w
  2464  0A55  0664               	xorwf	recive_task@msg,w
  2465  0A56  1D03               	skipz
  2466  0A57  2A46               	goto	l17162
  2467  0A58  3006               	movlw	6
  2468  0A59  00F3               	movwf	?___bmul
  2469  0A5A  086C               	movf	recive_task@i,w
  2470  0A5B  274F  158A         	fcall	___bmul
  2471  0A5D  3EA7               	addlw	(_control_id+1)& (0+255)
  2472  0A5E  0084               	movwf	4
  2473  0A5F  0865               	movf	recive_task@msg+1,w
  2474  0A60  0600               	xorwf	0,w
  2475  0A61  1D03               	skipz
  2476  0A62  2A46               	goto	l17162
  2477  0A63  3006               	movlw	6
  2478  0A64  00F3               	movwf	?___bmul
  2479  0A65  086C               	movf	recive_task@i,w
  2480  0A66  274F  158A         	fcall	___bmul
  2481  0A68  3EA8               	addlw	(_control_id+2)& (0+255)
  2482  0A69  0084               	movwf	4
  2483  0A6A  0866               	movf	recive_task@msg+2,w
  2484  0A6B  0600               	xorwf	0,w
  2485  0A6C  1D03               	skipz
  2486  0A6D  2A46               	goto	l17162
  2487  0A6E  3006               	movlw	6
  2488  0A6F  00F3               	movwf	?___bmul
  2489  0A70  086C               	movf	recive_task@i,w
  2490  0A71  274F  158A         	fcall	___bmul
  2491  0A73  3EA9               	addlw	(_control_id+3)& (0+255)
  2492  0A74  0084               	movwf	4
  2493  0A75  0867               	movf	recive_task@msg+3,w
  2494  0A76  0600               	xorwf	0,w
  2495  0A77  1D03               	skipz
  2496  0A78  2A46               	goto	l17162
  2497  0A79  3006               	movlw	6
  2498  0A7A  00F3               	movwf	?___bmul
  2499  0A7B  086C               	movf	recive_task@i,w
  2500  0A7C  274F  158A         	fcall	___bmul
  2501  0A7E  3EAA               	addlw	(_control_id+4)& (0+255)
  2502  0A7F  0084               	movwf	4
  2503  0A80  0868               	movf	recive_task@msg+4,w
  2504  0A81  0600               	xorwf	0,w
  2505  0A82  1D03               	skipz
  2506  0A83  2A46               	goto	l17162
  2507                           
  2508                           ;recive.c: 345: {
  2509                           ;recive.c: 346: match_flag = 1;
  2510  0A84  01EA               	clrf	recive_task@match_flag
  2511  0A85  0AEA               	incf	recive_task@match_flag,f
  2512  0A86                     l17168:	
  2513                           
  2514                           ;recive.c: 352: }
  2515                           ;recive.c: 353: }
  2516                           ;recive.c: 355: if(match_flag == 0)
  2517  0A86  08EA               	movf	recive_task@match_flag,f
  2518  0A87  1D03               	skipz
  2519  0A88  2ABF               	goto	l17202
  2520                           
  2521                           ;recive.c: 356: {
  2522                           ;recive.c: 357: flag = (channel_flag >> 0) & 0x03;
  2523  0A89  084F               	movf	_channel_flag,w
  2524  0A8A  00EB               	movwf	recive_task@flag
  2525  0A8B  3003               	movlw	3
  2526  0A8C  05EB               	andwf	recive_task@flag,f
  2527                           
  2528                           ;recive.c: 359: if(flag >= 3)
  2529  0A8D  026B               	subwf	recive_task@flag,w
  2530  0A8E  1803               	btfsc	3,0
  2531                           
  2532                           ;recive.c: 360: {
  2533                           ;recive.c: 361: flag = 0;
  2534  0A8F  01EB               	clrf	recive_task@flag
  2535                           
  2536                           ;recive.c: 362: }
  2537                           ;recive.c: 364: AT24C02_Write_Msg(0 + flag * 6, msg, 6);
  2538  0A90  3064               	movlw	recive_task@msg& (0+255)
  2539  0A91  00D4               	movwf	?_AT24C02_Write_Msg
  2540  0A92  3006               	movlw	6
  2541  0A93  00D5               	movwf	?_AT24C02_Write_Msg+1
  2542  0A94  00F3               	movwf	?___bmul
  2543  0A95  086B               	movf	recive_task@flag,w
  2544  0A96  274F  158A         	fcall	___bmul
  2545  0A98  277A  158A         	fcall	_AT24C02_Write_Msg
  2546                           
  2547                           ;recive.c: 365: for(i = 0; i < 6; i++)
  2548  0A9A  01EC               	clrf	recive_task@i
  2549  0A9B                     l17182:	
  2550  0A9B  3006               	movlw	6
  2551  0A9C  026C               	subwf	recive_task@i,w
  2552  0A9D  1803               	btfsc	3,0
  2553  0A9E  2AB5               	goto	l17192
  2554                           
  2555                           ;recive.c: 366: {
  2556                           ;recive.c: 367: control_id[flag][i] = msg[i];
  2557  0A9F  086C               	movf	recive_task@i,w
  2558  0AA0  3E64               	addlw	recive_task@msg& (0+255)
  2559  0AA1  0084               	movwf	4
  2560  0AA2  1383               	bcf	3,7	;select IRP bank0
  2561  0AA3  0800               	movf	0,w
  2562  0AA4  00E0               	movwf	??_recive_task
  2563  0AA5  3006               	movlw	6
  2564  0AA6  00F3               	movwf	?___bmul
  2565  0AA7  086B               	movf	recive_task@flag,w
  2566  0AA8  274F  158A         	fcall	___bmul
  2567  0AAA  00E1               	movwf	??_recive_task+1
  2568  0AAB  3EA6               	addlw	_control_id& (0+255)
  2569  0AAC  00E2               	movwf	??_recive_task+2
  2570  0AAD  086C               	movf	recive_task@i,w
  2571  0AAE  0762               	addwf	??_recive_task+2,w
  2572  0AAF  00E3               	movwf	??_recive_task+3
  2573  0AB0  0084               	movwf	4
  2574  0AB1  0860               	movf	??_recive_task,w
  2575  0AB2  0080               	movwf	0
  2576  0AB3  0AEC               	incf	recive_task@i,f
  2577  0AB4  2A9B               	goto	l17182
  2578  0AB5                     l17192:	
  2579  0AB5  3003               	movlw	3
  2580                           
  2581                           ;recive.c: 368: }
  2582                           ;recive.c: 370: flag ++;
  2583  0AB6  0AEB               	incf	recive_task@flag,f
  2584                           
  2585                           ;recive.c: 371: if(flag >= 3)
  2586  0AB7  026B               	subwf	recive_task@flag,w
  2587  0AB8  1803               	btfsc	3,0
  2588                           
  2589                           ;recive.c: 372: {
  2590                           ;recive.c: 373: flag = 0;
  2591  0AB9  01EB               	clrf	recive_task@flag
  2592                           
  2593                           ;recive.c: 374: }
  2594                           ;recive.c: 376: channel_flag &= (~(0x03 << 0));
  2595  0ABA  30FC               	movlw	252
  2596  0ABB  05CF               	andwf	_channel_flag,f
  2597                           
  2598                           ;recive.c: 377: channel_flag |= (flag << 0);
  2599  0ABC  086B               	movf	recive_task@flag,w
  2600  0ABD  04CF               	iorwf	_channel_flag,f
  2601                           
  2602                           ;recive.c: 378: }
  2603  0ABE  2ACD               	goto	l17206
  2604  0ABF                     l17202:	
  2605                           
  2606                           ;recive.c: 379: else
  2607                           ;recive.c: 380: {
  2608                           ;recive.c: 381: flag = i;
  2609  0ABF  086C               	movf	recive_task@i,w
  2610  0AC0  00EB               	movwf	recive_task@flag
  2611                           
  2612                           ;recive.c: 382: AT24C02_Write_Msg(0 + flag * 6 + 5, &msg[5], 1);
  2613  0AC1  3069               	movlw	(recive_task@msg+5)& (0+255)
  2614  0AC2  00D4               	movwf	?_AT24C02_Write_Msg
  2615  0AC3  3006               	movlw	6
  2616  0AC4  01D5               	clrf	?_AT24C02_Write_Msg+1
  2617  0AC5  0AD5               	incf	?_AT24C02_Write_Msg+1,f
  2618  0AC6  00F3               	movwf	?___bmul
  2619  0AC7  086B               	movf	recive_task@flag,w
  2620  0AC8  274F  158A         	fcall	___bmul
  2621  0ACA  3E05               	addlw	5
  2622  0ACB  277A  158A         	fcall	_AT24C02_Write_Msg
  2623  0ACD                     l17206:	
  2624                           
  2625                           ;recive.c: 383: }
  2626                           ;recive.c: 385: if (rf_buf[9] == 2)
  2627  0ACD  0846               	movf	_rf_buf+9,w
  2628  0ACE  3A02               	xorlw	2
  2629  0ACF  1D03               	skipz
  2630  0AD0  2AD4               	goto	l17210
  2631                           
  2632                           ;recive.c: 386: {
  2633                           ;recive.c: 387: KEY0.channel_status ^= 1;
  2634  0AD1  3001               	movlw	1
  2635  0AD2  06A0               	xorwf	_KEY0,f
  2636                           
  2637                           ;recive.c: 388: }
  2638  0AD3  2C29               	goto	l9891
  2639  0AD4                     l17210:	
  2640                           
  2641                           ;recive.c: 389: else if (rf_buf[9] == 1)
  2642  0AD4  0B46               	decfsz	_rf_buf+9,w
  2643  0AD5  2AD9               	goto	l17214
  2644                           
  2645                           ;recive.c: 390: {
  2646                           ;recive.c: 391: KEY0.channel_status = 1;
  2647  0AD6  01A0               	clrf	_KEY0
  2648  0AD7  0AA0               	incf	_KEY0,f
  2649                           
  2650                           ;recive.c: 392: }
  2651  0AD8  2C29               	goto	l9891
  2652  0AD9                     l17214:	
  2653                           
  2654                           ;recive.c: 393: else if (rf_buf[9] == 0)
  2655  0AD9  08C6               	movf	_rf_buf+9,f
  2656  0ADA  1D03               	skipz
  2657  0ADB  2C29               	goto	l9891
  2658                           
  2659                           ;recive.c: 394: {
  2660                           ;recive.c: 395: KEY0.channel_status = 0;
  2661  0ADC  01A0               	clrf	_KEY0
  2662                           
  2663                           ;recive.c: 399: }
  2664  0ADD  2C29               	goto	l9891
  2665  0ADE                     l9879:	
  2666                           
  2667                           ;recive.c: 400: else if(match_channel_flag & 0x20)
  2668  0ADE  1EED               	btfss	_match_channel_flag,5
  2669  0ADF  2B8B               	goto	l9896
  2670                           
  2671                           ;recive.c: 401: {
  2672                           ;recive.c: 402: for(i = 0; i < 3; i++)
  2673  0AE0  01EC               	clrf	recive_task@i
  2674                           
  2675                           ;recive.c: 412: break;
  2676  0AE1  2AE4               	goto	l17220
  2677  0AE2                     l17238:	
  2678                           
  2679                           ;recive.c: 414: else
  2680                           ;recive.c: 415: {
  2681                           ;recive.c: 416: match_flag = 0;
  2682  0AE2  01EA               	clrf	recive_task@match_flag
  2683  0AE3  0AEC               	incf	recive_task@i,f
  2684  0AE4                     l17220:	
  2685  0AE4  3003               	movlw	3
  2686  0AE5  026C               	subwf	recive_task@i,w
  2687  0AE6  1803               	btfsc	3,0
  2688  0AE7  2B22               	goto	l17244
  2689                           
  2690                           ;recive.c: 403: {
  2691                           ;recive.c: 404: if((msg[0] == control_id[i+3][0])
  2692                           ;recive.c: 405: &&(msg[1] == control_id[i+3][1])
  2693                           ;recive.c: 406: &&(msg[2] == control_id[i+3][2])
  2694                           ;recive.c: 407: &&(msg[3] == control_id[i+3][3])
  2695                           ;recive.c: 408: &&(msg[4] == control_id[i+3][4])
  2696                           ;recive.c: 409: )
  2697  0AE8  3006               	movlw	6
  2698  0AE9  00F3               	movwf	?___bmul
  2699  0AEA  086C               	movf	recive_task@i,w
  2700  0AEB  274F  158A         	fcall	___bmul
  2701  0AED  3EB8               	addlw	(_control_id+18)& (0+255)
  2702  0AEE  0084               	movwf	4
  2703  0AEF  1383               	bcf	3,7	;select IRP bank1
  2704  0AF0  0800               	movf	0,w
  2705  0AF1  0664               	xorwf	recive_task@msg,w
  2706  0AF2  1D03               	skipz
  2707  0AF3  2AE2               	goto	l17238
  2708  0AF4  3006               	movlw	6
  2709  0AF5  00F3               	movwf	?___bmul
  2710  0AF6  086C               	movf	recive_task@i,w
  2711  0AF7  274F  158A         	fcall	___bmul
  2712  0AF9  3EB9               	addlw	(_control_id+19)& (0+255)
  2713  0AFA  0084               	movwf	4
  2714  0AFB  0865               	movf	recive_task@msg+1,w
  2715  0AFC  0600               	xorwf	0,w
  2716  0AFD  1D03               	skipz
  2717  0AFE  2AE2               	goto	l17238
  2718  0AFF  3006               	movlw	6
  2719  0B00  00F3               	movwf	?___bmul
  2720  0B01  086C               	movf	recive_task@i,w
  2721  0B02  274F  158A         	fcall	___bmul
  2722  0B04  3EBA               	addlw	(_control_id+20)& (0+255)
  2723  0B05  0084               	movwf	4
  2724  0B06  0866               	movf	recive_task@msg+2,w
  2725  0B07  0600               	xorwf	0,w
  2726  0B08  1D03               	skipz
  2727  0B09  2AE2               	goto	l17238
  2728  0B0A  3006               	movlw	6
  2729  0B0B  00F3               	movwf	?___bmul
  2730  0B0C  086C               	movf	recive_task@i,w
  2731  0B0D  274F  158A         	fcall	___bmul
  2732  0B0F  3EBB               	addlw	(_control_id+21)& (0+255)
  2733  0B10  0084               	movwf	4
  2734  0B11  0867               	movf	recive_task@msg+3,w
  2735  0B12  0600               	xorwf	0,w
  2736  0B13  1D03               	skipz
  2737  0B14  2AE2               	goto	l17238
  2738  0B15  3006               	movlw	6
  2739  0B16  00F3               	movwf	?___bmul
  2740  0B17  086C               	movf	recive_task@i,w
  2741  0B18  274F  158A         	fcall	___bmul
  2742  0B1A  3EBC               	addlw	(_control_id+22)& (0+255)
  2743  0B1B  0084               	movwf	4
  2744  0B1C  0868               	movf	recive_task@msg+4,w
  2745  0B1D  0600               	xorwf	0,w
  2746  0B1E  1D03               	skipz
  2747  0B1F  2AE2               	goto	l17238
  2748                           
  2749                           ;recive.c: 410: {
  2750                           ;recive.c: 411: match_flag = 1;
  2751  0B20  01EA               	clrf	recive_task@match_flag
  2752  0B21  0AEA               	incf	recive_task@match_flag,f
  2753  0B22                     l17244:	
  2754                           
  2755                           ;recive.c: 417: }
  2756                           ;recive.c: 418: }
  2757                           ;recive.c: 420: if(match_flag == 0)
  2758  0B22  08EA               	movf	recive_task@match_flag,f
  2759  0B23  1D03               	skipz
  2760  0B24  2B67               	goto	l17276
  2761                           
  2762                           ;recive.c: 421: {
  2763                           ;recive.c: 422: flag = (channel_flag >> 2) & 0x03;
  2764  0B25  084F               	movf	_channel_flag,w
  2765  0B26  00E0               	movwf	??_recive_task
  2766  0B27  1003               	clrc
  2767  0B28  0CE0               	rrf	??_recive_task,f
  2768  0B29  1003               	clrc
  2769  0B2A  0CE0               	rrf	??_recive_task,f
  2770  0B2B  0860               	movf	??_recive_task,w
  2771  0B2C  00EB               	movwf	recive_task@flag
  2772  0B2D  3003               	movlw	3
  2773  0B2E  05EB               	andwf	recive_task@flag,f
  2774                           
  2775                           ;recive.c: 424: if(flag >= 3)
  2776  0B2F  026B               	subwf	recive_task@flag,w
  2777  0B30  1803               	btfsc	3,0
  2778                           
  2779                           ;recive.c: 425: {
  2780                           ;recive.c: 426: flag = 0;
  2781  0B31  01EB               	clrf	recive_task@flag
  2782                           
  2783                           ;recive.c: 427: }
  2784                           ;recive.c: 429: AT24C02_Write_Msg(3 * 6 + flag * 6, msg, 6);
  2785  0B32  3064               	movlw	recive_task@msg& (0+255)
  2786  0B33  00D4               	movwf	?_AT24C02_Write_Msg
  2787  0B34  3006               	movlw	6
  2788  0B35  00D5               	movwf	?_AT24C02_Write_Msg+1
  2789  0B36  00F3               	movwf	?___bmul
  2790  0B37  086B               	movf	recive_task@flag,w
  2791  0B38  274F  158A         	fcall	___bmul
  2792  0B3A  3E12               	addlw	18
  2793  0B3B  277A  158A         	fcall	_AT24C02_Write_Msg
  2794                           
  2795                           ;recive.c: 430: for(i = 0; i < 6; i++)
  2796  0B3D  01EC               	clrf	recive_task@i
  2797  0B3E                     l17256:	
  2798  0B3E  3006               	movlw	6
  2799  0B3F  026C               	subwf	recive_task@i,w
  2800  0B40  1803               	btfsc	3,0
  2801  0B41  2B58               	goto	l17266
  2802                           
  2803                           ;recive.c: 431: {
  2804                           ;recive.c: 432: control_id[flag + 3][i] = msg[i];
  2805  0B42  086C               	movf	recive_task@i,w
  2806  0B43  3E64               	addlw	recive_task@msg& (0+255)
  2807  0B44  0084               	movwf	4
  2808  0B45  1383               	bcf	3,7	;select IRP bank0
  2809  0B46  0800               	movf	0,w
  2810  0B47  00E0               	movwf	??_recive_task
  2811  0B48  3006               	movlw	6
  2812  0B49  00F3               	movwf	?___bmul
  2813  0B4A  086B               	movf	recive_task@flag,w
  2814  0B4B  274F  158A         	fcall	___bmul
  2815  0B4D  00E1               	movwf	??_recive_task+1
  2816  0B4E  3EB8               	addlw	(_control_id+18)& (0+255)
  2817  0B4F  00E2               	movwf	??_recive_task+2
  2818  0B50  086C               	movf	recive_task@i,w
  2819  0B51  0762               	addwf	??_recive_task+2,w
  2820  0B52  00E3               	movwf	??_recive_task+3
  2821  0B53  0084               	movwf	4
  2822  0B54  0860               	movf	??_recive_task,w
  2823  0B55  0080               	movwf	0
  2824  0B56  0AEC               	incf	recive_task@i,f
  2825  0B57  2B3E               	goto	l17256
  2826  0B58                     l17266:	
  2827  0B58  3003               	movlw	3
  2828                           
  2829                           ;recive.c: 433: }
  2830                           ;recive.c: 435: flag ++;
  2831  0B59  0AEB               	incf	recive_task@flag,f
  2832                           
  2833                           ;recive.c: 436: if(flag >= 3)
  2834  0B5A  026B               	subwf	recive_task@flag,w
  2835  0B5B  1803               	btfsc	3,0
  2836                           
  2837                           ;recive.c: 437: {
  2838                           ;recive.c: 438: flag = 0;
  2839  0B5C  01EB               	clrf	recive_task@flag
  2840                           
  2841                           ;recive.c: 439: }
  2842                           ;recive.c: 440: channel_flag &= (~(0x03 << 2));
  2843  0B5D  30F3               	movlw	243
  2844  0B5E  05CF               	andwf	_channel_flag,f
  2845                           
  2846                           ;recive.c: 441: channel_flag |= (flag << 2);
  2847  0B5F  086B               	movf	recive_task@flag,w
  2848  0B60  00E0               	movwf	??_recive_task
  2849  0B61  1003               	clrc
  2850  0B62  0DE0               	rlf	??_recive_task,f
  2851  0B63  1003               	clrc
  2852  0B64  0D60               	rlf	??_recive_task,w
  2853  0B65  04CF               	iorwf	_channel_flag,f
  2854                           
  2855                           ;recive.c: 443: }
  2856  0B66  2B7A               	goto	l17282
  2857  0B67                     l17276:	
  2858                           
  2859                           ;recive.c: 448: debug = flag;
  2860  0B67  086C               	movf	recive_task@i,w
  2861  0B68  00EB               	movwf	recive_task@flag
  2862                           
  2863                           ;recive.c: 450: AT24C02_Write_Msg(3 * 6 + flag * 6 + 5, &msg[5], 1);
  2864  0B69  3069               	movlw	(recive_task@msg+5)& (0+255)
  2865  0B6A  00D4               	movwf	?_AT24C02_Write_Msg
  2866  0B6B  3006               	movlw	6
  2867  0B6C  01D5               	clrf	?_AT24C02_Write_Msg+1
  2868  0B6D  0AD5               	incf	?_AT24C02_Write_Msg+1,f
  2869  0B6E  00F3               	movwf	?___bmul
  2870  0B6F  086B               	movf	recive_task@flag,w
  2871  0B70  274F  158A         	fcall	___bmul
  2872  0B72  3E17               	addlw	23
  2873  0B73  277A  158A         	fcall	_AT24C02_Write_Msg
  2874                           
  2875                           ;recive.c: 451: soft_delay_ms(2);
  2876  0B75  3002               	movlw	2
  2877  0B76  00F3               	movwf	?_soft_delay_ms
  2878  0B77  01F4               	clrf	?_soft_delay_ms+1
  2879  0B78  275D  158A         	fcall	_soft_delay_ms
  2880  0B7A                     l17282:	
  2881                           
  2882                           ;recive.c: 452: }
  2883                           ;recive.c: 454: if (rf_buf[9] == 2)
  2884  0B7A  0846               	movf	_rf_buf+9,w
  2885  0B7B  3A02               	xorlw	2
  2886  0B7C  1D03               	skipz
  2887  0B7D  2B81               	goto	l17286
  2888                           
  2889                           ;recive.c: 455: {
  2890                           ;recive.c: 456: KEY1.channel_status ^= 1;
  2891  0B7E  3001               	movlw	1
  2892  0B7F  06A3               	xorwf	_KEY1,f
  2893                           
  2894                           ;recive.c: 457: }
  2895  0B80  2C29               	goto	l9891
  2896  0B81                     l17286:	
  2897                           
  2898                           ;recive.c: 458: else if (rf_buf[9] == 1)
  2899  0B81  0B46               	decfsz	_rf_buf+9,w
  2900  0B82  2B86               	goto	l17290
  2901                           
  2902                           ;recive.c: 459: {
  2903                           ;recive.c: 460: KEY1.channel_status = 1;
  2904  0B83  01A3               	clrf	_KEY1
  2905  0B84  0AA3               	incf	_KEY1,f
  2906                           
  2907                           ;recive.c: 461: }
  2908  0B85  2C29               	goto	l9891
  2909  0B86                     l17290:	
  2910                           
  2911                           ;recive.c: 462: else if (rf_buf[9] == 0)
  2912  0B86  08C6               	movf	_rf_buf+9,f
  2913  0B87  1D03               	skipz
  2914  0B88  2C29               	goto	l9891
  2915                           
  2916                           ;recive.c: 463: {
  2917                           ;recive.c: 464: KEY1.channel_status = 0;
  2918  0B89  01A3               	clrf	_KEY1
  2919  0B8A  2C29               	goto	l9891
  2920  0B8B                     l9896:	
  2921                           
  2922                           ;recive.c: 469: else if(match_channel_flag&0x40)
  2923  0B8B  1F6D               	btfss	_match_channel_flag,6
  2924  0B8C  2C2A               	goto	l17368
  2925                           
  2926                           ;recive.c: 470: {
  2927                           ;recive.c: 472: for(i = 0; i < 3; i++)
  2928  0B8D  01EC               	clrf	recive_task@i
  2929                           
  2930                           ;recive.c: 482: break;
  2931  0B8E  2B91               	goto	l17296
  2932  0B8F                     l17314:	
  2933                           
  2934                           ;recive.c: 484: else
  2935                           ;recive.c: 485: {
  2936                           ;recive.c: 486: match_flag = 0;
  2937  0B8F  01EA               	clrf	recive_task@match_flag
  2938  0B90  0AEC               	incf	recive_task@i,f
  2939  0B91                     l17296:	
  2940  0B91  3003               	movlw	3
  2941  0B92  026C               	subwf	recive_task@i,w
  2942  0B93  1803               	btfsc	3,0
  2943  0B94  2BCF               	goto	l17320
  2944                           
  2945                           ;recive.c: 473: {
  2946                           ;recive.c: 474: if((msg[0] == control_id[i+6][0])
  2947                           ;recive.c: 475: &&(msg[1] == control_id[i+6][1])
  2948                           ;recive.c: 476: &&(msg[2] == control_id[i+6][2])
  2949                           ;recive.c: 477: &&(msg[3] == control_id[i+6][3])
  2950                           ;recive.c: 478: &&(msg[4] == control_id[i+6][4])
  2951                           ;recive.c: 479: )
  2952  0B95  3006               	movlw	6
  2953  0B96  00F3               	movwf	?___bmul
  2954  0B97  086C               	movf	recive_task@i,w
  2955  0B98  274F  158A         	fcall	___bmul
  2956  0B9A  3ECA               	addlw	(_control_id+36)& (0+255)
  2957  0B9B  0084               	movwf	4
  2958  0B9C  1383               	bcf	3,7	;select IRP bank1
  2959  0B9D  0800               	movf	0,w
  2960  0B9E  0664               	xorwf	recive_task@msg,w
  2961  0B9F  1D03               	skipz
  2962  0BA0  2B8F               	goto	l17314
  2963  0BA1  3006               	movlw	6
  2964  0BA2  00F3               	movwf	?___bmul
  2965  0BA3  086C               	movf	recive_task@i,w
  2966  0BA4  274F  158A         	fcall	___bmul
  2967  0BA6  3ECB               	addlw	(_control_id+37)& (0+255)
  2968  0BA7  0084               	movwf	4
  2969  0BA8  0865               	movf	recive_task@msg+1,w
  2970  0BA9  0600               	xorwf	0,w
  2971  0BAA  1D03               	skipz
  2972  0BAB  2B8F               	goto	l17314
  2973  0BAC  3006               	movlw	6
  2974  0BAD  00F3               	movwf	?___bmul
  2975  0BAE  086C               	movf	recive_task@i,w
  2976  0BAF  274F  158A         	fcall	___bmul
  2977  0BB1  3ECC               	addlw	(_control_id+38)& (0+255)
  2978  0BB2  0084               	movwf	4
  2979  0BB3  0866               	movf	recive_task@msg+2,w
  2980  0BB4  0600               	xorwf	0,w
  2981  0BB5  1D03               	skipz
  2982  0BB6  2B8F               	goto	l17314
  2983  0BB7  3006               	movlw	6
  2984  0BB8  00F3               	movwf	?___bmul
  2985  0BB9  086C               	movf	recive_task@i,w
  2986  0BBA  274F  158A         	fcall	___bmul
  2987  0BBC  3ECD               	addlw	(_control_id+39)& (0+255)
  2988  0BBD  0084               	movwf	4
  2989  0BBE  0867               	movf	recive_task@msg+3,w
  2990  0BBF  0600               	xorwf	0,w
  2991  0BC0  1D03               	skipz
  2992  0BC1  2B8F               	goto	l17314
  2993  0BC2  3006               	movlw	6
  2994  0BC3  00F3               	movwf	?___bmul
  2995  0BC4  086C               	movf	recive_task@i,w
  2996  0BC5  274F  158A         	fcall	___bmul
  2997  0BC7  3ECE               	addlw	(_control_id+40)& (0+255)
  2998  0BC8  0084               	movwf	4
  2999  0BC9  0868               	movf	recive_task@msg+4,w
  3000  0BCA  0600               	xorwf	0,w
  3001  0BCB  1D03               	skipz
  3002  0BCC  2B8F               	goto	l17314
  3003                           
  3004                           ;recive.c: 480: {
  3005                           ;recive.c: 481: match_flag = 1;
  3006  0BCD  01EA               	clrf	recive_task@match_flag
  3007  0BCE  0AEA               	incf	recive_task@match_flag,f
  3008  0BCF                     l17320:	
  3009                           
  3010                           ;recive.c: 487: }
  3011                           ;recive.c: 488: }
  3012                           ;recive.c: 490: if(match_flag == 0)
  3013  0BCF  08EA               	movf	recive_task@match_flag,f
  3014  0BD0  1D03               	skipz
  3015  0BD1  2C0B               	goto	l17352
  3016                           
  3017                           ;recive.c: 491: {
  3018                           ;recive.c: 492: flag = (channel_flag >> 4) & 0x03;
  3019  0BD2  0E4F               	swapf	_channel_flag,w
  3020  0BD3  390F               	andlw	15
  3021  0BD4  00EB               	movwf	recive_task@flag
  3022  0BD5  3003               	movlw	3
  3023  0BD6  05EB               	andwf	recive_task@flag,f
  3024                           
  3025                           ;recive.c: 494: if (flag >= 3)
  3026  0BD7  026B               	subwf	recive_task@flag,w
  3027  0BD8  1803               	btfsc	3,0
  3028                           
  3029                           ;recive.c: 495: {
  3030                           ;recive.c: 496: flag = 0;
  3031  0BD9  01EB               	clrf	recive_task@flag
  3032                           
  3033                           ;recive.c: 497: }
  3034                           ;recive.c: 499: AT24C02_Write_Msg(6 * 6 + flag * 6, msg, 6);
  3035  0BDA  3064               	movlw	recive_task@msg& (0+255)
  3036  0BDB  00D4               	movwf	?_AT24C02_Write_Msg
  3037  0BDC  3006               	movlw	6
  3038  0BDD  00D5               	movwf	?_AT24C02_Write_Msg+1
  3039  0BDE  00F3               	movwf	?___bmul
  3040  0BDF  086B               	movf	recive_task@flag,w
  3041  0BE0  274F  158A         	fcall	___bmul
  3042  0BE2  3E24               	addlw	36
  3043  0BE3  277A  158A         	fcall	_AT24C02_Write_Msg
  3044                           
  3045                           ;recive.c: 500: for(i = 0; i < 6; i++)
  3046  0BE5  01EC               	clrf	recive_task@i
  3047  0BE6                     l17332:	
  3048  0BE6  3006               	movlw	6
  3049  0BE7  026C               	subwf	recive_task@i,w
  3050  0BE8  1803               	btfsc	3,0
  3051  0BE9  2C00               	goto	l17342
  3052                           
  3053                           ;recive.c: 501: {
  3054                           ;recive.c: 502: control_id[flag + 6][i] = msg[i];
  3055  0BEA  086C               	movf	recive_task@i,w
  3056  0BEB  3E64               	addlw	recive_task@msg& (0+255)
  3057  0BEC  0084               	movwf	4
  3058  0BED  1383               	bcf	3,7	;select IRP bank0
  3059  0BEE  0800               	movf	0,w
  3060  0BEF  00E0               	movwf	??_recive_task
  3061  0BF0  3006               	movlw	6
  3062  0BF1  00F3               	movwf	?___bmul
  3063  0BF2  086B               	movf	recive_task@flag,w
  3064  0BF3  274F  158A         	fcall	___bmul
  3065  0BF5  00E1               	movwf	??_recive_task+1
  3066  0BF6  3ECA               	addlw	(_control_id+36)& (0+255)
  3067  0BF7  00E2               	movwf	??_recive_task+2
  3068  0BF8  086C               	movf	recive_task@i,w
  3069  0BF9  0762               	addwf	??_recive_task+2,w
  3070  0BFA  00E3               	movwf	??_recive_task+3
  3071  0BFB  0084               	movwf	4
  3072  0BFC  0860               	movf	??_recive_task,w
  3073  0BFD  0080               	movwf	0
  3074  0BFE  0AEC               	incf	recive_task@i,f
  3075  0BFF  2BE6               	goto	l17332
  3076  0C00                     l17342:	
  3077  0C00  3003               	movlw	3
  3078                           
  3079                           ;recive.c: 503: }
  3080                           ;recive.c: 505: flag ++;
  3081  0C01  0AEB               	incf	recive_task@flag,f
  3082                           
  3083                           ;recive.c: 506: if(flag >= 3)
  3084  0C02  026B               	subwf	recive_task@flag,w
  3085  0C03  1803               	btfsc	3,0
  3086                           
  3087                           ;recive.c: 507: {
  3088                           ;recive.c: 508: flag = 0;
  3089  0C04  01EB               	clrf	recive_task@flag
  3090                           
  3091                           ;recive.c: 509: }
  3092                           ;recive.c: 511: channel_flag &= (~(0x03 << 4));
  3093  0C05  30CF               	movlw	207
  3094  0C06  05CF               	andwf	_channel_flag,f
  3095                           
  3096                           ;recive.c: 512: channel_flag |= (flag << 4);
  3097  0C07  0E6B               	swapf	recive_task@flag,w
  3098  0C08  39F0               	andlw	240
  3099  0C09  04CF               	iorwf	_channel_flag,f
  3100                           
  3101                           ;recive.c: 514: }
  3102  0C0A  2C19               	goto	l17356
  3103  0C0B                     l17352:	
  3104                           
  3105                           ;recive.c: 515: else
  3106                           ;recive.c: 516: {
  3107                           ;recive.c: 517: flag = i;
  3108  0C0B  086C               	movf	recive_task@i,w
  3109  0C0C  00EB               	movwf	recive_task@flag
  3110                           
  3111                           ;recive.c: 518: AT24C02_Write_Msg(6 * 6 + flag * 6 + 5, &msg[5], 1);
  3112  0C0D  3069               	movlw	(recive_task@msg+5)& (0+255)
  3113  0C0E  00D4               	movwf	?_AT24C02_Write_Msg
  3114  0C0F  3006               	movlw	6
  3115  0C10  01D5               	clrf	?_AT24C02_Write_Msg+1
  3116  0C11  0AD5               	incf	?_AT24C02_Write_Msg+1,f
  3117  0C12  00F3               	movwf	?___bmul
  3118  0C13  086B               	movf	recive_task@flag,w
  3119  0C14  274F  158A         	fcall	___bmul
  3120  0C16  3E29               	addlw	41
  3121  0C17  277A  158A         	fcall	_AT24C02_Write_Msg
  3122  0C19                     l17356:	
  3123                           
  3124                           ;recive.c: 519: }
  3125                           ;recive.c: 521: if (rf_buf[9] == 2)
  3126  0C19  0846               	movf	_rf_buf+9,w
  3127  0C1A  3A02               	xorlw	2
  3128  0C1B  1D03               	skipz
  3129  0C1C  2C20               	goto	l17360
  3130                           
  3131                           ;recive.c: 522: {
  3132                           ;recive.c: 523: KEY2.channel_status ^= 1;
  3133  0C1D  3001               	movlw	1
  3134  0C1E  06A6               	xorwf	_KEY2,f
  3135                           
  3136                           ;recive.c: 524: }
  3137  0C1F  2C29               	goto	l9891
  3138  0C20                     l17360:	
  3139                           
  3140                           ;recive.c: 525: else if (rf_buf[9] == 1)
  3141  0C20  0B46               	decfsz	_rf_buf+9,w
  3142  0C21  2C25               	goto	l17364
  3143                           
  3144                           ;recive.c: 526: {
  3145                           ;recive.c: 527: KEY2.channel_status = 1;
  3146  0C22  01A6               	clrf	_KEY2
  3147  0C23  0AA6               	incf	_KEY2,f
  3148                           
  3149                           ;recive.c: 528: }
  3150  0C24  2C29               	goto	l9891
  3151  0C25                     l17364:	
  3152                           
  3153                           ;recive.c: 529: else if (rf_buf[9] == 0)
  3154  0C25  08C6               	movf	_rf_buf+9,f
  3155  0C26  1D03               	skipz
  3156  0C27  2C29               	goto	l9891
  3157                           
  3158                           ;recive.c: 530: {
  3159                           ;recive.c: 531: KEY2.channel_status = 0;
  3160  0C28  01A6               	clrf	_KEY2
  3161  0C29                     l9891:	
  3162                           
  3163                           ;recive.c: 396: }
  3164                           ;recive.c: 398: key_long_flag = 0;
  3165  0C29  01F9               	clrf	_key_long_flag
  3166  0C2A                     l17368:	
  3167                           
  3168                           ;recive.c: 535: }
  3169                           ;recive.c: 537: AT24C02_Write_Msg(110, &channel_flag,1);
  3170  0C2A  304F               	movlw	_channel_flag& (0+255)
  3171  0C2B  00D4               	movwf	?_AT24C02_Write_Msg
  3172  0C2C  306E               	movlw	110
  3173  0C2D  01D5               	clrf	?_AT24C02_Write_Msg+1
  3174  0C2E  0AD5               	incf	?_AT24C02_Write_Msg+1,f
  3175  0C2F  277A  158A         	fcall	_AT24C02_Write_Msg
  3176                           
  3177                           ;recive.c: 538: AT24C02_Write_Msg(110, &channel_flag,1);
  3178  0C31  304F               	movlw	_channel_flag& (0+255)
  3179  0C32  00D4               	movwf	?_AT24C02_Write_Msg
  3180  0C33  306E               	movlw	110
  3181  0C34  01D5               	clrf	?_AT24C02_Write_Msg+1
  3182  0C35  0AD5               	incf	?_AT24C02_Write_Msg+1,f
  3183  0C36  277A  158A         	fcall	_AT24C02_Write_Msg
  3184                           
  3185                           ;recive.c: 540: for(i = 0; i < 12; i++)
  3186  0C38  01EC               	clrf	recive_task@i
  3187  0C39                     l17372:	
  3188  0C39  300C               	movlw	12
  3189  0C3A  026C               	subwf	recive_task@i,w
  3190  0C3B  1803               	btfsc	3,0
  3191  0C3C  2A23               	goto	l17120
  3192                           
  3193                           ;recive.c: 541: {
  3194                           ;recive.c: 542: AT24C02_Read_Msg(i * 6, control_id[i], 6);
  3195  0C3D  3006               	movlw	6
  3196  0C3E  00F3               	movwf	?___bmul
  3197  0C3F  086C               	movf	recive_task@i,w
  3198  0C40  274F  158A         	fcall	___bmul
  3199  0C42  3EA6               	addlw	_control_id& (0+255)
  3200  0C43  00D6               	movwf	?_AT24C02_Read_Msg
  3201  0C44  3006               	movlw	6
  3202  0C45  00D7               	movwf	?_AT24C02_Read_Msg+1
  3203  0C46  00F3               	movwf	?___bmul
  3204  0C47  086C               	movf	recive_task@i,w
  3205  0C48  274F  158A         	fcall	___bmul
  3206  0C4A  2793  158A         	fcall	_AT24C02_Read_Msg
  3207  0C4C  0AEC               	incf	recive_task@i,f
  3208  0C4D  2C39               	goto	l17372
  3209  0C4E                     l17398:	
  3210                           ;recive.c: 543: }
  3211                           ;recive.c: 544: AT24C02_Read_Msg(110, &channel_flag, 1);
  3212                           
  3213                           
  3214                           ;recive.c: 554: else
  3215                           ;recive.c: 555: {
  3216                           ;recive.c: 556: if(flag_5s_add > 500)
  3217  0C4E  3001               	movlw	1
  3218  0C4F  0233               	subwf	_flag_5s_add+1,w
  3219  0C50  30F5               	movlw	245
  3220  0C51  1903               	skipnz
  3221  0C52  0232               	subwf	_flag_5s_add,w
  3222  0C53  1C03               	skipc
  3223  0C54  0008               	return
  3224                           
  3225                           ;recive.c: 557: {
  3226                           ;recive.c: 558: sys_stute = 1;
  3227  0C55  01EE               	clrf	_sys_stute
  3228  0C56  0AEE               	incf	_sys_stute,f
  3229  0C57  2A38               	goto	l17134
  3230  0C58                     l17404:	
  3231                           ;recive.c: 560: }
  3232                           ;recive.c: 561: }
  3233                           ;recive.c: 562: }break;
  3234                           
  3235                           
  3236                           ;recive.c: 564: {
  3237                           ;recive.c: 565: if(rx_data())
  3238  0C58  118A  201D  158A   	fcall	_rx_data
  3239  0C5B  3A00               	xorlw	0
  3240  0C5C  1903               	skipnz
  3241  0C5D  0008               	return
  3242                           
  3243                           ;recive.c: 566: {
  3244                           ;recive.c: 567: if (rf_buf[8] == (0x20))
  3245  0C5E  0845               	movf	_rf_buf+8,w
  3246  0C5F  3A20               	xorlw	32
  3247  0C60  1D03               	skipz
  3248  0C61  2D01               	goto	l17476
  3249                           
  3250                           ;recive.c: 568: {
  3251                           ;recive.c: 569: if(rf_buf[10] != 0xff)
  3252  0C62  0847               	movf	_rf_buf+10,w
  3253  0C63  3AFF               	xorlw	255
  3254  0C64  1903               	skipnz
  3255  0C65  2F46               	goto	l17730
  3256                           
  3257                           ;recive.c: 570: {
  3258                           ;recive.c: 571: for (i = 9; i < 12; i++)
  3259  0C66  3009               	movlw	9
  3260  0C67  00EC               	movwf	recive_task@i
  3261  0C68                     L4:	
  3262  0C68  300C               	movlw	12
  3263  0C69  026C               	subwf	recive_task@i,w
  3264  0C6A  1803               	btfsc	3,0
  3265  0C6B  2F46               	goto	l17730
  3266                           
  3267                           ;recive.c: 572: {
  3268                           ;recive.c: 573: if((rf_buf[3] == control_id[i][0])
  3269                           ;recive.c: 574: &&(rf_buf[4] == control_id[i][1])
  3270                           ;recive.c: 575: &&(rf_buf[5] == control_id[i][2])
  3271                           ;recive.c: 576: &&(rf_buf[6] == control_id[i][3]))
  3272  0C6C  3006               	movlw	6
  3273  0C6D  00F3               	movwf	?___bmul
  3274  0C6E  086C               	movf	recive_task@i,w
  3275  0C6F  274F  158A         	fcall	___bmul
  3276  0C71  3EA6               	addlw	_control_id& (0+255)
  3277  0C72  0084               	movwf	4
  3278  0C73  0840               	movf	_rf_buf+3,w
  3279  0C74  1383               	bcf	3,7	;select IRP bank1
  3280  0C75  0600               	xorwf	0,w
  3281  0C76  1D03               	skipz
  3282  0C77  2CFF               	goto	l17472
  3283  0C78  3006               	movlw	6
  3284  0C79  00F3               	movwf	?___bmul
  3285  0C7A  086C               	movf	recive_task@i,w
  3286  0C7B  274F  158A         	fcall	___bmul
  3287  0C7D  3EA7               	addlw	(_control_id+1)& (0+255)
  3288  0C7E  0084               	movwf	4
  3289  0C7F  0841               	movf	_rf_buf+4,w
  3290  0C80  0600               	xorwf	0,w
  3291  0C81  1D03               	skipz
  3292  0C82  2CFF               	goto	l17472
  3293  0C83  3006               	movlw	6
  3294  0C84  00F3               	movwf	?___bmul
  3295  0C85  086C               	movf	recive_task@i,w
  3296  0C86  274F  158A         	fcall	___bmul
  3297  0C88  3EA8               	addlw	(_control_id+2)& (0+255)
  3298  0C89  0084               	movwf	4
  3299  0C8A  0842               	movf	_rf_buf+5,w
  3300  0C8B  0600               	xorwf	0,w
  3301  0C8C  1D03               	skipz
  3302  0C8D  2CFF               	goto	l17472
  3303  0C8E  3006               	movlw	6
  3304  0C8F  00F3               	movwf	?___bmul
  3305  0C90  086C               	movf	recive_task@i,w
  3306  0C91  274F  158A         	fcall	___bmul
  3307  0C93  3EA9               	addlw	(_control_id+3)& (0+255)
  3308  0C94  0084               	movwf	4
  3309  0C95  0843               	movf	_rf_buf+6,w
  3310  0C96  0600               	xorwf	0,w
  3311  0C97  1D03               	skipz
  3312  0C98  2CFF               	goto	l17472
  3313                           
  3314                           ;recive.c: 577: {
  3315                           ;recive.c: 578: if(rf_buf[2] != control_id[i][5])
  3316  0C99  3006               	movlw	6
  3317  0C9A  00F3               	movwf	?___bmul
  3318  0C9B  086C               	movf	recive_task@i,w
  3319  0C9C  274F  158A         	fcall	___bmul
  3320  0C9E  3EAB               	addlw	(_control_id+5)& (0+255)
  3321  0C9F  0084               	movwf	4
  3322  0CA0  083F               	movf	_rf_buf+2,w
  3323  0CA1  0600               	xorwf	0,w
  3324  0CA2  1903               	skipnz
  3325  0CA3  2F46               	goto	l17730
  3326                           
  3327                           ;recive.c: 579: {
  3328                           ;recive.c: 580: control_id[i][5] = rf_buf[2];
  3329  0CA4  3006               	movlw	6
  3330  0CA5  00F3               	movwf	?___bmul
  3331  0CA6  086C               	movf	recive_task@i,w
  3332  0CA7  274F  158A         	fcall	___bmul
  3333  0CA9  3EAB               	addlw	(_control_id+5)& (0+255)
  3334  0CAA  0084               	movwf	4
  3335  0CAB  083F               	movf	_rf_buf+2,w
  3336  0CAC  0080               	movwf	0
  3337                           
  3338                           ;recive.c: 582: if(rf_buf[9] < (6))
  3339  0CAD  3006               	movlw	6
  3340  0CAE  0246               	subwf	_rf_buf+9,w
  3341  0CAF  1803               	skipnc
  3342  0CB0  2F46               	goto	l17730
  3343                           
  3344                           ;recive.c: 583: {
  3345                           ;recive.c: 584: (TRISC0=0,RC0=0);
  3346  0CB1  1683               	bsf	3,5	;RP0=1, select bank1
  3347  0CB2  1007               	bcf	7,0
  3348  0CB3  1283               	bcf	3,5	;RP0=0, select bank0
  3349  0CB4  3064               	movlw	100
  3350  0CB5  1007               	bcf	7,0
  3351                           
  3352                           ;recive.c: 585: soft_delay_ms(100);
  3353  0CB6  00F3               	movwf	?_soft_delay_ms
  3354  0CB7  01F4               	clrf	?_soft_delay_ms+1
  3355  0CB8  275D  158A         	fcall	_soft_delay_ms
  3356                           
  3357                           ;recive.c: 586: (TRISC0=0,RC0=1);
  3358  0CBA  1683               	bsf	3,5	;RP0=1, select bank1
  3359  0CBB  1007               	bcf	7,0
  3360  0CBC  1283               	bcf	3,5	;RP0=0, select bank0
  3361  0CBD  3009               	movlw	9
  3362  0CBE  1407               	bsf	7,0
  3363                           
  3364                           ;recive.c: 589: for(i = 9; i < 12; i++)
  3365  0CBF  00EC               	movwf	recive_task@i
  3366  0CC0                     l17438:	
  3367  0CC0  300C               	movlw	12
  3368  0CC1  026C               	subwf	recive_task@i,w
  3369  0CC2  1803               	btfsc	3,0
  3370  0CC3  2F46               	goto	l17730
  3371                           
  3372                           ;recive.c: 590: {
  3373                           ;recive.c: 591: if ((control_id[i][4] & (0x01 << rf_buf[9])) != 0)
  3374  0CC4  3006               	movlw	6
  3375  0CC5  00F3               	movwf	?___bmul
  3376  0CC6  086C               	movf	recive_task@i,w
  3377  0CC7  274F  158A         	fcall	___bmul
  3378  0CC9  3EAA               	addlw	(_control_id+4)& (0+255)
  3379  0CCA  0084               	movwf	4
  3380  0CCB  3001               	movlw	1
  3381  0CCC  00E0               	movwf	??_recive_task
  3382  0CCD  0A46               	incf	_rf_buf+9,w
  3383  0CCE  2CD1               	goto	u6474
  3384  0CCF                     u6475:	
  3385  0CCF  1003               	clrc
  3386  0CD0  0DE0               	rlf	??_recive_task,f
  3387  0CD1                     u6474:	
  3388  0CD1  3EFF               	addlw	-1
  3389  0CD2  1D03               	skipz
  3390  0CD3  2CCF               	goto	u6475
  3391  0CD4  0860               	movf	??_recive_task,w
  3392  0CD5  0500               	andwf	0,w
  3393  0CD6  1903               	btfsc	3,2
  3394  0CD7  2CED               	goto	l17456
  3395                           
  3396                           ;recive.c: 592: {
  3397                           ;recive.c: 593: if (i == 9)
  3398  0CD8  086C               	movf	recive_task@i,w
  3399  0CD9  3A09               	xorlw	9
  3400  0CDA  1D03               	skipz
  3401  0CDB  2CDF               	goto	l17448
  3402                           
  3403                           ;recive.c: 594: {
  3404                           ;recive.c: 595: KEY0.channel_status = 1;
  3405  0CDC  01A0               	clrf	_KEY0
  3406  0CDD  0AA0               	incf	_KEY0,f
  3407                           
  3408                           ;recive.c: 596: }
  3409  0CDE  2CFD               	goto	l17468
  3410  0CDF                     l17448:	
  3411                           
  3412                           ;recive.c: 597: else if (i == 10)
  3413  0CDF  086C               	movf	recive_task@i,w
  3414  0CE0  3A0A               	xorlw	10
  3415  0CE1  1D03               	skipz
  3416  0CE2  2CE6               	goto	l17452
  3417                           
  3418                           ;recive.c: 598: {
  3419                           ;recive.c: 599: KEY1.channel_status = 1;
  3420  0CE3  01A3               	clrf	_KEY1
  3421  0CE4  0AA3               	incf	_KEY1,f
  3422                           
  3423                           ;recive.c: 600: }
  3424  0CE5  2CFD               	goto	l17468
  3425  0CE6                     l17452:	
  3426                           
  3427                           ;recive.c: 601: else if (i == 11)
  3428  0CE6  086C               	movf	recive_task@i,w
  3429  0CE7  3A0B               	xorlw	11
  3430  0CE8  1D03               	skipz
  3431  0CE9  2CFD               	goto	l17468
  3432                           
  3433                           ;recive.c: 602: {
  3434                           ;recive.c: 603: KEY2.channel_status = 1;
  3435  0CEA  01A6               	clrf	_KEY2
  3436  0CEB  0AA6               	incf	_KEY2,f
  3437  0CEC  2CFD               	goto	l17468
  3438  0CED                     l17456:	
  3439                           ;recive.c: 604: }
  3440                           ;recive.c: 605: }
  3441                           
  3442                           
  3443                           ;recive.c: 606: else
  3444                           ;recive.c: 607: {
  3445                           ;recive.c: 608: if (i == 9)
  3446  0CED  086C               	movf	recive_task@i,w
  3447  0CEE  3A09               	xorlw	9
  3448  0CEF  1D03               	skipz
  3449  0CF0  2CF3               	goto	l17460
  3450                           
  3451                           ;recive.c: 609: {
  3452                           ;recive.c: 610: KEY0.channel_status = 0;
  3453  0CF1  01A0               	clrf	_KEY0
  3454                           
  3455                           ;recive.c: 611: }
  3456  0CF2  2CFD               	goto	l17468
  3457  0CF3                     l17460:	
  3458                           
  3459                           ;recive.c: 612: else if (i == 10)
  3460  0CF3  086C               	movf	recive_task@i,w
  3461  0CF4  3A0A               	xorlw	10
  3462  0CF5  1D03               	skipz
  3463  0CF6  2CF9               	goto	l17464
  3464                           
  3465                           ;recive.c: 613: {
  3466                           ;recive.c: 614: KEY1.channel_status = 0;
  3467  0CF7  01A3               	clrf	_KEY1
  3468                           
  3469                           ;recive.c: 615: }
  3470  0CF8  2CFD               	goto	l17468
  3471  0CF9                     l17464:	
  3472                           
  3473                           ;recive.c: 616: else if (i == 11)
  3474  0CF9  086C               	movf	recive_task@i,w
  3475  0CFA  3A0B               	xorlw	11
  3476  0CFB  1903               	btfsc	3,2
  3477                           
  3478                           ;recive.c: 617: {
  3479                           ;recive.c: 618: KEY2.channel_status = 0;
  3480  0CFC  01A6               	clrf	_KEY2
  3481  0CFD                     l17468:	
  3482  0CFD  0AEC               	incf	recive_task@i,f
  3483  0CFE  2CC0               	goto	l17438
  3484  0CFF                     l17472:	
  3485  0CFF  0AEC               	incf	recive_task@i,f
  3486  0D00  2C68               	goto	L4
  3487  0D01                     l17476:	
  3488                           ;recive.c: 627: }
  3489                           ;recive.c: 629: }
  3490                           ;recive.c: 630: }
  3491                           ;recive.c: 632: }
  3492                           
  3493                           
  3494                           ;recive.c: 633: else if (rf_buf[8] == (0x21))
  3495  0D01  0845               	movf	_rf_buf+8,w
  3496  0D02  3A21               	xorlw	33
  3497  0D03  1D03               	skipz
  3498  0D04  2DED               	goto	l17570
  3499                           
  3500                           ;recive.c: 634: {
  3501                           ;recive.c: 635: match_flag = 0;
  3502  0D05  01EA               	clrf	recive_task@match_flag
  3503                           
  3504                           ;recive.c: 636: for(i= 0; i< 12; i++)
  3505  0D06  01EC               	clrf	recive_task@i
  3506  0D07  2D09               	goto	l17480
  3507  0D08                     l17498:	
  3508  0D08  0AEC               	incf	recive_task@i,f
  3509  0D09                     l17480:	
  3510  0D09  300C               	movlw	12
  3511  0D0A  026C               	subwf	recive_task@i,w
  3512  0D0B  1803               	btfsc	3,0
  3513  0D0C  2D50               	goto	l17502
  3514                           
  3515                           ;recive.c: 637: {
  3516                           ;recive.c: 638: if((rf_buf[3] == control_id[i][0])
  3517                           ;recive.c: 639: &&(rf_buf[4] == control_id[i][1])
  3518                           ;recive.c: 640: &&(rf_buf[5] == control_id[i][2])
  3519                           ;recive.c: 641: &&(rf_buf[6] == control_id[i][3]))
  3520  0D0D  3006               	movlw	6
  3521  0D0E  00F3               	movwf	?___bmul
  3522  0D0F  086C               	movf	recive_task@i,w
  3523  0D10  274F  158A         	fcall	___bmul
  3524  0D12  3EA6               	addlw	_control_id& (0+255)
  3525  0D13  0084               	movwf	4
  3526  0D14  0840               	movf	_rf_buf+3,w
  3527  0D15  1383               	bcf	3,7	;select IRP bank1
  3528  0D16  0600               	xorwf	0,w
  3529  0D17  1D03               	skipz
  3530  0D18  2D08               	goto	l17498
  3531  0D19  3006               	movlw	6
  3532  0D1A  00F3               	movwf	?___bmul
  3533  0D1B  086C               	movf	recive_task@i,w
  3534  0D1C  274F  158A         	fcall	___bmul
  3535  0D1E  3EA7               	addlw	(_control_id+1)& (0+255)
  3536  0D1F  0084               	movwf	4
  3537  0D20  0841               	movf	_rf_buf+4,w
  3538  0D21  0600               	xorwf	0,w
  3539  0D22  1D03               	skipz
  3540  0D23  2D08               	goto	l17498
  3541  0D24  3006               	movlw	6
  3542  0D25  00F3               	movwf	?___bmul
  3543  0D26  086C               	movf	recive_task@i,w
  3544  0D27  274F  158A         	fcall	___bmul
  3545  0D29  3EA8               	addlw	(_control_id+2)& (0+255)
  3546  0D2A  0084               	movwf	4
  3547  0D2B  0842               	movf	_rf_buf+5,w
  3548  0D2C  0600               	xorwf	0,w
  3549  0D2D  1D03               	skipz
  3550  0D2E  2D08               	goto	l17498
  3551  0D2F  3006               	movlw	6
  3552  0D30  00F3               	movwf	?___bmul
  3553  0D31  086C               	movf	recive_task@i,w
  3554  0D32  274F  158A         	fcall	___bmul
  3555  0D34  3EA9               	addlw	(_control_id+3)& (0+255)
  3556  0D35  0084               	movwf	4
  3557  0D36  0843               	movf	_rf_buf+6,w
  3558  0D37  0600               	xorwf	0,w
  3559  0D38  1D03               	skipz
  3560  0D39  2D08               	goto	l17498
  3561                           
  3562                           ;recive.c: 642: {
  3563                           ;recive.c: 643: if(rf_buf[2] != control_id[i][5])
  3564  0D3A  3006               	movlw	6
  3565  0D3B  00F3               	movwf	?___bmul
  3566  0D3C  086C               	movf	recive_task@i,w
  3567  0D3D  274F  158A         	fcall	___bmul
  3568  0D3F  3EAB               	addlw	(_control_id+5)& (0+255)
  3569  0D40  0084               	movwf	4
  3570  0D41  083F               	movf	_rf_buf+2,w
  3571  0D42  0600               	xorwf	0,w
  3572  0D43  1903               	skipnz
  3573  0D44  2D50               	goto	l17502
  3574                           
  3575                           ;recive.c: 644: {
  3576                           ;recive.c: 645: control_id[i][5] = rf_buf[2];
  3577  0D45  3006               	movlw	6
  3578  0D46  00F3               	movwf	?___bmul
  3579  0D47  086C               	movf	recive_task@i,w
  3580  0D48  274F  158A         	fcall	___bmul
  3581  0D4A  3EAB               	addlw	(_control_id+5)& (0+255)
  3582  0D4B  0084               	movwf	4
  3583  0D4C  083F               	movf	_rf_buf+2,w
  3584  0D4D  0080               	movwf	0
  3585                           
  3586                           ;recive.c: 646: match_flag = 1;
  3587  0D4E  01EA               	clrf	recive_task@match_flag
  3588  0D4F  0AEA               	incf	recive_task@match_flag,f
  3589  0D50                     l17502:	
  3590                           
  3591                           ;recive.c: 649: }
  3592                           ;recive.c: 650: }
  3593                           ;recive.c: 652: if (match_flag && rf_buf[9] < (6) && rf_buf[10] <= (1) && rf_buf[11] < (
      +                          3))
  3594  0D50  086A               	movf	recive_task@match_flag,w
  3595  0D51  1903               	btfsc	3,2
  3596  0D52  2F46               	goto	l17730
  3597  0D53  3006               	movlw	6
  3598  0D54  0246               	subwf	_rf_buf+9,w
  3599  0D55  1803               	skipnc
  3600  0D56  2F46               	goto	l17730
  3601  0D57  3002               	movlw	2
  3602  0D58  0247               	subwf	_rf_buf+10,w
  3603  0D59  1803               	skipnc
  3604  0D5A  2F46               	goto	l17730
  3605  0D5B  3003               	movlw	3
  3606  0D5C  0248               	subwf	_rf_buf+11,w
  3607  0D5D  1803               	skipnc
  3608  0D5E  2F46               	goto	l17730
  3609  0D5F  3006               	movlw	6
  3610                           
  3611                           ;recive.c: 653: {
  3612                           ;recive.c: 655: if (rf_buf[10] == (0))
  3613  0D60  08C7               	movf	_rf_buf+10,f
  3614                           
  3615                           ;recive.c: 656: {
  3616                           ;recive.c: 657: control_id[9 + rf_buf[11]][4] &= (~ (0x01 << rf_buf[9]));
  3617  0D61  00F3               	movwf	?___bmul
  3618  0D62  1D03               	skipz
  3619  0D63  2D77               	goto	L5
  3620  0D64  0848               	movf	_rf_buf+11,w
  3621  0D65  274F  158A         	fcall	___bmul
  3622  0D67  3EE0               	addlw	(_control_id+58)& (0+255)
  3623  0D68  0084               	movwf	4
  3624  0D69  3001               	movlw	1
  3625  0D6A  00E0               	movwf	??_recive_task
  3626  0D6B  0A46               	incf	_rf_buf+9,w
  3627  0D6C  2D6F               	goto	u6684
  3628  0D6D                     u6685:	
  3629  0D6D  1003               	clrc
  3630  0D6E  0DE0               	rlf	??_recive_task,f
  3631  0D6F                     u6684:	
  3632  0D6F  3EFF               	addlw	-1
  3633  0D70  1D03               	skipz
  3634  0D71  2D6D               	goto	u6685
  3635  0D72  0860               	movf	??_recive_task,w
  3636  0D73  3AFF               	xorlw	255
  3637  0D74  1383               	bcf	3,7	;select IRP bank1
  3638  0D75  0580               	andwf	0,f
  3639                           
  3640                           ;recive.c: 658: }
  3641  0D76  2D88               	goto	l9964
  3642  0D77                     L5:	
  3643                           ;recive.c: 659: else
  3644                           ;recive.c: 660: {
  3645                           ;recive.c: 661: control_id[9 + rf_buf[11]][4] |= ((0x01 << rf_buf[9]));
  3646                           
  3647  0D77  0848               	movf	_rf_buf+11,w
  3648  0D78  274F  158A         	fcall	___bmul
  3649  0D7A  3EE0               	addlw	(_control_id+58)& (0+255)
  3650  0D7B  0084               	movwf	4
  3651  0D7C  3001               	movlw	1
  3652  0D7D  00E0               	movwf	??_recive_task
  3653  0D7E  0A46               	incf	_rf_buf+9,w
  3654  0D7F  2D82               	goto	u6694
  3655  0D80                     u6695:	
  3656  0D80  1003               	clrc
  3657  0D81  0DE0               	rlf	??_recive_task,f
  3658  0D82                     u6694:	
  3659  0D82  3EFF               	addlw	-1
  3660  0D83  1D03               	skipz
  3661  0D84  2D80               	goto	u6695
  3662  0D85  0860               	movf	??_recive_task,w
  3663  0D86  1383               	bcf	3,7	;select IRP bank1
  3664  0D87  0480               	iorwf	0,f
  3665  0D88                     l9964:	
  3666                           
  3667                           ;recive.c: 662: }
  3668                           ;recive.c: 664: AT24C02_Write_Msg(9 * 6 + rf_buf[11] * 6 + 4, &control_id[9 + rf_buf[11]
      +                          ][4], 1);
  3669  0D88  3006               	movlw	6
  3670  0D89  00F3               	movwf	?___bmul
  3671  0D8A  0848               	movf	_rf_buf+11,w
  3672  0D8B  274F  158A         	fcall	___bmul
  3673  0D8D  3EE0               	addlw	(_control_id+58)& (0+255)
  3674  0D8E  00D4               	movwf	?_AT24C02_Write_Msg
  3675  0D8F  3006               	movlw	6
  3676  0D90  01D5               	clrf	?_AT24C02_Write_Msg+1
  3677  0D91  0AD5               	incf	?_AT24C02_Write_Msg+1,f
  3678  0D92  00F3               	movwf	?___bmul
  3679  0D93  0848               	movf	_rf_buf+11,w
  3680  0D94  274F  158A         	fcall	___bmul
  3681  0D96  3E3A               	addlw	58
  3682  0D97  277A  158A         	fcall	_AT24C02_Write_Msg
  3683                           
  3684                           ;recive.c: 665: soft_delay_ms(1);
  3685  0D99  01F3               	clrf	?_soft_delay_ms
  3686  0D9A  0AF3               	incf	?_soft_delay_ms,f
  3687  0D9B  01F4               	clrf	?_soft_delay_ms+1
  3688  0D9C  275D  158A         	fcall	_soft_delay_ms
  3689                           
  3690                           ;recive.c: 668: for(i = 0; i < 12; i++)
  3691  0D9E  01EC               	clrf	recive_task@i
  3692  0D9F                     l17520:	
  3693  0D9F  300C               	movlw	12
  3694  0DA0  026C               	subwf	recive_task@i,w
  3695  0DA1  1803               	btfsc	3,0
  3696  0DA2  2DB4               	goto	l17530
  3697                           
  3698                           ;recive.c: 669: {
  3699                           ;recive.c: 670: AT24C02_Read_Msg(i * 6, control_id[i], 6);
  3700  0DA3  3006               	movlw	6
  3701  0DA4  00F3               	movwf	?___bmul
  3702  0DA5  086C               	movf	recive_task@i,w
  3703  0DA6  274F  158A         	fcall	___bmul
  3704  0DA8  3EA6               	addlw	_control_id& (0+255)
  3705  0DA9  00D6               	movwf	?_AT24C02_Read_Msg
  3706  0DAA  3006               	movlw	6
  3707  0DAB  00D7               	movwf	?_AT24C02_Read_Msg+1
  3708  0DAC  00F3               	movwf	?___bmul
  3709  0DAD  086C               	movf	recive_task@i,w
  3710  0DAE  274F  158A         	fcall	___bmul
  3711  0DB0  2793  158A         	fcall	_AT24C02_Read_Msg
  3712  0DB2  0AEC               	incf	recive_task@i,f
  3713  0DB3  2D9F               	goto	l17520
  3714  0DB4                     l17530:	
  3715                           
  3716                           ;recive.c: 671: }
  3717                           ;recive.c: 672: AT24C02_Read_Msg(110, &channel_flag, 1);
  3718  0DB4  304F               	movlw	_channel_flag& (0+255)
  3719  0DB5  00D6               	movwf	?_AT24C02_Read_Msg
  3720  0DB6  306E               	movlw	110
  3721  0DB7  01D7               	clrf	?_AT24C02_Read_Msg+1
  3722  0DB8  0AD7               	incf	?_AT24C02_Read_Msg+1,f
  3723  0DB9  2793  158A         	fcall	_AT24C02_Read_Msg
  3724                           
  3725                           ;recive.c: 675: if (rf_buf[10] == (1))
  3726  0DBB  0B47               	decfsz	_rf_buf+10,w
  3727  0DBC  2DCF               	goto	l17546
  3728                           
  3729                           ;recive.c: 676: {
  3730                           ;recive.c: 677: if (0 == rf_buf[11])
  3731  0DBD  08C8               	movf	_rf_buf+11,f
  3732  0DBE  1D03               	skipz
  3733  0DBF  2DC3               	goto	l17538
  3734                           
  3735                           ;recive.c: 678: {
  3736                           ;recive.c: 679: KEY0.channel_status = 1;
  3737  0DC0  01A0               	clrf	_KEY0
  3738  0DC1  0AA0               	incf	_KEY0,f
  3739                           
  3740                           ;recive.c: 680: }
  3741  0DC2  2DDF               	goto	l17560
  3742  0DC3                     l17538:	
  3743                           
  3744                           ;recive.c: 681: else if (1 == rf_buf[11])
  3745  0DC3  0B48               	decfsz	_rf_buf+11,w
  3746  0DC4  2DC8               	goto	l17542
  3747                           
  3748                           ;recive.c: 682: {
  3749                           ;recive.c: 683: KEY1.channel_status = 1;
  3750  0DC5  01A3               	clrf	_KEY1
  3751  0DC6  0AA3               	incf	_KEY1,f
  3752                           
  3753                           ;recive.c: 684: }
  3754  0DC7  2DDF               	goto	l17560
  3755  0DC8                     l17542:	
  3756                           
  3757                           ;recive.c: 685: else if (2 == rf_buf[11])
  3758  0DC8  0848               	movf	_rf_buf+11,w
  3759  0DC9  3A02               	xorlw	2
  3760  0DCA  1D03               	skipz
  3761  0DCB  2DDF               	goto	l17560
  3762                           
  3763                           ;recive.c: 686: {
  3764                           ;recive.c: 687: KEY2.channel_status = 1;
  3765  0DCC  01A6               	clrf	_KEY2
  3766  0DCD  0AA6               	incf	_KEY2,f
  3767                           
  3768                           ;recive.c: 688: }
  3769                           ;recive.c: 689: }
  3770  0DCE  2DDF               	goto	l17560
  3771  0DCF                     l17546:	
  3772                           
  3773                           ;recive.c: 690: else if (rf_buf[10] == (0))
  3774  0DCF  08C7               	movf	_rf_buf+10,f
  3775  0DD0  1D03               	skipz
  3776  0DD1  2DDF               	goto	l17560
  3777                           
  3778                           ;recive.c: 691: {
  3779                           ;recive.c: 692: if (0 == rf_buf[11])
  3780  0DD2  08C8               	movf	_rf_buf+11,f
  3781  0DD3  1D03               	skipz
  3782  0DD4  2DD7               	goto	l17552
  3783                           
  3784                           ;recive.c: 693: {
  3785                           ;recive.c: 694: KEY0.channel_status = 0;
  3786  0DD5  01A0               	clrf	_KEY0
  3787                           
  3788                           ;recive.c: 695: }
  3789  0DD6  2DDF               	goto	l17560
  3790  0DD7                     l17552:	
  3791                           
  3792                           ;recive.c: 696: else if (1 == rf_buf[11])
  3793  0DD7  0B48               	decfsz	_rf_buf+11,w
  3794  0DD8  2DDB               	goto	l17556
  3795                           
  3796                           ;recive.c: 697: {
  3797                           ;recive.c: 698: KEY1.channel_status = 0;
  3798  0DD9  01A3               	clrf	_KEY1
  3799                           
  3800                           ;recive.c: 699: }
  3801  0DDA  2DDF               	goto	l17560
  3802  0DDB                     l17556:	
  3803                           
  3804                           ;recive.c: 700: else if (2 == rf_buf[11])
  3805  0DDB  0848               	movf	_rf_buf+11,w
  3806  0DDC  3A02               	xorlw	2
  3807  0DDD  1903               	btfsc	3,2
  3808                           
  3809                           ;recive.c: 701: {
  3810                           ;recive.c: 702: KEY2.channel_status = 0;
  3811  0DDE  01A6               	clrf	_KEY2
  3812  0DDF                     l17560:	
  3813                           
  3814                           ;recive.c: 703: }
  3815                           ;recive.c: 704: }
  3816                           ;recive.c: 706: (TRISC0=0,RC0=0);
  3817  0DDF  1683               	bsf	3,5	;RP0=1, select bank1
  3818  0DE0  1007               	bcf	7,0
  3819  0DE1  1283               	bcf	3,5	;RP0=0, select bank0
  3820  0DE2  3064               	movlw	100
  3821  0DE3  1007               	bcf	7,0
  3822                           
  3823                           ;recive.c: 707: soft_delay_ms(100);
  3824  0DE4  00F3               	movwf	?_soft_delay_ms
  3825  0DE5  01F4               	clrf	?_soft_delay_ms+1
  3826  0DE6  275D  158A         	fcall	_soft_delay_ms
  3827                           
  3828                           ;recive.c: 708: (TRISC0=0,RC0=1);
  3829  0DE8  1683               	bsf	3,5	;RP0=1, select bank1
  3830  0DE9  1007               	bcf	7,0
  3831  0DEA  1283               	bcf	3,5	;RP0=0, select bank0
  3832  0DEB  1407               	bsf	7,0
  3833  0DEC  2F46               	goto	l17730
  3834  0DED                     l17570:	
  3835                           
  3836                           ;recive.c: 712: else if (rf_buf[8] == (0x10))
  3837  0DED  0845               	movf	_rf_buf+8,w
  3838  0DEE  3A10               	xorlw	16
  3839  0DEF  1D03               	skipz
  3840  0DF0  2F46               	goto	l17730
  3841                           
  3842                           ;recive.c: 713: {
  3843                           ;recive.c: 714: if(rf_buf[10] != 0xff)
  3844  0DF1  0847               	movf	_rf_buf+10,w
  3845  0DF2  3AFF               	xorlw	255
  3846  0DF3  1903               	skipnz
  3847  0DF4  2EA3               	goto	l17652
  3848                           
  3849                           ;recive.c: 715: {
  3850                           ;recive.c: 716: for(i=0; i<9; i++)
  3851  0DF5  01EC               	clrf	recive_task@i
  3852  0DF6                     l17576:	
  3853  0DF6  3009               	movlw	9
  3854  0DF7  026C               	subwf	recive_task@i,w
  3855  0DF8  1803               	btfsc	3,0
  3856  0DF9  2F46               	goto	l17730
  3857                           
  3858                           ;recive.c: 717: {
  3859                           ;recive.c: 718: if((rf_buf[3] == control_id[i][0])
  3860                           ;recive.c: 719: &&(rf_buf[4] == control_id[i][1])
  3861                           ;recive.c: 720: &&(rf_buf[5] == control_id[i][2])
  3862                           ;recive.c: 721: &&(rf_buf[6] == control_id[i][3]))
  3863  0DFA  3006               	movlw	6
  3864  0DFB  00F3               	movwf	?___bmul
  3865  0DFC  086C               	movf	recive_task@i,w
  3866  0DFD  274F  158A         	fcall	___bmul
  3867  0DFF  3EA6               	addlw	_control_id& (0+255)
  3868  0E00  0084               	movwf	4
  3869  0E01  0840               	movf	_rf_buf+3,w
  3870  0E02  1383               	bcf	3,7	;select IRP bank1
  3871  0E03  0600               	xorwf	0,w
  3872  0E04  1D03               	skipz
  3873  0E05  2EA1               	goto	l17648
  3874  0E06  3006               	movlw	6
  3875  0E07  00F3               	movwf	?___bmul
  3876  0E08  086C               	movf	recive_task@i,w
  3877  0E09  274F  158A         	fcall	___bmul
  3878  0E0B  3EA7               	addlw	(_control_id+1)& (0+255)
  3879  0E0C  0084               	movwf	4
  3880  0E0D  0841               	movf	_rf_buf+4,w
  3881  0E0E  0600               	xorwf	0,w
  3882  0E0F  1D03               	skipz
  3883  0E10  2EA1               	goto	l17648
  3884  0E11  3006               	movlw	6
  3885  0E12  00F3               	movwf	?___bmul
  3886  0E13  086C               	movf	recive_task@i,w
  3887  0E14  274F  158A         	fcall	___bmul
  3888  0E16  3EA8               	addlw	(_control_id+2)& (0+255)
  3889  0E17  0084               	movwf	4
  3890  0E18  0842               	movf	_rf_buf+5,w
  3891  0E19  0600               	xorwf	0,w
  3892  0E1A  1D03               	skipz
  3893  0E1B  2EA1               	goto	l17648
  3894  0E1C  3006               	movlw	6
  3895  0E1D  00F3               	movwf	?___bmul
  3896  0E1E  086C               	movf	recive_task@i,w
  3897  0E1F  274F  158A         	fcall	___bmul
  3898  0E21  3EA9               	addlw	(_control_id+3)& (0+255)
  3899  0E22  0084               	movwf	4
  3900  0E23  0843               	movf	_rf_buf+6,w
  3901  0E24  0600               	xorwf	0,w
  3902  0E25  1D03               	skipz
  3903  0E26  2EA1               	goto	l17648
  3904                           
  3905                           ;recive.c: 722: {
  3906                           ;recive.c: 723: if(rf_buf[2] != control_id[i][5])
  3907  0E27  3006               	movlw	6
  3908  0E28  00F3               	movwf	?___bmul
  3909  0E29  086C               	movf	recive_task@i,w
  3910  0E2A  274F  158A         	fcall	___bmul
  3911  0E2C  3EAB               	addlw	(_control_id+5)& (0+255)
  3912  0E2D  0084               	movwf	4
  3913  0E2E  083F               	movf	_rf_buf+2,w
  3914  0E2F  0600               	xorwf	0,w
  3915  0E30  1903               	skipnz
  3916  0E31  2EA1               	goto	l17648
  3917                           
  3918                           ;recive.c: 724: {
  3919                           ;recive.c: 725: control_id[i][5] = rf_buf[2];
  3920  0E32  3006               	movlw	6
  3921  0E33  00F3               	movwf	?___bmul
  3922  0E34  086C               	movf	recive_task@i,w
  3923  0E35  274F  158A         	fcall	___bmul
  3924  0E37  3EAB               	addlw	(_control_id+5)& (0+255)
  3925  0E38  0084               	movwf	4
  3926  0E39  083F               	movf	_rf_buf+2,w
  3927  0E3A  0080               	movwf	0
  3928                           
  3929                           ;recive.c: 726: if(rf_buf[10] == control_id[i][4])
  3930  0E3B  3006               	movlw	6
  3931  0E3C  00F3               	movwf	?___bmul
  3932  0E3D  086C               	movf	recive_task@i,w
  3933  0E3E  274F  158A         	fcall	___bmul
  3934  0E40  3EAA               	addlw	(_control_id+4)& (0+255)
  3935  0E41  0084               	movwf	4
  3936  0E42  0847               	movf	_rf_buf+10,w
  3937  0E43  0600               	xorwf	0,w
  3938  0E44  1D03               	skipz
  3939  0E45  2EA1               	goto	l17648
  3940                           
  3941                           ;recive.c: 727: {
  3942                           ;recive.c: 728: if(flag == 0)
  3943  0E46  08EB               	movf	recive_task@flag,f
  3944  0E47  1D03               	skipz
  3945  0E48  2E58               	goto	l17602
  3946                           
  3947                           ;recive.c: 729: {
  3948                           ;recive.c: 730: flag = 1;
  3949  0E49  01EB               	clrf	recive_task@flag
  3950  0E4A  0AEB               	incf	recive_task@flag,f
  3951                           
  3952                           ;recive.c: 731: (TRISC0=0,RC0=0);
  3953  0E4B  1683               	bsf	3,5	;RP0=1, select bank1
  3954  0E4C  1007               	bcf	7,0
  3955  0E4D  1283               	bcf	3,5	;RP0=0, select bank0
  3956  0E4E  3064               	movlw	100
  3957  0E4F  1007               	bcf	7,0
  3958                           
  3959                           ;recive.c: 732: soft_delay_ms(100);
  3960  0E50  00F3               	movwf	?_soft_delay_ms
  3961  0E51  01F4               	clrf	?_soft_delay_ms+1
  3962  0E52  275D  158A         	fcall	_soft_delay_ms
  3963                           
  3964                           ;recive.c: 733: (TRISC0=0,RC0=1);
  3965  0E54  1683               	bsf	3,5	;RP0=1, select bank1
  3966  0E55  1007               	bcf	7,0
  3967  0E56  1283               	bcf	3,5	;RP0=0, select bank0
  3968  0E57  1407               	bsf	7,0
  3969  0E58                     l17602:	
  3970                           
  3971                           ;recive.c: 734: }
  3972                           ;recive.c: 736: if(rf_buf[11] == 0)
  3973  0E58  08C8               	movf	_rf_buf+11,f
  3974  0E59  1D03               	skipz
  3975  0E5A  2E8A               	goto	l17632
  3976                           
  3977                           ;recive.c: 737: {
  3978                           ;recive.c: 738: if(i < 3)
  3979  0E5B  3003               	movlw	3
  3980  0E5C  026C               	subwf	recive_task@i,w
  3981  0E5D  1803               	skipnc
  3982  0E5E  2E6C               	goto	l17614
  3983                           
  3984                           ;recive.c: 739: {
  3985                           ;recive.c: 740: if((KEY0_FLAG == 0))
  3986  0E5F  08F6               	movf	_KEY0_FLAG,f
  3987  0E60  1D03               	skipz
  3988  0E61  2EA1               	goto	l17648
  3989                           
  3990                           ;recive.c: 741: {
  3991                           ;recive.c: 742: if(rf_buf[9] == 2)
  3992  0E62  0846               	movf	_rf_buf+9,w
  3993  0E63  3A02               	xorlw	2
  3994  0E64  1D03               	skipz
  3995  0E65  2E69               	goto	l17612
  3996                           
  3997                           ;recive.c: 743: KEY0.channel_status ^= 1;
  3998  0E66  3001               	movlw	1
  3999  0E67  06A0               	xorwf	_KEY0,f
  4000  0E68  2EA1               	goto	l17648
  4001  0E69                     l17612:	
  4002                           
  4003                           ;recive.c: 744: else
  4004                           ;recive.c: 745: KEY0.channel_status = rf_buf[9];
  4005  0E69  0846               	movf	_rf_buf+9,w
  4006  0E6A  00A0               	movwf	_KEY0
  4007  0E6B  2EA1               	goto	l17648
  4008  0E6C                     l17614:	
  4009                           
  4010                           ;recive.c: 748: else if(i < 6)
  4011  0E6C  3006               	movlw	6
  4012  0E6D  026C               	subwf	recive_task@i,w
  4013  0E6E  1803               	skipnc
  4014  0E6F  2E7D               	goto	l17624
  4015                           
  4016                           ;recive.c: 749: {
  4017                           ;recive.c: 750: if((KEY1_FLAG == 0))
  4018  0E70  08F7               	movf	_KEY1_FLAG,f
  4019  0E71  1D03               	skipz
  4020  0E72  2EA1               	goto	l17648
  4021                           
  4022                           ;recive.c: 751: {
  4023                           ;recive.c: 752: if(rf_buf[9] == 2)
  4024  0E73  0846               	movf	_rf_buf+9,w
  4025  0E74  3A02               	xorlw	2
  4026  0E75  1D03               	skipz
  4027  0E76  2E7A               	goto	l17622
  4028                           
  4029                           ;recive.c: 753: KEY1.channel_status ^= 1;
  4030  0E77  3001               	movlw	1
  4031  0E78  06A3               	xorwf	_KEY1,f
  4032  0E79  2EA1               	goto	l17648
  4033  0E7A                     l17622:	
  4034                           
  4035                           ;recive.c: 754: else
  4036                           ;recive.c: 755: KEY1.channel_status = rf_buf[9];
  4037  0E7A  0846               	movf	_rf_buf+9,w
  4038  0E7B  00A3               	movwf	_KEY1
  4039  0E7C  2EA1               	goto	l17648
  4040  0E7D                     l17624:	
  4041                           
  4042                           ;recive.c: 759: else
  4043                           ;recive.c: 760: {
  4044                           ;recive.c: 761: if((KEY2_FLAG == 0))
  4045  0E7D  08F8               	movf	_KEY2_FLAG,f
  4046  0E7E  1D03               	skipz
  4047  0E7F  2EA1               	goto	l17648
  4048                           
  4049                           ;recive.c: 762: {
  4050                           ;recive.c: 763: if(rf_buf[9] == 2)
  4051  0E80  0846               	movf	_rf_buf+9,w
  4052  0E81  3A02               	xorlw	2
  4053  0E82  1D03               	skipz
  4054  0E83  2E87               	goto	l17630
  4055                           
  4056                           ;recive.c: 764: KEY2.channel_status ^= 1;
  4057  0E84  3001               	movlw	1
  4058  0E85  06A6               	xorwf	_KEY2,f
  4059  0E86  2EA1               	goto	l17648
  4060  0E87                     l17630:	
  4061                           
  4062                           ;recive.c: 765: else
  4063                           ;recive.c: 766: KEY2.channel_status = rf_buf[9];
  4064  0E87  0846               	movf	_rf_buf+9,w
  4065  0E88  00A6               	movwf	_KEY2
  4066  0E89  2EA1               	goto	l17648
  4067  0E8A                     l17632:	
  4068                           
  4069                           ;recive.c: 770: else
  4070                           ;recive.c: 771: {
  4071                           ;recive.c: 772: flag_5min_add = 0;
  4072  0E8A  01B0               	clrf	_flag_5min_add
  4073  0E8B  01B1               	clrf	_flag_5min_add+1
  4074                           
  4075                           ;recive.c: 773: if(delay_flag == 1)
  4076  0E8C  0B3B               	decfsz	_delay_flag,w
  4077  0E8D  2E90               	goto	l17638
  4078                           
  4079                           ;recive.c: 774: {
  4080                           ;recive.c: 775: channel_delay[0] = 0;
  4081  0E8E  01A9               	clrf	_channel_delay
  4082                           
  4083                           ;recive.c: 776: delay_flag = 0;
  4084  0E8F  01BB               	clrf	_delay_flag
  4085  0E90                     l17638:	
  4086                           
  4087                           ;recive.c: 777: }
  4088                           ;recive.c: 778: if(i < 3)
  4089  0E90  3003               	movlw	3
  4090  0E91  026C               	subwf	recive_task@i,w
  4091  0E92  1803               	skipnc
  4092  0E93  2E96               	goto	l17642
  4093                           
  4094                           ;recive.c: 779: {
  4095                           ;recive.c: 780: channel_delay[0] |= 0x01;
  4096  0E94  1429               	bsf	_channel_delay,0
  4097                           
  4098                           ;recive.c: 781: }
  4099  0E95  2E9D               	goto	l17646
  4100  0E96                     l17642:	
  4101                           
  4102                           ;recive.c: 782: else if(i < 6)
  4103  0E96  3006               	movlw	6
  4104  0E97  026C               	subwf	recive_task@i,w
  4105  0E98  1803               	skipnc
  4106  0E99  2E9C               	goto	l10007
  4107                           
  4108                           ;recive.c: 783: {
  4109                           ;recive.c: 784: channel_delay[0] |= 0x02;
  4110  0E9A  14A9               	bsf	_channel_delay,1
  4111                           
  4112                           ;recive.c: 785: }
  4113  0E9B  2E9D               	goto	l17646
  4114  0E9C                     l10007:	
  4115                           
  4116                           ;recive.c: 786: else
  4117                           ;recive.c: 787: {
  4118                           ;recive.c: 788: channel_delay[0] |= 0x04;
  4119  0E9C  1529               	bsf	_channel_delay,2
  4120  0E9D                     l17646:	
  4121                           
  4122                           ;recive.c: 789: }
  4123                           ;recive.c: 790: channel_delay[1] = rf_buf[9];
  4124  0E9D  0846               	movf	_rf_buf+9,w
  4125  0E9E  00AA               	movwf	_channel_delay+1
  4126                           
  4127                           ;recive.c: 791: channel_delay[2] = rf_buf[11];
  4128  0E9F  0848               	movf	_rf_buf+11,w
  4129  0EA0  00AB               	movwf	_channel_delay+2
  4130  0EA1                     l17648:	
  4131  0EA1  0AEC               	incf	recive_task@i,f
  4132  0EA2  2DF6               	goto	l17576
  4133  0EA3                     l17652:	
  4134                           
  4135                           ;recive.c: 799: else
  4136                           ;recive.c: 800: {
  4137                           ;recive.c: 801: for(i = 0; i < 9; i++)
  4138  0EA3  01EC               	clrf	recive_task@i
  4139  0EA4                     l17654:	
  4140  0EA4  3009               	movlw	9
  4141  0EA5  026C               	subwf	recive_task@i,w
  4142  0EA6  1803               	btfsc	3,0
  4143  0EA7  2F46               	goto	l17730
  4144                           
  4145                           ;recive.c: 802: {
  4146                           ;recive.c: 803: if((rf_buf[3] == control_id[i][0])
  4147                           ;recive.c: 804: &&(rf_buf[4] == control_id[i][1])
  4148                           ;recive.c: 805: &&(rf_buf[5] == control_id[i][2])
  4149                           ;recive.c: 806: &&(rf_buf[6] == control_id[i][3]))
  4150  0EA8  3006               	movlw	6
  4151  0EA9  00F3               	movwf	?___bmul
  4152  0EAA  086C               	movf	recive_task@i,w
  4153  0EAB  274F  158A         	fcall	___bmul
  4154  0EAD  3EA6               	addlw	_control_id& (0+255)
  4155  0EAE  0084               	movwf	4
  4156  0EAF  0840               	movf	_rf_buf+3,w
  4157  0EB0  1383               	bcf	3,7	;select IRP bank1
  4158  0EB1  0600               	xorwf	0,w
  4159  0EB2  1D03               	skipz
  4160  0EB3  2F44               	goto	l17726
  4161  0EB4  3006               	movlw	6
  4162  0EB5  00F3               	movwf	?___bmul
  4163  0EB6  086C               	movf	recive_task@i,w
  4164  0EB7  274F  158A         	fcall	___bmul
  4165  0EB9  3EA7               	addlw	(_control_id+1)& (0+255)
  4166  0EBA  0084               	movwf	4
  4167  0EBB  0841               	movf	_rf_buf+4,w
  4168  0EBC  0600               	xorwf	0,w
  4169  0EBD  1D03               	skipz
  4170  0EBE  2F44               	goto	l17726
  4171  0EBF  3006               	movlw	6
  4172  0EC0  00F3               	movwf	?___bmul
  4173  0EC1  086C               	movf	recive_task@i,w
  4174  0EC2  274F  158A         	fcall	___bmul
  4175  0EC4  3EA8               	addlw	(_control_id+2)& (0+255)
  4176  0EC5  0084               	movwf	4
  4177  0EC6  0842               	movf	_rf_buf+5,w
  4178  0EC7  0600               	xorwf	0,w
  4179  0EC8  1D03               	skipz
  4180  0EC9  2F44               	goto	l17726
  4181  0ECA  3006               	movlw	6
  4182  0ECB  00F3               	movwf	?___bmul
  4183  0ECC  086C               	movf	recive_task@i,w
  4184  0ECD  274F  158A         	fcall	___bmul
  4185  0ECF  3EA9               	addlw	(_control_id+3)& (0+255)
  4186  0ED0  0084               	movwf	4
  4187  0ED1  0843               	movf	_rf_buf+6,w
  4188  0ED2  0600               	xorwf	0,w
  4189  0ED3  1D03               	skipz
  4190  0ED4  2F44               	goto	l17726
  4191                           
  4192                           ;recive.c: 807: {
  4193                           ;recive.c: 808: if((rf_buf[2] != control_id[i][5]))
  4194  0ED5  3006               	movlw	6
  4195  0ED6  00F3               	movwf	?___bmul
  4196  0ED7  086C               	movf	recive_task@i,w
  4197  0ED8  274F  158A         	fcall	___bmul
  4198  0EDA  3EAB               	addlw	(_control_id+5)& (0+255)
  4199  0EDB  0084               	movwf	4
  4200  0EDC  083F               	movf	_rf_buf+2,w
  4201  0EDD  0600               	xorwf	0,w
  4202  0EDE  1903               	skipnz
  4203  0EDF  2F44               	goto	l17726
  4204                           
  4205                           ;recive.c: 809: {
  4206                           ;recive.c: 810: control_id[i][5] = rf_buf[2];
  4207  0EE0  3006               	movlw	6
  4208  0EE1  00F3               	movwf	?___bmul
  4209  0EE2  086C               	movf	recive_task@i,w
  4210  0EE3  274F  158A         	fcall	___bmul
  4211  0EE5  3EAB               	addlw	(_control_id+5)& (0+255)
  4212  0EE6  0084               	movwf	4
  4213  0EE7  083F               	movf	_rf_buf+2,w
  4214  0EE8  0080               	movwf	0
  4215                           
  4216                           ;recive.c: 811: if(flag == 0)
  4217  0EE9  08EB               	movf	recive_task@flag,f
  4218  0EEA  1D03               	skipz
  4219  0EEB  2EFB               	goto	l17680
  4220                           
  4221                           ;recive.c: 812: {
  4222                           ;recive.c: 813: flag = 1;
  4223  0EEC  01EB               	clrf	recive_task@flag
  4224  0EED  0AEB               	incf	recive_task@flag,f
  4225                           
  4226                           ;recive.c: 814: (TRISC0=0,RC0=0);
  4227  0EEE  1683               	bsf	3,5	;RP0=1, select bank1
  4228  0EEF  1007               	bcf	7,0
  4229  0EF0  1283               	bcf	3,5	;RP0=0, select bank0
  4230  0EF1  3064               	movlw	100
  4231  0EF2  1007               	bcf	7,0
  4232                           
  4233                           ;recive.c: 815: soft_delay_ms(100);
  4234  0EF3  00F3               	movwf	?_soft_delay_ms
  4235  0EF4  01F4               	clrf	?_soft_delay_ms+1
  4236  0EF5  275D  158A         	fcall	_soft_delay_ms
  4237                           
  4238                           ;recive.c: 816: (TRISC0=0,RC0=1);
  4239  0EF7  1683               	bsf	3,5	;RP0=1, select bank1
  4240  0EF8  1007               	bcf	7,0
  4241  0EF9  1283               	bcf	3,5	;RP0=0, select bank0
  4242  0EFA  1407               	bsf	7,0
  4243  0EFB                     l17680:	
  4244                           
  4245                           ;recive.c: 817: }
  4246                           ;recive.c: 818: if((rf_buf[11] == 0))
  4247  0EFB  08C8               	movf	_rf_buf+11,f
  4248  0EFC  1D03               	skipz
  4249  0EFD  2F2D               	goto	l17710
  4250                           
  4251                           ;recive.c: 819: {
  4252                           ;recive.c: 820: if(i < 3)
  4253  0EFE  3003               	movlw	3
  4254  0EFF  026C               	subwf	recive_task@i,w
  4255  0F00  1803               	skipnc
  4256  0F01  2F0F               	goto	l17692
  4257                           
  4258                           ;recive.c: 821: {
  4259                           ;recive.c: 822: if((KEY0_FLAG == 0))
  4260  0F02  08F6               	movf	_KEY0_FLAG,f
  4261  0F03  1D03               	skipz
  4262  0F04  2F44               	goto	l17726
  4263                           
  4264                           ;recive.c: 823: {
  4265                           ;recive.c: 824: if(rf_buf[9] == 2)
  4266  0F05  0846               	movf	_rf_buf+9,w
  4267  0F06  3A02               	xorlw	2
  4268  0F07  1D03               	skipz
  4269  0F08  2F0C               	goto	l17690
  4270                           
  4271                           ;recive.c: 825: KEY0.channel_status ^= 1;
  4272  0F09  3001               	movlw	1
  4273  0F0A  06A0               	xorwf	_KEY0,f
  4274  0F0B  2F44               	goto	l17726
  4275  0F0C                     l17690:	
  4276                           
  4277                           ;recive.c: 826: else
  4278                           ;recive.c: 827: KEY0.channel_status = rf_buf[9];
  4279  0F0C  0846               	movf	_rf_buf+9,w
  4280  0F0D  00A0               	movwf	_KEY0
  4281  0F0E  2F44               	goto	l17726
  4282  0F0F                     l17692:	
  4283                           
  4284                           ;recive.c: 830: else if(i < 6)
  4285  0F0F  3006               	movlw	6
  4286  0F10  026C               	subwf	recive_task@i,w
  4287  0F11  1803               	skipnc
  4288  0F12  2F20               	goto	l17702
  4289                           
  4290                           ;recive.c: 831: {
  4291                           ;recive.c: 832: if((KEY1_FLAG == 0))
  4292  0F13  08F7               	movf	_KEY1_FLAG,f
  4293  0F14  1D03               	skipz
  4294  0F15  2F44               	goto	l17726
  4295                           
  4296                           ;recive.c: 833: {
  4297                           ;recive.c: 834: if(rf_buf[9] == 2)
  4298  0F16  0846               	movf	_rf_buf+9,w
  4299  0F17  3A02               	xorlw	2
  4300  0F18  1D03               	skipz
  4301  0F19  2F1D               	goto	l17700
  4302                           
  4303                           ;recive.c: 835: KEY1.channel_status ^= 1;
  4304  0F1A  3001               	movlw	1
  4305  0F1B  06A3               	xorwf	_KEY1,f
  4306  0F1C  2F44               	goto	l17726
  4307  0F1D                     l17700:	
  4308                           
  4309                           ;recive.c: 836: else
  4310                           ;recive.c: 837: KEY1.channel_status = rf_buf[9];
  4311  0F1D  0846               	movf	_rf_buf+9,w
  4312  0F1E  00A3               	movwf	_KEY1
  4313  0F1F  2F44               	goto	l17726
  4314  0F20                     l17702:	
  4315                           
  4316                           ;recive.c: 840: else
  4317                           ;recive.c: 841: {
  4318                           ;recive.c: 842: if((KEY2_FLAG == 0))
  4319  0F20  08F8               	movf	_KEY2_FLAG,f
  4320  0F21  1D03               	skipz
  4321  0F22  2F44               	goto	l17726
  4322                           
  4323                           ;recive.c: 843: {
  4324                           ;recive.c: 844: if(rf_buf[9] == 2)
  4325  0F23  0846               	movf	_rf_buf+9,w
  4326  0F24  3A02               	xorlw	2
  4327  0F25  1D03               	skipz
  4328  0F26  2F2A               	goto	l17708
  4329                           
  4330                           ;recive.c: 845: KEY2.channel_status ^= 1;
  4331  0F27  3001               	movlw	1
  4332  0F28  06A6               	xorwf	_KEY2,f
  4333  0F29  2F44               	goto	l17726
  4334  0F2A                     l17708:	
  4335                           
  4336                           ;recive.c: 846: else
  4337                           ;recive.c: 847: KEY2.channel_status = rf_buf[9];
  4338  0F2A  0846               	movf	_rf_buf+9,w
  4339  0F2B  00A6               	movwf	_KEY2
  4340  0F2C  2F44               	goto	l17726
  4341  0F2D                     l17710:	
  4342                           
  4343                           ;recive.c: 851: else
  4344                           ;recive.c: 852: {
  4345                           ;recive.c: 853: flag_5min_add = 0;
  4346  0F2D  01B0               	clrf	_flag_5min_add
  4347  0F2E  01B1               	clrf	_flag_5min_add+1
  4348                           
  4349                           ;recive.c: 854: if(delay_flag == 1)
  4350  0F2F  0B3B               	decfsz	_delay_flag,w
  4351  0F30  2F33               	goto	l17716
  4352                           
  4353                           ;recive.c: 855: {
  4354                           ;recive.c: 856: channel_delay[0] = 0;
  4355  0F31  01A9               	clrf	_channel_delay
  4356                           
  4357                           ;recive.c: 857: delay_flag = 0;
  4358  0F32  01BB               	clrf	_delay_flag
  4359  0F33                     l17716:	
  4360                           
  4361                           ;recive.c: 858: }
  4362                           ;recive.c: 859: if(i < 3)
  4363  0F33  3003               	movlw	3
  4364  0F34  026C               	subwf	recive_task@i,w
  4365  0F35  1803               	skipnc
  4366  0F36  2F39               	goto	l17720
  4367                           
  4368                           ;recive.c: 860: {
  4369                           ;recive.c: 861: channel_delay[0] |= 0x01;
  4370  0F37  1429               	bsf	_channel_delay,0
  4371                           
  4372                           ;recive.c: 862: }
  4373  0F38  2F40               	goto	l17724
  4374  0F39                     l17720:	
  4375                           
  4376                           ;recive.c: 863: else if(i<6)
  4377  0F39  3006               	movlw	6
  4378  0F3A  026C               	subwf	recive_task@i,w
  4379  0F3B  1803               	skipnc
  4380  0F3C  2F3F               	goto	l10033
  4381                           
  4382                           ;recive.c: 864: {
  4383                           ;recive.c: 865: channel_delay[0] |= 0x02;
  4384  0F3D  14A9               	bsf	_channel_delay,1
  4385                           
  4386                           ;recive.c: 866: }
  4387  0F3E  2F40               	goto	l17724
  4388  0F3F                     l10033:	
  4389                           
  4390                           ;recive.c: 867: else
  4391                           ;recive.c: 868: {
  4392                           ;recive.c: 869: channel_delay[0] |= 0x04;
  4393  0F3F  1529               	bsf	_channel_delay,2
  4394  0F40                     l17724:	
  4395                           
  4396                           ;recive.c: 870: }
  4397                           ;recive.c: 871: channel_delay[1] = rf_buf[9];
  4398  0F40  0846               	movf	_rf_buf+9,w
  4399  0F41  00AA               	movwf	_channel_delay+1
  4400                           
  4401                           ;recive.c: 872: channel_delay[2] = rf_buf[11];
  4402  0F42  0848               	movf	_rf_buf+11,w
  4403  0F43  00AB               	movwf	_channel_delay+2
  4404  0F44                     l17726:	
  4405  0F44  0AEC               	incf	recive_task@i,f
  4406  0F45  2EA4               	goto	l17654
  4407  0F46                     l17730:	
  4408                           
  4409                           ;recive.c: 873: }
  4410                           ;recive.c: 875: }
  4411                           ;recive.c: 876: }
  4412                           ;recive.c: 877: }
  4413                           ;recive.c: 878: }
  4414                           ;recive.c: 879: }
  4415                           ;recive.c: 882: soft_delay_ms(100);
  4416  0F46  3064               	movlw	100
  4417  0F47  00F3               	movwf	?_soft_delay_ms
  4418  0F48  01F4               	clrf	?_soft_delay_ms+1
  4419  0F49  275D               	fcall	_soft_delay_ms
  4420                           
  4421                           ;recive.c: 883: RF_ClearFIFO();
  4422  0F4A  118A  21BF         	fcall	_RF_ClearFIFO
  4423                           
  4424                           ;recive.c: 884: RF_ClearStatus();
  4425  0F4C  118A  29CF         	ljmp	l16776
  4426  0F4E                     l10035:	
  4427  0F4E  0008               	return
  4428  0F4F                     __end_of_recive_task:	
  4429  0F4F                     __ptext1154:	
  4430 ;; =============== function _RF_WriteReg ends ============
  4431                           
  4432                           
  4433 ;; *************** function ___bmul *****************
  4434 ;; Defined at:
  4435 ;;		line 3 in file "bmul.c"
  4436 ;; Parameters:    Size  Location     Type
  4437 ;;  multiplier      1    wreg     unsigned char 
  4438 ;;  multiplicand    1    3[COMMON] unsigned char 
  4439 ;; Auto vars:     Size  Location     Type
  4440 ;;  multiplier      1    5[COMMON] unsigned char 
  4441 ;;  product         1    4[COMMON] unsigned char 
  4442 ;; Return value:  Size  Location     Type
  4443 ;;                  1    wreg      unsigned char 
  4444 ;; Registers used:
  4445 ;;		wreg, status,2, status,0
  4446 ;; Tracked objects:
  4447 ;;		On entry : 60/0
  4448 ;;		On exit  : 60/0
  4449 ;;		Unchanged: FFF9F/0
  4450 ;; Data sizes:     COMMON   BANK0   BANK1
  4451 ;;      Params:         1       0       0
  4452 ;;      Locals:         2       0       0
  4453 ;;      Temps:          0       0       0
  4454 ;;      Totals:         3       0       0
  4455 ;;Total ram usage:        3 bytes
  4456 ;; Hardware stack levels used:    1
  4457 ;; Hardware stack levels required when called:    2
  4458 ;; This function calls:
  4459 ;;		Nothing
  4460 ;; This function is called by:
  4461 ;;		_loadParamsFromEeprom
  4462 ;;		_recive_task
  4463 ;; This function uses a non-reentrant model
  4464 ;;
  4465  0F4F                     ___bmul:	
  4466                           
  4467                           ; Regs used in ___bmul: [wreg+status,2+status,0]
  4468                           ;___bmul@multiplier stored from wreg
  4469  0F4F  00F5               	movwf	___bmul@multiplier
  4470  0F50  01F4               	clrf	___bmul@product
  4471  0F51                     l14934:	
  4472  0F51  0873               	movf	___bmul@multiplicand,w
  4473  0F52  1875               	btfsc	___bmul@multiplier,0
  4474  0F53  07F4               	addwf	___bmul@product,f
  4475  0F54  1003               	clrc
  4476  0F55  0DF3               	rlf	___bmul@multiplicand,f
  4477  0F56  1003               	clrc
  4478  0F57  0CF5               	rrf	___bmul@multiplier,f
  4479  0F58  08F5               	movf	___bmul@multiplier,f
  4480  0F59  1D03               	skipz
  4481  0F5A  2F51               	goto	l14934
  4482  0F5B  0874               	movf	___bmul@product,w
  4483  0F5C  0008               	return
  4484  0F5D                     __end_of___bmul:	
  4485  0F5D                     __ptext1166:	
  4486 ;; =============== function _IIC_Init ends ============
  4487                           
  4488                           
  4489 ;; *************** function _soft_delay_ms *****************
  4490 ;; Defined at:
  4491 ;;		line 10 in file "F:\\\PAV03fix\PAV03\pav03\src\delay.c"
  4492 ;; Parameters:    Size  Location     Type
  4493 ;;  ms              2    3[COMMON] unsigned int 
  4494 ;; Auto vars:     Size  Location     Type
  4495 ;;  i               2    0[BANK0 ] volatile unsigned int 
  4496 ;;  k               1    3[BANK0 ] volatile unsigned char 
  4497 ;;  j               1    2[BANK0 ] volatile unsigned char 
  4498 ;; Return value:  Size  Location     Type
  4499 ;;		None               void
  4500 ;; Registers used:
  4501 ;;		wreg, status,2, status,0
  4502 ;; Tracked objects:
  4503 ;;		On entry : 40/20
  4504 ;;		On exit  : 60/0
  4505 ;;		Unchanged: FFF9F/0
  4506 ;; Data sizes:     COMMON   BANK0   BANK1
  4507 ;;      Params:         2       0       0
  4508 ;;      Locals:         0       4       0
  4509 ;;      Temps:          0       0       0
  4510 ;;      Totals:         2       4       0
  4511 ;;Total ram usage:        6 bytes
  4512 ;; Hardware stack levels used:    1
  4513 ;; Hardware stack levels required when called:    2
  4514 ;; This function calls:
  4515 ;;		Nothing
  4516 ;; This function is called by:
  4517 ;;		_main
  4518 ;;		_RF_Set_RxMode
  4519 ;;		_key_scan
  4520 ;;		_key_value_read
  4521 ;;		_recive_task
  4522 ;;		_AT24C02_Write_Msg
  4523 ;;		_AT24C02_Read_Msg
  4524 ;; This function uses a non-reentrant model
  4525 ;;
  4526  0F5D                     _soft_delay_ms:	
  4527  0F5D                     l14732:	
  4528                           ; Regs used in _soft_delay_ms: [wreg+status,2+status,0]
  4529                           
  4530                           
  4531                           ;delay.c: 12: volatile unsigned int i;
  4532                           ;delay.c: 13: volatile unsigned char j,k;
  4533                           ;delay.c: 14: for(i=0;i<ms;i++){
  4534  0F5D  1283               	bcf	3,5	;RP0=0, select bank0
  4535  0F5E  01D0               	clrf	soft_delay_ms@i	;volatile
  4536  0F5F  01D1               	clrf	soft_delay_ms@i+1	;volatile
  4537  0F60                     l14756:	
  4538  0F60  0874               	movf	soft_delay_ms@ms+1,w
  4539  0F61  0251               	subwf	soft_delay_ms@i+1,w	;volatile
  4540  0F62  1D03               	skipz
  4541  0F63  2F66               	goto	u2685
  4542  0F64  0873               	movf	soft_delay_ms@ms,w
  4543  0F65  0250               	subwf	soft_delay_ms@i,w	;volatile
  4544  0F66                     u2685:	
  4545  0F66  1803               	btfsc	3,0
  4546  0F67  0008               	return
  4547                           
  4548                           ;delay.c: 15: for(j=0;j<10;j++){
  4549  0F68  01D2               	clrf	soft_delay_ms@j	;volatile
  4550  0F69                     l14736:	
  4551  0F69  300A               	movlw	10
  4552  0F6A  0252               	subwf	soft_delay_ms@j,w	;volatile
  4553  0F6B  1803               	btfsc	3,0
  4554  0F6C  2F76               	goto	l14754
  4555                           
  4556                           ;delay.c: 16: for(k=0;k<32;k++);
  4557  0F6D  01D3               	clrf	soft_delay_ms@k	;volatile
  4558  0F6E                     l14742:	
  4559  0F6E  3020               	movlw	32
  4560  0F6F  0253               	subwf	soft_delay_ms@k,w	;volatile
  4561  0F70  1803               	btfsc	3,0
  4562  0F71  2F74               	goto	l14750
  4563  0F72  0AD3               	incf	soft_delay_ms@k,f	;volatile
  4564  0F73  2F6E               	goto	l14742
  4565  0F74                     l14750:	
  4566  0F74  0AD2               	incf	soft_delay_ms@j,f	;volatile
  4567  0F75  2F69               	goto	l14736
  4568  0F76                     l14754:	
  4569  0F76  0AD0               	incf	soft_delay_ms@i,f	;volatile
  4570  0F77  1903               	skipnz
  4571  0F78  0AD1               	incf	soft_delay_ms@i+1,f	;volatile
  4572  0F79  2F60               	goto	l14756
  4573  0F7A                     __end_of_soft_delay_ms:	
  4574  0F7A                     __ptext1133:	
  4575 ;; =============== function _AT24C02_Read_Byte ends ============
  4576                           
  4577                           
  4578 ;; *************** function _AT24C02_Write_Msg *****************
  4579 ;; Defined at:
  4580 ;;		line 41 in file "F:\\\PAV03fix\PAV03\pav03\src\e2prom.c"
  4581 ;; Parameters:    Size  Location     Type
  4582 ;;  addr            1    wreg     unsigned char 
  4583 ;;  data            1    4[BANK0 ] PTR unsigned char 
  4584 ;;		 -> recive_task@msg(6), channel_flag(1), control_id(72), 
  4585 ;;  len             1    5[BANK0 ] unsigned char 
  4586 ;; Auto vars:     Size  Location     Type
  4587 ;;  addr            1    7[BANK0 ] unsigned char 
  4588 ;;  i               1    8[BANK0 ] unsigned char 
  4589 ;; Return value:  Size  Location     Type
  4590 ;;		None               void
  4591 ;; Registers used:
  4592 ;;		wreg, fsr0l, fsr0h, status,2, status,0, pclath, cstack
  4593 ;; Tracked objects:
  4594 ;;		On entry : 60/0
  4595 ;;		On exit  : 60/0
  4596 ;;		Unchanged: FFE9F/0
  4597 ;; Data sizes:     COMMON   BANK0   BANK1
  4598 ;;      Params:         0       2       0
  4599 ;;      Locals:         0       2       0
  4600 ;;      Temps:          0       1       0
  4601 ;;      Totals:         0       5       0
  4602 ;;Total ram usage:        5 bytes
  4603 ;; Hardware stack levels used:    1
  4604 ;; Hardware stack levels required when called:    5
  4605 ;; This function calls:
  4606 ;;		_AT24C02_Write_Byte
  4607 ;;		_soft_delay_ms
  4608 ;; This function is called by:
  4609 ;;		_recive_task
  4610 ;; This function uses a non-reentrant model
  4611 ;;
  4612  0F7A                     _AT24C02_Write_Msg:	
  4613                           
  4614                           ; Regs used in _AT24C02_Write_Msg: [wreg-fsr0h+status,2+status,0+pclath+cstack]
  4615                           ;AT24C02_Write_Msg@addr stored from wreg
  4616  0F7A  00D7               	movwf	AT24C02_Write_Msg@addr
  4617                           
  4618                           ;e2prom.c: 42: unsigned char i=0;
  4619  0F7B  01D8               	clrf	AT24C02_Write_Msg@i
  4620                           
  4621                           ;e2prom.c: 43: for(i=0;i<len;i++)
  4622  0F7C  01D8               	clrf	AT24C02_Write_Msg@i
  4623  0F7D                     l16806:	
  4624  0F7D  0855               	movf	AT24C02_Write_Msg@len,w
  4625  0F7E  0258               	subwf	AT24C02_Write_Msg@i,w
  4626  0F7F  1803               	btfsc	3,0
  4627  0F80  0008               	return
  4628                           
  4629                           ;e2prom.c: 44: {
  4630                           ;e2prom.c: 45: AT24C02_Write_Byte(addr,data[i]);
  4631  0F81  0858               	movf	AT24C02_Write_Msg@i,w
  4632  0F82  0754               	addwf	AT24C02_Write_Msg@data,w
  4633  0F83  00D6               	movwf	??_AT24C02_Write_Msg
  4634  0F84  0084               	movwf	4
  4635  0F85  1383               	bcf	3,7	;select IRP bank0
  4636  0F86  0800               	movf	0,w
  4637  0F87  00D0               	movwf	?_AT24C02_Write_Byte
  4638  0F88  0857               	movf	AT24C02_Write_Msg@addr,w
  4639  0F89  27AB  158A         	fcall	_AT24C02_Write_Byte
  4640  0F8B  3005               	movlw	5
  4641                           
  4642                           ;e2prom.c: 46: addr++;
  4643  0F8C  0AD7               	incf	AT24C02_Write_Msg@addr,f
  4644                           
  4645                           ;e2prom.c: 47: soft_delay_ms(5);
  4646  0F8D  00F3               	movwf	?_soft_delay_ms
  4647  0F8E  01F4               	clrf	?_soft_delay_ms+1
  4648  0F8F  275D  158A         	fcall	_soft_delay_ms
  4649  0F91  0AD8               	incf	AT24C02_Write_Msg@i,f
  4650  0F92  2F7D               	goto	l16806
  4651  0F93                     __end_of_AT24C02_Write_Msg:	
  4652  0F93                     __ptext1131:	
  4653 ;; =============== function _rx_data ends ============
  4654                           
  4655                           
  4656 ;; *************** function _AT24C02_Read_Msg *****************
  4657 ;; Defined at:
  4658 ;;		line 53 in file "F:\\\PAV03fix\PAV03\pav03\src\e2prom.c"
  4659 ;; Parameters:    Size  Location     Type
  4660 ;;  addr            1    wreg     unsigned char 
  4661 ;;  data            1    6[BANK0 ] PTR unsigned char 
  4662 ;;		 -> channel_flag(1), control_id(72), 
  4663 ;;  len             1    7[BANK0 ] unsigned char 
  4664 ;; Auto vars:     Size  Location     Type
  4665 ;;  addr            1    9[BANK0 ] unsigned char 
  4666 ;;  i               1   10[BANK0 ] unsigned char 
  4667 ;; Return value:  Size  Location     Type
  4668 ;;		None               void
  4669 ;; Registers used:
  4670 ;;		wreg, fsr0l, fsr0h, status,2, status,0, pclath, cstack
  4671 ;; Tracked objects:
  4672 ;;		On entry : 60/0
  4673 ;;		On exit  : 60/0
  4674 ;;		Unchanged: FFE9F/0
  4675 ;; Data sizes:     COMMON   BANK0   BANK1
  4676 ;;      Params:         0       2       0
  4677 ;;      Locals:         0       2       0
  4678 ;;      Temps:          0       1       0
  4679 ;;      Totals:         0       5       0
  4680 ;;Total ram usage:        5 bytes
  4681 ;; Hardware stack levels used:    1
  4682 ;; Hardware stack levels required when called:    6
  4683 ;; This function calls:
  4684 ;;		_AT24C02_Read_Byte
  4685 ;;		_soft_delay_ms
  4686 ;; This function is called by:
  4687 ;;		_loadParamsFromEeprom
  4688 ;;		_recive_task
  4689 ;; This function uses a non-reentrant model
  4690 ;;
  4691  0F93                     _AT24C02_Read_Msg:	
  4692                           
  4693                           ; Regs used in _AT24C02_Read_Msg: [wreg-fsr0h+status,2+status,0+pclath+cstack]
  4694                           ;AT24C02_Read_Msg@addr stored from wreg
  4695  0F93  00D9               	movwf	AT24C02_Read_Msg@addr
  4696                           
  4697                           ;e2prom.c: 54: unsigned char i=0;
  4698  0F94  01DA               	clrf	AT24C02_Read_Msg@i
  4699                           
  4700                           ;e2prom.c: 55: for(i=0;i<len;i++)
  4701  0F95  01DA               	clrf	AT24C02_Read_Msg@i
  4702  0F96                     l16818:	
  4703  0F96  0857               	movf	AT24C02_Read_Msg@len,w
  4704  0F97  025A               	subwf	AT24C02_Read_Msg@i,w
  4705  0F98  1803               	btfsc	3,0
  4706  0F99  0008               	return
  4707                           
  4708                           ;e2prom.c: 56: {
  4709                           ;e2prom.c: 57: data[i]=AT24C02_Read_Byte(addr);
  4710  0F9A  085A               	movf	AT24C02_Read_Msg@i,w
  4711  0F9B  0756               	addwf	AT24C02_Read_Msg@data,w
  4712  0F9C  00D8               	movwf	??_AT24C02_Read_Msg
  4713  0F9D  0084               	movwf	4
  4714  0F9E  0859               	movf	AT24C02_Read_Msg@addr,w
  4715  0F9F  2008  158A         	fcall	_AT24C02_Read_Byte
  4716  0FA1  1383               	bcf	3,7	;select IRP bank0
  4717  0FA2  0080               	movwf	0
  4718                           
  4719                           ;e2prom.c: 58: addr++;
  4720  0FA3  0AD9               	incf	AT24C02_Read_Msg@addr,f
  4721                           
  4722                           ;e2prom.c: 59: soft_delay_ms(1);
  4723  0FA4  01F3               	clrf	?_soft_delay_ms
  4724  0FA5  0AF3               	incf	?_soft_delay_ms,f
  4725  0FA6  01F4               	clrf	?_soft_delay_ms+1
  4726  0FA7  275D  158A         	fcall	_soft_delay_ms
  4727  0FA9  0ADA               	incf	AT24C02_Read_Msg@i,f
  4728  0FAA  2F96               	goto	l16818
  4729  0FAB                     __end_of_AT24C02_Read_Msg:	
  4730  0FAB                     __ptext1136:	
  4731 ;; =============== function _I2C_ReadByte ends ============
  4732                           
  4733                           
  4734 ;; *************** function _AT24C02_Write_Byte *****************
  4735 ;; Defined at:
  4736 ;;		line 9 in file "F:\\\PAV03fix\PAV03\pav03\src\e2prom.c"
  4737 ;; Parameters:    Size  Location     Type
  4738 ;;  addr            1    wreg     unsigned char 
  4739 ;;  data            1    0[BANK0 ] unsigned char 
  4740 ;; Auto vars:     Size  Location     Type
  4741 ;;  addr            1    1[BANK0 ] unsigned char 
  4742 ;; Return value:  Size  Location     Type
  4743 ;;		None               void
  4744 ;; Registers used:
  4745 ;;		wreg, status,2, status,0, pclath, cstack
  4746 ;; Tracked objects:
  4747 ;;		On entry : 60/0
  4748 ;;		On exit  : 60/0
  4749 ;;		Unchanged: FFF9F/0
  4750 ;; Data sizes:     COMMON   BANK0   BANK1
  4751 ;;      Params:         0       1       0
  4752 ;;      Locals:         0       1       0
  4753 ;;      Temps:          0       0       0
  4754 ;;      Totals:         0       2       0
  4755 ;;Total ram usage:        2 bytes
  4756 ;; Hardware stack levels used:    1
  4757 ;; Hardware stack levels required when called:    4
  4758 ;; This function calls:
  4759 ;;		_IIC_START
  4760 ;;		_I2C_SendByte
  4761 ;;		_IIC_Wait_ACK
  4762 ;;		_IIC_STOP
  4763 ;; This function is called by:
  4764 ;;		_recive_task
  4765 ;;		_AT24C02_Write_Msg
  4766 ;; This function uses a non-reentrant model
  4767 ;;
  4768  0FAB                     _AT24C02_Write_Byte:	
  4769                           
  4770                           ; Regs used in _AT24C02_Write_Byte: [wreg+status,2+status,0+pclath+cstack]
  4771                           ;AT24C02_Write_Byte@addr stored from wreg
  4772  0FAB  00D1               	movwf	AT24C02_Write_Byte@addr
  4773                           
  4774                           ;e2prom.c: 10: IIC_START();
  4775  0FAC  27F3  158A         	fcall	_IIC_START
  4776                           
  4777                           ;e2prom.c: 11: I2C_SendByte(0XA0);
  4778  0FAE  30A0               	movlw	160
  4779  0FAF  27BE  158A         	fcall	_I2C_SendByte
  4780                           
  4781                           ;e2prom.c: 12: IIC_Wait_ACK();
  4782  0FB1  27D9  158A         	fcall	_IIC_Wait_ACK
  4783                           
  4784                           ;e2prom.c: 13: I2C_SendByte(addr);
  4785  0FB3  0851               	movf	AT24C02_Write_Byte@addr,w
  4786  0FB4  27BE  158A         	fcall	_I2C_SendByte
  4787                           
  4788                           ;e2prom.c: 14: IIC_Wait_ACK();
  4789  0FB6  27D9  158A         	fcall	_IIC_Wait_ACK
  4790                           
  4791                           ;e2prom.c: 15: I2C_SendByte(data);
  4792  0FB8  0850               	movf	AT24C02_Write_Byte@data,w
  4793  0FB9  27BE  158A         	fcall	_I2C_SendByte
  4794                           
  4795                           ;e2prom.c: 16: IIC_Wait_ACK();
  4796  0FBB  27D9               	fcall	_IIC_Wait_ACK
  4797                           
  4798                           ;e2prom.c: 17: IIC_STOP();
  4799  0FBC  118A  2D7E         	ljmp	l15088
  4800  0FBE                     __end_of_AT24C02_Write_Byte:	
  4801  0FBE                     __ptext1143:	
  4802 ;; =============== function _RF_Init ends ============
  4803                           
  4804                           
  4805 ;; *************** function _I2C_SendByte *****************
  4806 ;; Defined at:
  4807 ;;		line 91 in file "F:\\\PAV03fix\PAV03\pav03\src\iic.c"
  4808 ;; Parameters:    Size  Location     Type
  4809 ;;  Data            1    wreg     unsigned char 
  4810 ;; Auto vars:     Size  Location     Type
  4811 ;;  Data            1    4[COMMON] unsigned char 
  4812 ;;  cnt             1    5[COMMON] unsigned char 
  4813 ;; Return value:  Size  Location     Type
  4814 ;;		None               void
  4815 ;; Registers used:
  4816 ;;		wreg, status,2, status,0, pclath, cstack
  4817 ;; Tracked objects:
  4818 ;;		On entry : 60/0
  4819 ;;		On exit  : 60/0
  4820 ;;		Unchanged: FFF9F/0
  4821 ;; Data sizes:     COMMON   BANK0   BANK1
  4822 ;;      Params:         0       0       0
  4823 ;;      Locals:         2       0       0
  4824 ;;      Temps:          0       0       0
  4825 ;;      Totals:         2       0       0
  4826 ;;Total ram usage:        2 bytes
  4827 ;; Hardware stack levels used:    1
  4828 ;; Hardware stack levels required when called:    3
  4829 ;; This function calls:
  4830 ;;		_iic_delay_us
  4831 ;; This function is called by:
  4832 ;;		_AT24C02_Write_Byte
  4833 ;;		_AT24C02_Read_Byte
  4834 ;; This function uses a non-reentrant model
  4835 ;;
  4836  0FBE                     _I2C_SendByte:	
  4837                           
  4838                           ; Regs used in _I2C_SendByte: [wreg+status,2+status,0+pclath+cstack]
  4839                           ;I2C_SendByte@Data stored from wreg
  4840  0FBE  00F4               	movwf	I2C_SendByte@Data
  4841                           
  4842                           ;iic.c: 92: unsigned char cnt;
  4843                           ;iic.c: 93: TRISC1=0;
  4844  0FBF  1683               	bsf	3,5	;RP0=1, select bank1
  4845  0FC0  1087               	bcf	7,1
  4846                           
  4847                           ;iic.c: 94: for(cnt=0; cnt<8; cnt++)
  4848  0FC1  01F5               	clrf	I2C_SendByte@cnt
  4849  0FC2                     l10729:	
  4850                           
  4851                           ;iic.c: 95: {
  4852                           ;iic.c: 98: if(Data & 0x80)
  4853  0FC2  1FF4               	btfss	I2C_SendByte@Data,7
  4854  0FC3  2FC7               	goto	l10731
  4855                           
  4856                           ;iic.c: 99: {
  4857                           ;iic.c: 100: RC1=1;
  4858  0FC4  1283               	bcf	3,5	;RP0=0, select bank0
  4859  0FC5  1487               	bsf	7,1
  4860                           
  4861                           ;iic.c: 101: }
  4862  0FC6  2FC9               	goto	l10732
  4863  0FC7                     l10731:	
  4864                           
  4865                           ;iic.c: 102: else
  4866                           ;iic.c: 103: {
  4867                           ;iic.c: 104: RC1=0;
  4868  0FC7  1283               	bcf	3,5	;RP0=0, select bank0
  4869  0FC8  1087               	bcf	7,1
  4870  0FC9                     l10732:	
  4871  0FC9  3001               	movlw	1
  4872                           
  4873                           ;iic.c: 105: }
  4874                           ;iic.c: 106: Data <<= 1;
  4875  0FCA  1003               	clrc
  4876  0FCB  0DF4               	rlf	I2C_SendByte@Data,f
  4877                           
  4878                           ;iic.c: 107: RC2=1;
  4879  0FCC  1507               	bsf	7,2
  4880                           
  4881                           ;iic.c: 108: iic_delay_us(1);
  4882  0FCD  27EC  158A         	fcall	_iic_delay_us
  4883  0FCF  3001               	movlw	1
  4884                           
  4885                           ;iic.c: 109: RC2=0;
  4886  0FD0  1107               	bcf	7,2
  4887                           
  4888                           ;iic.c: 110: iic_delay_us(1);
  4889  0FD1  27EC  158A         	fcall	_iic_delay_us
  4890  0FD3  3008               	movlw	8
  4891  0FD4  0AF5               	incf	I2C_SendByte@cnt,f
  4892  0FD5  0275               	subwf	I2C_SendByte@cnt,w
  4893  0FD6  1803               	btfsc	3,0
  4894  0FD7  0008               	return
  4895  0FD8  2FC2               	goto	l10729
  4896  0FD9                     __end_of_I2C_SendByte:	
  4897  0FD9                     __ptext1146:	
  4898 ;; =============== function _IIC_ACK ends ============
  4899                           
  4900                           
  4901 ;; *************** function _IIC_Wait_ACK *****************
  4902 ;; Defined at:
  4903 ;;		line 42 in file "F:\\\PAV03fix\PAV03\pav03\src\iic.c"
  4904 ;; Parameters:    Size  Location     Type
  4905 ;;		None
  4906 ;; Auto vars:     Size  Location     Type
  4907 ;;  RE              1    0        unsigned char 
  4908 ;; Return value:  Size  Location     Type
  4909 ;;                  1    wreg      unsigned char 
  4910 ;; Registers used:
  4911 ;;		wreg, status,2, status,0, pclath, cstack
  4912 ;; Tracked objects:
  4913 ;;		On entry : 60/0
  4914 ;;		On exit  : 60/0
  4915 ;;		Unchanged: FFF9F/0
  4916 ;; Data sizes:     COMMON   BANK0   BANK1
  4917 ;;      Params:         0       0       0
  4918 ;;      Locals:         1       0       0
  4919 ;;      Temps:          0       0       0
  4920 ;;      Totals:         1       0       0
  4921 ;;Total ram usage:        1 bytes
  4922 ;; Hardware stack levels used:    1
  4923 ;; Hardware stack levels required when called:    3
  4924 ;; This function calls:
  4925 ;;		_iic_delay_us
  4926 ;; This function is called by:
  4927 ;;		_AT24C02_Write_Byte
  4928 ;;		_AT24C02_Read_Byte
  4929 ;; This function uses a non-reentrant model
  4930 ;;
  4931  0FD9                     _IIC_Wait_ACK:	
  4932                           
  4933                           ;iic.c: 44: TRISC1=0;
  4934                           
  4935                           ; Regs used in _IIC_Wait_ACK: [wreg+status,2+status,0+pclath+cstack]
  4936  0FD9  1683               	bsf	3,5	;RP0=1, select bank1
  4937  0FDA  1087               	bcf	7,1
  4938                           
  4939                           ;iic.c: 45: RC1=1;
  4940  0FDB  1283               	bcf	3,5	;RP0=0, select bank0
  4941  0FDC  1487               	bsf	7,1
  4942                           
  4943                           ;iic.c: 46: {TRISC1=1,WPUC1=1;};
  4944  0FDD  1683               	bsf	3,5	;RP0=1, select bank1
  4945  0FDE  1487               	bsf	7,1
  4946  0FDF  1703               	bsf	3,6	;RP1=1, select bank3
  4947  0FE0  148F               	bsf	15,1
  4948                           
  4949                           ;iic.c: 48: RC2=0;
  4950  0FE1  1283               	bcf	3,5	;RP0=0, select bank0
  4951  0FE2  3001               	movlw	1
  4952  0FE3  1303               	bcf	3,6	;RP1=0, select bank0
  4953  0FE4  1107               	bcf	7,2
  4954                           
  4955                           ;iic.c: 49: iic_delay_us(1);
  4956  0FE5  27EC  158A         	fcall	_iic_delay_us
  4957  0FE7  3001               	movlw	1
  4958                           
  4959                           ;iic.c: 50: RC2=1;
  4960  0FE8  1507               	bsf	7,2
  4961                           
  4962                           ;iic.c: 51: iic_delay_us(1);
  4963  0FE9  27EC               	fcall	_iic_delay_us
  4964                           
  4965                           ;iic.c: 60: }
  4966                           ;iic.c: 61: RC2=0;
  4967                           
  4968                           ;iic.c: 56: }
  4969                           
  4970                           ;iic.c: 53: if(RC1)
  4971  0FEA  1107               	bcf	7,2
  4972  0FEB  0008               	return
  4973  0FEC                     __end_of_IIC_Wait_ACK:	
  4974  0FEC                     __ptext1155:	
  4975 ;; =============== function ___bmul ends ============
  4976                           
  4977                           
  4978 ;; *************** function _iic_delay_us *****************
  4979 ;; Defined at:
  4980 ;;		line 6 in file "F:\\\PAV03fix\PAV03\pav03\src\iic.c"
  4981 ;; Parameters:    Size  Location     Type
  4982 ;;  delay           1    wreg     unsigned char 
  4983 ;; Auto vars:     Size  Location     Type
  4984 ;;  delay           1    3[COMMON] unsigned char 
  4985 ;; Return value:  Size  Location     Type
  4986 ;;		None               void
  4987 ;; Registers used:
  4988 ;;		wreg, status,2, status,0
  4989 ;; Tracked objects:
  4990 ;;		On entry : 60/0
  4991 ;;		On exit  : 60/0
  4992 ;;		Unchanged: FFF9F/0
  4993 ;; Data sizes:     COMMON   BANK0   BANK1
  4994 ;;      Params:         0       0       0
  4995 ;;      Locals:         1       0       0
  4996 ;;      Temps:          0       0       0
  4997 ;;      Totals:         1       0       0
  4998 ;;Total ram usage:        1 bytes
  4999 ;; Hardware stack levels used:    1
  5000 ;; Hardware stack levels required when called:    2
  5001 ;; This function calls:
  5002 ;;		Nothing
  5003 ;; This function is called by:
  5004 ;;		_IIC_START
  5005 ;;		_IIC_STOP
  5006 ;;		_IIC_Wait_ACK
  5007 ;;		_IIC_ACK
  5008 ;;		_IIC_NACK
  5009 ;;		_I2C_SendByte
  5010 ;;		_I2C_ReadByte
  5011 ;; This function uses a non-reentrant model
  5012 ;;
  5013  0FEC                     _iic_delay_us:	
  5014                           
  5015                           ; Regs used in _iic_delay_us: [wreg+status,2+status,0]
  5016                           ;iic_delay_us@delay stored from wreg
  5017  0FEC  00F3               	movwf	iic_delay_us@delay
  5018  0FED                     l14930:	
  5019                           ;iic.c: 7: while(delay--);
  5020                           
  5021  0FED  03F3               	decf	iic_delay_us@delay,f
  5022  0FEE  0873               	movf	iic_delay_us@delay,w
  5023  0FEF  3AFF               	xorlw	255
  5024  0FF0  1903               	btfsc	3,2
  5025  0FF1  0008               	return
  5026  0FF2  2FED               	goto	l14930
  5027  0FF3                     __end_of_iic_delay_us:	
  5028  0FF3                     __ptext1148:	
  5029 ;; =============== function _IIC_STOP ends ============
  5030                           
  5031                           
  5032 ;; *************** function _IIC_START *****************
  5033 ;; Defined at:
  5034 ;;		line 20 in file "F:\\\PAV03fix\PAV03\pav03\src\iic.c"
  5035 ;; Parameters:    Size  Location     Type
  5036 ;;		None
  5037 ;; Auto vars:     Size  Location     Type
  5038 ;;		None
  5039 ;; Return value:  Size  Location     Type
  5040 ;;		None               void
  5041 ;; Registers used:
  5042 ;;		wreg, status,2, status,0, pclath, cstack
  5043 ;; Tracked objects:
  5044 ;;		On entry : 60/0
  5045 ;;		On exit  : 60/0
  5046 ;;		Unchanged: FFF9F/0
  5047 ;; Data sizes:     COMMON   BANK0   BANK1
  5048 ;;      Params:         0       0       0
  5049 ;;      Locals:         0       0       0
  5050 ;;      Temps:          0       0       0
  5051 ;;      Totals:         0       0       0
  5052 ;;Total ram usage:        0 bytes
  5053 ;; Hardware stack levels used:    1
  5054 ;; Hardware stack levels required when called:    3
  5055 ;; This function calls:
  5056 ;;		_iic_delay_us
  5057 ;; This function is called by:
  5058 ;;		_AT24C02_Write_Byte
  5059 ;;		_AT24C02_Read_Byte
  5060 ;; This function uses a non-reentrant model
  5061 ;;
  5062  0FF3                     _IIC_START:	
  5063                           
  5064                           ;iic.c: 21: TRISC1=0;
  5065                           
  5066                           ; Regs used in _IIC_START: [wreg+status,2+status,0+pclath+cstack]
  5067  0FF3  1683               	bsf	3,5	;RP0=1, select bank1
  5068  0FF4  1087               	bcf	7,1
  5069                           
  5070                           ;iic.c: 22: RC1=1;
  5071  0FF5  1283               	bcf	3,5	;RP0=0, select bank0
  5072  0FF6  3001               	movlw	1
  5073  0FF7  1487               	bsf	7,1
  5074                           
  5075                           ;iic.c: 23: RC2=1;
  5076  0FF8  1507               	bsf	7,2
  5077                           
  5078                           ;iic.c: 24: iic_delay_us(1);
  5079  0FF9  27EC  158A         	fcall	_iic_delay_us
  5080  0FFB  3001               	movlw	1
  5081                           
  5082                           ;iic.c: 25: RC1=0;
  5083  0FFC  1087               	bcf	7,1
  5084                           
  5085                           ;iic.c: 26: iic_delay_us(1);
  5086  0FFD  27EC               	fcall	_iic_delay_us
  5087                           
  5088                           ;iic.c: 27: RC2=0;
  5089  0FFE  1107               	bcf	7,2
  5090  0FFF  0008               	return
  5091  1000                     __end_of_IIC_START:	
  5092                           
  5093                           	psect	text1135
  5094  04AD                     __ptext1135:	
  5095 ;; =============== function _RF_RxData ends ============
  5096                           
  5097                           
  5098 ;; *************** function _I2C_ReadByte *****************
  5099 ;; Defined at:
  5100 ;;		line 117 in file "F:\\\PAV03fix\PAV03\pav03\src\iic.c"
  5101 ;; Parameters:    Size  Location     Type
  5102 ;;  ack             1    wreg     unsigned char 
  5103 ;; Auto vars:     Size  Location     Type
  5104 ;;  ack             1    0[BANK0 ] unsigned char 
  5105 ;;  data            2    1[BANK0 ] unsigned int 
  5106 ;;  cnt             1    3[BANK0 ] unsigned char 
  5107 ;; Return value:  Size  Location     Type
  5108 ;;                  2    4[COMMON] unsigned int 
  5109 ;; Registers used:
  5110 ;;		wreg, status,2, status,0, pclath, cstack
  5111 ;; Tracked objects:
  5112 ;;		On entry : 60/0
  5113 ;;		On exit  : 60/0
  5114 ;;		Unchanged: FFF9F/0
  5115 ;; Data sizes:     COMMON   BANK0   BANK1
  5116 ;;      Params:         2       0       0
  5117 ;;      Locals:         0       4       0
  5118 ;;      Temps:          0       0       0
  5119 ;;      Totals:         2       4       0
  5120 ;;Total ram usage:        6 bytes
  5121 ;; Hardware stack levels used:    1
  5122 ;; Hardware stack levels required when called:    4
  5123 ;; This function calls:
  5124 ;;		_iic_delay_us
  5125 ;;		_IIC_NACK
  5126 ;;		_IIC_ACK
  5127 ;; This function is called by:
  5128 ;;		_AT24C02_Read_Byte
  5129 ;; This function uses a non-reentrant model
  5130 ;;
  5131  04AD                     _I2C_ReadByte:	
  5132                           
  5133                           ; Regs used in _I2C_ReadByte: [wreg+status,2+status,0+pclath+cstack]
  5134                           ;I2C_ReadByte@ack stored from wreg
  5135  04AD  00D0               	movwf	I2C_ReadByte@ack
  5136                           
  5137                           ;iic.c: 118: unsigned char cnt;
  5138                           ;iic.c: 119: unsigned int data;
  5139                           ;iic.c: 120: {TRISC1=1,WPUC1=1;};
  5140  04AE  1683               	bsf	3,5	;RP0=1, select bank1
  5141  04AF  1487               	bsf	7,1
  5142  04B0  1703               	bsf	3,6	;RP1=1, select bank3
  5143  04B1  148F               	bsf	15,1
  5144                           
  5145                           ;iic.c: 122: for(cnt=0; cnt<8; cnt++)
  5146  04B2  1283               	bcf	3,5	;RP0=0, select bank0
  5147  04B3  1303               	bcf	3,6	;RP1=0, select bank0
  5148  04B4  01D3               	clrf	I2C_ReadByte@cnt
  5149  04B5                     l10736:	
  5150  04B5  3001               	movlw	1
  5151                           
  5152                           ;iic.c: 123: {
  5153                           ;iic.c: 124: RC2=0;
  5154  04B6  1107               	bcf	7,2
  5155                           
  5156                           ;iic.c: 125: iic_delay_us(1);
  5157  04B7  158A  27EC  118A   	fcall	_iic_delay_us
  5158                           
  5159                           ;iic.c: 127: RC2=1;
  5160  04BA  1507               	bsf	7,2
  5161                           
  5162                           ;iic.c: 128: data <<= 1;
  5163  04BB  1003               	clrc
  5164  04BC  0DD1               	rlf	I2C_ReadByte@data,f
  5165  04BD  0DD2               	rlf	I2C_ReadByte@data+1,f
  5166                           
  5167                           ;iic.c: 129: if(RC1)
  5168  04BE  1887               	btfsc	7,1
  5169                           
  5170                           ;iic.c: 130: {
  5171                           ;iic.c: 131: data |= 0x01;
  5172  04BF  1451               	bsf	I2C_ReadByte@data,0
  5173                           
  5174                           ;iic.c: 132: }
  5175                           ;iic.c: 133: iic_delay_us(1);
  5176  04C0  3001               	movlw	1
  5177  04C1  158A  27EC  118A   	fcall	_iic_delay_us
  5178  04C4  3008               	movlw	8
  5179  04C5  0AD3               	incf	I2C_ReadByte@cnt,f
  5180  04C6  0253               	subwf	I2C_ReadByte@cnt,w
  5181  04C7  1C03               	skipc
  5182  04C8  2CB5               	goto	l10736
  5183                           
  5184                           ;iic.c: 134: }
  5185                           ;iic.c: 135: if(ack == 0)
  5186  04C9  08D0               	movf	I2C_ReadByte@ack,f
  5187  04CA  1D03               	skipz
  5188  04CB  2CCF               	goto	l15472
  5189                           
  5190                           ;iic.c: 136: {
  5191                           ;iic.c: 137: IIC_NACK();
  5192  04CC  24D5  118A         	fcall	_IIC_NACK
  5193                           
  5194                           ;iic.c: 138: }
  5195  04CE  2CD0               	goto	l15474
  5196  04CF                     l15472:	
  5197                           
  5198                           ;iic.c: 139: else
  5199                           ;iic.c: 140: {
  5200                           ;iic.c: 141: IIC_ACK();
  5201  04CF  24E3               	fcall	_IIC_ACK
  5202  04D0                     l15474:	
  5203                           
  5204                           ;iic.c: 142: }
  5205                           ;iic.c: 143: return data;
  5206  04D0  0852               	movf	I2C_ReadByte@data+1,w
  5207  04D1  00F5               	movwf	?_I2C_ReadByte+1
  5208  04D2  0851               	movf	I2C_ReadByte@data,w
  5209  04D3  00F4               	movwf	?_I2C_ReadByte
  5210  04D4  0008               	return
  5211  04D5                     __end_of_I2C_ReadByte:	
  5212  04D5                     __ptext1144:	
  5213 ;; =============== function _I2C_SendByte ends ============
  5214                           
  5215                           
  5216 ;; *************** function _IIC_NACK *****************
  5217 ;; Defined at:
  5218 ;;		line 78 in file "F:\\\PAV03fix\PAV03\pav03\src\iic.c"
  5219 ;; Parameters:    Size  Location     Type
  5220 ;;		None
  5221 ;; Auto vars:     Size  Location     Type
  5222 ;;		None
  5223 ;; Return value:  Size  Location     Type
  5224 ;;		None               void
  5225 ;; Registers used:
  5226 ;;		wreg, status,2, status,0, pclath, cstack
  5227 ;; Tracked objects:
  5228 ;;		On entry : 60/0
  5229 ;;		On exit  : 60/0
  5230 ;;		Unchanged: FFF9F/0
  5231 ;; Data sizes:     COMMON   BANK0   BANK1
  5232 ;;      Params:         0       0       0
  5233 ;;      Locals:         0       0       0
  5234 ;;      Temps:          0       0       0
  5235 ;;      Totals:         0       0       0
  5236 ;;Total ram usage:        0 bytes
  5237 ;; Hardware stack levels used:    1
  5238 ;; Hardware stack levels required when called:    3
  5239 ;; This function calls:
  5240 ;;		_iic_delay_us
  5241 ;; This function is called by:
  5242 ;;		_I2C_ReadByte
  5243 ;; This function uses a non-reentrant model
  5244 ;;
  5245  04D5                     _IIC_NACK:	
  5246  04D5  3001               	movlw	1
  5247                           
  5248                           ;iic.c: 79: RC1=1;
  5249                           
  5250                           ; Regs used in _IIC_NACK: [wreg+status,2+status,0+pclath+cstack]
  5251  04D6  1487               	bsf	7,1
  5252                           
  5253                           ;iic.c: 80: iic_delay_us(1);
  5254  04D7  158A  27EC  118A   	fcall	_iic_delay_us
  5255  04DA  3001               	movlw	1
  5256                           
  5257                           ;iic.c: 81: RC2=1;
  5258  04DB  1507               	bsf	7,2
  5259                           
  5260                           ;iic.c: 82: iic_delay_us(1);
  5261  04DC  158A  27EC  118A   	fcall	_iic_delay_us
  5262  04DF  3001               	movlw	1
  5263                           
  5264                           ;iic.c: 83: RC2=0;
  5265  04E0  1107               	bcf	7,2
  5266                           
  5267                           ;iic.c: 84: iic_delay_us(1);
  5268  04E1  158A  2FEC         	ljmp	_iic_delay_us
  5269  04E3                     __end_of_IIC_NACK:	
  5270  04E3                     __ptext1145:	
  5271 ;; =============== function _IIC_NACK ends ============
  5272                           
  5273                           
  5274 ;; *************** function _IIC_ACK *****************
  5275 ;; Defined at:
  5276 ;;		line 67 in file "F:\\\PAV03fix\PAV03\pav03\src\iic.c"
  5277 ;; Parameters:    Size  Location     Type
  5278 ;;		None
  5279 ;; Auto vars:     Size  Location     Type
  5280 ;;		None
  5281 ;; Return value:  Size  Location     Type
  5282 ;;		None               void
  5283 ;; Registers used:
  5284 ;;		wreg, status,2, status,0, pclath, cstack
  5285 ;; Tracked objects:
  5286 ;;		On entry : 60/0
  5287 ;;		On exit  : 60/0
  5288 ;;		Unchanged: FFF9F/0
  5289 ;; Data sizes:     COMMON   BANK0   BANK1
  5290 ;;      Params:         0       0       0
  5291 ;;      Locals:         0       0       0
  5292 ;;      Temps:          0       0       0
  5293 ;;      Totals:         0       0       0
  5294 ;;Total ram usage:        0 bytes
  5295 ;; Hardware stack levels used:    1
  5296 ;; Hardware stack levels required when called:    3
  5297 ;; This function calls:
  5298 ;;		_iic_delay_us
  5299 ;; This function is called by:
  5300 ;;		_I2C_ReadByte
  5301 ;; This function uses a non-reentrant model
  5302 ;;
  5303  04E3                     _IIC_ACK:	
  5304                           
  5305                           ;iic.c: 68: TRISC1=0;
  5306                           
  5307                           ; Regs used in _IIC_ACK: [wreg+status,2+status,0+pclath+cstack]
  5308  04E3  1683               	bsf	3,5	;RP0=1, select bank1
  5309  04E4  1087               	bcf	7,1
  5310                           
  5311                           ;iic.c: 69: RC1=0;
  5312  04E5  1283               	bcf	3,5	;RP0=0, select bank0
  5313  04E6  3001               	movlw	1
  5314  04E7  1087               	bcf	7,1
  5315                           
  5316                           ;iic.c: 70: iic_delay_us(1);
  5317  04E8  158A  27EC  118A   	fcall	_iic_delay_us
  5318  04EB  3001               	movlw	1
  5319                           
  5320                           ;iic.c: 71: RC2=1;
  5321  04EC  1507               	bsf	7,2
  5322                           
  5323                           ;iic.c: 72: iic_delay_us(1);
  5324  04ED  158A  27EC         	fcall	_iic_delay_us
  5325                           
  5326                           ;iic.c: 73: RC2=0;
  5327  04EF  1107               	bcf	7,2
  5328                           
  5329                           ;iic.c: 74: RC1=1;
  5330  04F0  1487               	bsf	7,1
  5331  04F1  0008               	return
  5332  04F2                     __end_of_IIC_ACK:	
  5333                           
  5334                           	psect	text1140
  5335  01D3                     __ptext1140:	
  5336 ;; =============== function _RF_GetStatus ends ============
  5337                           
  5338                           
  5339 ;; *************** function _key_value_read *****************
  5340 ;; Defined at:
  5341 ;;		line 141 in file "F:\\\PAV03fix\PAV03\pav03\src\key_scan.c"
  5342 ;; Parameters:    Size  Location     Type
  5343 ;;		None
  5344 ;; Auto vars:     Size  Location     Type
  5345 ;;		None
  5346 ;; Return value:  Size  Location     Type
  5347 ;;		None               void
  5348 ;; Registers used:
  5349 ;;		wreg, fsr0l, fsr0h, status,2, status,0, pclath, cstack
  5350 ;; Tracked objects:
  5351 ;;		On entry : 60/0
  5352 ;;		On exit  : 60/0
  5353 ;;		Unchanged: FFF9F/0
  5354 ;; Data sizes:     COMMON   BANK0   BANK1
  5355 ;;      Params:         0       0       0
  5356 ;;      Locals:         0       0       0
  5357 ;;      Temps:          0       0       0
  5358 ;;      Totals:         0       0       0
  5359 ;;Total ram usage:        0 bytes
  5360 ;; Hardware stack levels used:    1
  5361 ;; Hardware stack levels required when called:    4
  5362 ;; This function calls:
  5363 ;;		_key_scan
  5364 ;;		_soft_delay_ms
  5365 ;; This function is called by:
  5366 ;;		_main
  5367 ;; This function uses a non-reentrant model
  5368 ;;
  5369  01D3                     _key_value_read:	
  5370                           
  5371                           ;key_scan.c: 142: key_scan();
  5372                           
  5373                           ; Regs used in _key_value_read: [wreg-fsr0h+status,2+status,0+pclath+cstack]
  5374  01D3  22D9  118A         	fcall	_key_scan
  5375                           
  5376                           ;key_scan.c: 143: if(KEY0_FLAG == 0x01)
  5377  01D5  0B76               	decfsz	_KEY0_FLAG,w
  5378  01D6  29FE               	goto	l15256
  5379                           
  5380                           ;key_scan.c: 144: {
  5381                           ;key_scan.c: 146: if(flag_time_key0_add >= 500)
  5382  01D7  3001               	movlw	1
  5383  01D8  0235               	subwf	_flag_time_key0_add+1,w
  5384  01D9  30F4               	movlw	244
  5385  01DA  1903               	skipnz
  5386  01DB  0234               	subwf	_flag_time_key0_add,w
  5387  01DC  1C03               	skipc
  5388  01DD  29F1               	goto	l15244
  5389                           
  5390                           ;key_scan.c: 147: {
  5391                           ;key_scan.c: 148: if(key_long_flag == 0x01)
  5392  01DE  0B79               	decfsz	_key_long_flag,w
  5393  01DF  2A29               	goto	l7182
  5394                           
  5395                           ;key_scan.c: 149: {
  5396                           ;key_scan.c: 150: key_long_flag = 0x10;
  5397  01E0  3010               	movlw	16
  5398  01E1  00F9               	movwf	_key_long_flag
  5399                           
  5400                           ;key_scan.c: 151: (TRISC0=0,RC0=0);
  5401                           
  5402                           ;key_scan.c: 152: soft_delay_ms(100);
  5403  01E2  2349               	fcall	PL2	;call to abstracted procedure
  5404  01E3  158A  275D  118A   	fcall	_soft_delay_ms
  5405                           
  5406                           ;key_scan.c: 153: (TRISC0=0,RC0=1);
  5407                           
  5408                           ;key_scan.c: 154: soft_delay_ms(100);
  5409  01E6  2351               	fcall	PL3	;call to abstracted procedure
  5410  01E7  158A  275D  118A   	fcall	_soft_delay_ms
  5411  01EA                     L7:	
  5412                           
  5413                           ;key_scan.c: 155: (TRISC0=0,RC0=0);
  5414                           
  5415                           ;key_scan.c: 156: soft_delay_ms(100);
  5416  01EA  2349               	fcall	PL2	;call to abstracted procedure
  5417  01EB  158A  275D  118A   	fcall	_soft_delay_ms
  5418                           
  5419                           ;key_scan.c: 157: (TRISC0=0,RC0=1);
  5420  01EE  2359  118A         	fcall	PL4	;call to abstracted procedure
  5421                           
  5422                           ;key_scan.c: 158: }
  5423                           ;key_scan.c: 159: }
  5424  01F0  2A29               	goto	l7182
  5425  01F1                     l15244:	
  5426                           
  5427                           ;key_scan.c: 160: else if(flag_time_key0_add >= 300)
  5428  01F1  3001               	movlw	1
  5429  01F2  0235               	subwf	_flag_time_key0_add+1,w
  5430  01F3  302C               	movlw	44
  5431  01F4  1903               	skipnz
  5432  01F5  0234               	subwf	_flag_time_key0_add,w
  5433  01F6  1C03               	skipc
  5434  01F7  2A29               	goto	l7182
  5435                           
  5436                           ;key_scan.c: 161: {
  5437                           ;key_scan.c: 162: if(key_long_flag == 0)
  5438  01F8  08F9               	movf	_key_long_flag,f
  5439  01F9  1D03               	skipz
  5440  01FA  2A29               	goto	l7182
  5441                           
  5442                           ;key_scan.c: 163: {
  5443                           ;key_scan.c: 164: key_long_flag = 0x01;
  5444  01FB  01F9               	clrf	_key_long_flag
  5445  01FC  0AF9               	incf	_key_long_flag,f
  5446  01FD  29EA               	goto	L7
  5447  01FE                     l15256:	
  5448                           ;key_scan.c: 165: (TRISC0=0,RC0=0);
  5449                           
  5450                           
  5451                           ;key_scan.c: 173: else if(KEY0_FLAG == 0x03)
  5452  01FE  0876               	movf	_KEY0_FLAG,w
  5453  01FF  3A03               	xorlw	3
  5454  0200  1D03               	skipz
  5455  0201  2A29               	goto	l7182
  5456  0202  3001               	movlw	1
  5457                           
  5458                           ;key_scan.c: 174: {
  5459                           ;key_scan.c: 175: KEY0_FLAG = 0;
  5460  0203  01F6               	clrf	_KEY0_FLAG
  5461                           
  5462                           ;key_scan.c: 177: if((flag_time_key0_add < 300))
  5463  0204  0235               	subwf	_flag_time_key0_add+1,w
  5464  0205  302C               	movlw	44
  5465  0206  1903               	skipnz
  5466  0207  0234               	subwf	_flag_time_key0_add,w
  5467                           
  5468                           ;key_scan.c: 178: {
  5469                           ;key_scan.c: 179: KEY0.channel_status ^= 1;
  5470  0208  3001               	movlw	1
  5471  0209  1803               	skipnc
  5472  020A  2A0D               	goto	L11
  5473  020B  06A0               	xorwf	_KEY0,f
  5474                           
  5475                           ;key_scan.c: 180: }
  5476  020C  2A29               	goto	l7182
  5477  020D                     L11:	
  5478                           ;key_scan.c: 181: else if(flag_time_key0_add < 500)
  5479                           
  5480  020D  0235               	subwf	_flag_time_key0_add+1,w
  5481  020E  30F4               	movlw	244
  5482  020F  1903               	skipnz
  5483  0210  0234               	subwf	_flag_time_key0_add,w
  5484  0211  1803               	skipnc
  5485  0212  2A1B               	goto	l15276
  5486                           
  5487                           ;key_scan.c: 182: {
  5488                           ;key_scan.c: 183: if(key_long_flag == 0x01)
  5489  0213  0B79               	decfsz	_key_long_flag,w
  5490  0214  2A29               	goto	l7182
  5491  0215  3011               	movlw	17
  5492                           
  5493                           ;key_scan.c: 184: {
  5494                           ;key_scan.c: 185: KEY0.key_flag_3s = 1;
  5495  0216  01A1               	clrf	_KEY0+1
  5496  0217  0AA1               	incf	_KEY0+1,f
  5497                           
  5498                           ;key_scan.c: 186: key_long_flag = 0x11;
  5499  0218  00F9               	movwf	_key_long_flag
  5500                           
  5501                           ;key_scan.c: 187: sys_stute = 2;
  5502  0219  3002               	movlw	2
  5503  021A  2A24               	goto	L9
  5504  021B                     l15276:	
  5505                           
  5506                           ;key_scan.c: 192: else
  5507                           ;key_scan.c: 193: {
  5508                           ;key_scan.c: 194: if(key_long_flag == 0x10)
  5509  021B  0879               	movf	_key_long_flag,w
  5510  021C  3A10               	xorlw	16
  5511  021D  1D03               	skipz
  5512  021E  2A29               	goto	l7182
  5513  021F  3011               	movlw	17
  5514                           
  5515                           ;key_scan.c: 195: {
  5516                           ;key_scan.c: 196: KEY0.key_flag_5s = 1;
  5517  0220  01A2               	clrf	_KEY0+2
  5518  0221  0AA2               	incf	_KEY0+2,f
  5519                           
  5520                           ;key_scan.c: 197: key_long_flag = 0x11;
  5521  0222  00F9               	movwf	_key_long_flag
  5522                           
  5523                           ;key_scan.c: 198: sys_stute = 3;
  5524  0223  3003               	movlw	3
  5525  0224                     L9:	
  5526  0224  00EE               	movwf	_sys_stute
  5527                           
  5528                           ;key_scan.c: 188: flag_time_key1_add = 0;
  5529  0225  01B6               	clrf	_flag_time_key1_add
  5530  0226  01B7               	clrf	_flag_time_key1_add+1
  5531                           
  5532                           ;key_scan.c: 189: flag_time_key2_add = 0;
  5533  0227  01B8               	clrf	_flag_time_key2_add
  5534  0228  01B9               	clrf	_flag_time_key2_add+1
  5535  0229                     l7182:	
  5536                           
  5537                           ;key_scan.c: 201: }
  5538                           ;key_scan.c: 202: }
  5539                           ;key_scan.c: 204: }
  5540                           ;key_scan.c: 207: if(KEY1_FLAG == 0x01)
  5541  0229  0B77               	decfsz	_KEY1_FLAG,w
  5542  022A  2A54               	goto	l15330
  5543                           
  5544                           ;key_scan.c: 208: {
  5545                           ;key_scan.c: 209: if(flag_time_key1_add >= 500)
  5546  022B  3001               	movlw	1
  5547  022C  0237               	subwf	_flag_time_key1_add+1,w
  5548  022D  30F4               	movlw	244
  5549  022E  1903               	skipnz
  5550  022F  0236               	subwf	_flag_time_key1_add,w
  5551  0230  1C03               	skipc
  5552  0231  2A47               	goto	l15314
  5553                           
  5554                           ;key_scan.c: 210: {
  5555                           ;key_scan.c: 211: if(key_long_flag == 0x02)
  5556  0232  0879               	movf	_key_long_flag,w
  5557  0233  3A02               	xorlw	2
  5558  0234  1D03               	skipz
  5559  0235  2A80               	goto	l7196
  5560                           
  5561                           ;key_scan.c: 212: {
  5562                           ;key_scan.c: 213: key_long_flag = 0x20;
  5563  0236  3020               	movlw	32
  5564  0237  00F9               	movwf	_key_long_flag
  5565                           
  5566                           ;key_scan.c: 214: (TRISC0=0,RC0=0);
  5567                           
  5568                           ;key_scan.c: 215: soft_delay_ms(100);
  5569  0238  2349               	fcall	PL2	;call to abstracted procedure
  5570  0239  158A  275D  118A   	fcall	_soft_delay_ms
  5571                           
  5572                           ;key_scan.c: 216: (TRISC0=0,RC0=1);
  5573                           
  5574                           ;key_scan.c: 217: soft_delay_ms(100);
  5575  023C  2351               	fcall	PL3	;call to abstracted procedure
  5576  023D  158A  275D  118A   	fcall	_soft_delay_ms
  5577  0240                     l15304:	
  5578                           
  5579                           ;key_scan.c: 218: (TRISC0=0,RC0=0);
  5580                           
  5581                           ;key_scan.c: 219: soft_delay_ms(100);
  5582  0240  2349               	fcall	PL2	;call to abstracted procedure
  5583  0241  158A  275D  118A   	fcall	_soft_delay_ms
  5584                           
  5585                           ;key_scan.c: 220: (TRISC0=0,RC0=1);
  5586  0244  2359  118A         	fcall	PL4	;call to abstracted procedure
  5587                           
  5588                           ;key_scan.c: 221: }
  5589                           ;key_scan.c: 222: }
  5590  0246  2A80               	goto	l7196
  5591  0247                     l15314:	
  5592                           
  5593                           ;key_scan.c: 223: else if(flag_time_key1_add >= 300)
  5594  0247  3001               	movlw	1
  5595  0248  0237               	subwf	_flag_time_key1_add+1,w
  5596  0249  302C               	movlw	44
  5597  024A  1903               	skipnz
  5598  024B  0236               	subwf	_flag_time_key1_add,w
  5599  024C  1C03               	skipc
  5600  024D  2A80               	goto	l7196
  5601                           
  5602                           ;key_scan.c: 224: {
  5603                           ;key_scan.c: 225: if(key_long_flag == 0)
  5604  024E  08F9               	movf	_key_long_flag,f
  5605  024F  1D03               	skipz
  5606  0250  2A80               	goto	l7196
  5607                           
  5608                           ;key_scan.c: 226: {
  5609                           ;key_scan.c: 227: key_long_flag = 0x02;
  5610  0251  3002               	movlw	2
  5611  0252  00F9               	movwf	_key_long_flag
  5612  0253  2A40               	goto	l15304
  5613  0254                     l15330:	
  5614                           
  5615                           ;key_scan.c: 235: else if(KEY1_FLAG == 0x03)
  5616  0254  0877               	movf	_KEY1_FLAG,w
  5617  0255  3A03               	xorlw	3
  5618  0256  1D03               	skipz
  5619  0257  2A80               	goto	l7196
  5620  0258  3001               	movlw	1
  5621                           
  5622                           ;key_scan.c: 236: {
  5623                           ;key_scan.c: 237: KEY1_FLAG = 0;
  5624  0259  01F7               	clrf	_KEY1_FLAG
  5625                           
  5626                           ;key_scan.c: 238: if((flag_time_key1_add < 300))
  5627  025A  0237               	subwf	_flag_time_key1_add+1,w
  5628  025B  302C               	movlw	44
  5629  025C  1903               	skipnz
  5630  025D  0236               	subwf	_flag_time_key1_add,w
  5631                           
  5632                           ;key_scan.c: 239: {
  5633                           ;key_scan.c: 240: KEY1.channel_status ^= 1;
  5634  025E  3001               	movlw	1
  5635  025F  1803               	skipnc
  5636  0260  2A63               	goto	L12
  5637  0261  06A3               	xorwf	_KEY1,f
  5638                           
  5639                           ;key_scan.c: 241: }
  5640  0262  2A80               	goto	l7196
  5641  0263                     L12:	
  5642                           ;key_scan.c: 242: else if(flag_time_key1_add < 500)
  5643                           
  5644  0263  0237               	subwf	_flag_time_key1_add+1,w
  5645  0264  30F4               	movlw	244
  5646  0265  1903               	skipnz
  5647  0266  0236               	subwf	_flag_time_key1_add,w
  5648                           
  5649                           ;key_scan.c: 243: {
  5650                           ;key_scan.c: 244: if(key_long_flag == 0x02)
  5651  0267  0879               	movf	_key_long_flag,w
  5652  0268  1803               	skipnc
  5653  0269  2A73               	goto	L13
  5654  026A  3A02               	xorlw	2
  5655  026B  1D03               	skipz
  5656  026C  2A80               	goto	l7196
  5657  026D  3021               	movlw	33
  5658                           
  5659                           ;key_scan.c: 245: {
  5660                           ;key_scan.c: 246: KEY1.key_flag_3s = 1;
  5661  026E  01A4               	clrf	_KEY1+1
  5662  026F  0AA4               	incf	_KEY1+1,f
  5663                           
  5664                           ;key_scan.c: 247: key_long_flag = 0x21;
  5665  0270  00F9               	movwf	_key_long_flag
  5666                           
  5667                           ;key_scan.c: 248: sys_stute = 2;
  5668  0271  3002               	movlw	2
  5669  0272  2A7B               	goto	L10
  5670  0273                     L13:	
  5671                           ;key_scan.c: 253: else
  5672                           ;key_scan.c: 254: {
  5673                           ;key_scan.c: 255: if(key_long_flag == 0x20)
  5674                           
  5675  0273  3A20               	xorlw	32
  5676  0274  1D03               	skipz
  5677  0275  2A80               	goto	l7196
  5678  0276  3021               	movlw	33
  5679                           
  5680                           ;key_scan.c: 256: {
  5681                           ;key_scan.c: 257: KEY1.key_flag_5s = 1;
  5682  0277  01A5               	clrf	_KEY1+2
  5683  0278  0AA5               	incf	_KEY1+2,f
  5684                           
  5685                           ;key_scan.c: 258: key_long_flag = 0x21;
  5686  0279  00F9               	movwf	_key_long_flag
  5687                           
  5688                           ;key_scan.c: 259: sys_stute = 3;
  5689  027A  3003               	movlw	3
  5690  027B                     L10:	
  5691  027B  00EE               	movwf	_sys_stute
  5692                           
  5693                           ;key_scan.c: 249: flag_time_key2_add = 0;
  5694  027C  01B8               	clrf	_flag_time_key2_add
  5695  027D  01B9               	clrf	_flag_time_key2_add+1
  5696                           
  5697                           ;key_scan.c: 250: flag_time_key0_add = 0;
  5698  027E  01B4               	clrf	_flag_time_key0_add
  5699  027F  01B5               	clrf	_flag_time_key0_add+1
  5700  0280                     l7196:	
  5701                           
  5702                           ;key_scan.c: 262: }
  5703                           ;key_scan.c: 263: }
  5704                           ;key_scan.c: 264: }
  5705                           ;key_scan.c: 267: if(KEY2_FLAG == 0x01)
  5706  0280  0B78               	decfsz	_KEY2_FLAG,w
  5707  0281  2AAC               	goto	l15404
  5708                           
  5709                           ;key_scan.c: 268: {
  5710                           ;key_scan.c: 269: if(flag_time_key2_add >= 500)
  5711  0282  3001               	movlw	1
  5712  0283  0239               	subwf	_flag_time_key2_add+1,w
  5713  0284  30F4               	movlw	244
  5714  0285  1903               	skipnz
  5715  0286  0238               	subwf	_flag_time_key2_add,w
  5716  0287  1C03               	skipc
  5717  0288  2A9F               	goto	l15388
  5718                           
  5719                           ;key_scan.c: 270: {
  5720                           ;key_scan.c: 271: if(key_long_flag == 0x04)
  5721  0289  0879               	movf	_key_long_flag,w
  5722  028A  3A04               	xorlw	4
  5723  028B  1D03               	skipz
  5724  028C  0008               	return
  5725                           
  5726                           ;key_scan.c: 272: {
  5727                           ;key_scan.c: 273: key_long_flag = 0x40;
  5728  028D  3040               	movlw	64
  5729  028E  00F9               	movwf	_key_long_flag
  5730                           
  5731                           ;key_scan.c: 274: (TRISC0=0,RC0=0);
  5732                           
  5733                           ;key_scan.c: 275: soft_delay_ms(100);
  5734  028F  2349               	fcall	PL2	;call to abstracted procedure
  5735  0290  158A  275D  118A   	fcall	_soft_delay_ms
  5736                           
  5737                           ;key_scan.c: 276: (TRISC0=0,RC0=1);
  5738                           
  5739                           ;key_scan.c: 277: soft_delay_ms(100);
  5740  0293  2351               	fcall	PL3	;call to abstracted procedure
  5741  0294  158A  275D  118A   	fcall	_soft_delay_ms
  5742  0297                     l15378:	
  5743                           
  5744                           ;key_scan.c: 278: (TRISC0=0,RC0=0);
  5745                           
  5746                           ;key_scan.c: 279: soft_delay_ms(100);
  5747  0297  2349               	fcall	PL2	;call to abstracted procedure
  5748  0298  158A  275D         	fcall	_soft_delay_ms
  5749                           
  5750                           ;key_scan.c: 280: (TRISC0=0,RC0=1);
  5751  029A  1683               	bsf	3,5	;RP0=1, select bank1
  5752  029B  1007               	bcf	7,0
  5753  029C  1283               	bcf	3,5	;RP0=0, select bank0
  5754  029D  1407               	bsf	7,0
  5755  029E  0008               	return
  5756  029F                     l15388:	
  5757                           
  5758                           ;key_scan.c: 283: else if(flag_time_key2_add >= 300)
  5759  029F  3001               	movlw	1
  5760  02A0  0239               	subwf	_flag_time_key2_add+1,w
  5761  02A1  302C               	movlw	44
  5762  02A2  1903               	skipnz
  5763  02A3  0238               	subwf	_flag_time_key2_add,w
  5764  02A4  1C03               	skipc
  5765  02A5  0008               	return
  5766                           
  5767                           ;key_scan.c: 284: {
  5768                           ;key_scan.c: 285: if(key_long_flag == 0)
  5769  02A6  08F9               	movf	_key_long_flag,f
  5770  02A7  1D03               	skipz
  5771  02A8  0008               	return
  5772                           
  5773                           ;key_scan.c: 286: {
  5774                           ;key_scan.c: 287: key_long_flag = 0x04;
  5775  02A9  3004               	movlw	4
  5776  02AA  00F9               	movwf	_key_long_flag
  5777  02AB  2A97               	goto	l15378
  5778  02AC                     l15404:	
  5779                           ;key_scan.c: 291: }
  5780                           ;key_scan.c: 292: }
  5781                           ;key_scan.c: 293: }
  5782                           
  5783                           
  5784                           ;key_scan.c: 294: else if(KEY2_FLAG == 0x03)
  5785  02AC  0878               	movf	_KEY2_FLAG,w
  5786  02AD  3A03               	xorlw	3
  5787  02AE  1D03               	skipz
  5788  02AF  0008               	return
  5789  02B0  3001               	movlw	1
  5790                           
  5791                           ;key_scan.c: 295: {
  5792                           ;key_scan.c: 296: KEY2_FLAG = 0;
  5793  02B1  01F8               	clrf	_KEY2_FLAG
  5794                           
  5795                           ;key_scan.c: 297: if((flag_time_key2_add < 300))
  5796  02B2  0239               	subwf	_flag_time_key2_add+1,w
  5797  02B3  302C               	movlw	44
  5798  02B4  1903               	skipnz
  5799  02B5  0238               	subwf	_flag_time_key2_add,w
  5800                           
  5801                           ;key_scan.c: 298: {
  5802                           ;key_scan.c: 299: KEY2.channel_status ^= 1;
  5803  02B6  3001               	movlw	1
  5804  02B7  1803               	skipnc
  5805  02B8  2ABB               	goto	L14
  5806  02B9  06A6               	xorwf	_KEY2,f
  5807                           
  5808                           ;key_scan.c: 300: }
  5809  02BA  0008               	return
  5810  02BB                     L14:	
  5811                           ;key_scan.c: 301: else if(flag_time_key2_add < 500)
  5812                           
  5813  02BB  0239               	subwf	_flag_time_key2_add+1,w
  5814  02BC  30F4               	movlw	244
  5815  02BD  1903               	skipnz
  5816  02BE  0238               	subwf	_flag_time_key2_add,w
  5817                           
  5818                           ;key_scan.c: 302: {
  5819                           ;key_scan.c: 303: if(key_long_flag == 0x04)
  5820  02BF  0879               	movf	_key_long_flag,w
  5821  02C0  1803               	skipnc
  5822  02C1  2AD0               	goto	L15
  5823  02C2  3A04               	xorlw	4
  5824  02C3  1D03               	skipz
  5825  02C4  0008               	return
  5826  02C5  3041               	movlw	65
  5827                           
  5828                           ;key_scan.c: 304: {
  5829                           ;key_scan.c: 305: KEY2.key_flag_3s = 1;
  5830  02C6  01A7               	clrf	_KEY2+1
  5831  02C7  0AA7               	incf	_KEY2+1,f
  5832                           
  5833                           ;key_scan.c: 306: key_long_flag = 0x41;
  5834  02C8  00F9               	movwf	_key_long_flag
  5835                           
  5836                           ;key_scan.c: 307: sys_stute = 2;
  5837  02C9  3002               	movlw	2
  5838  02CA                     L8:	
  5839  02CA  00EE               	movwf	_sys_stute
  5840                           
  5841                           ;key_scan.c: 308: flag_time_key1_add = 0;
  5842  02CB  01B6               	clrf	_flag_time_key1_add
  5843  02CC  01B7               	clrf	_flag_time_key1_add+1
  5844                           
  5845                           ;key_scan.c: 309: flag_time_key0_add = 0;
  5846  02CD  01B4               	clrf	_flag_time_key0_add
  5847  02CE  01B5               	clrf	_flag_time_key0_add+1
  5848  02CF  0008               	return
  5849  02D0                     L15:	
  5850                           ;key_scan.c: 313: else
  5851                           ;key_scan.c: 314: {
  5852                           ;key_scan.c: 315: if(key_long_flag == 0x40)
  5853                           
  5854  02D0  3A40               	xorlw	64
  5855  02D1  1D03               	skipz
  5856  02D2  0008               	return
  5857  02D3  3041               	movlw	65
  5858                           
  5859                           ;key_scan.c: 316: {
  5860                           ;key_scan.c: 317: KEY2.key_flag_5s = 1;
  5861  02D4  01A8               	clrf	_KEY2+2
  5862  02D5  0AA8               	incf	_KEY2+2,f
  5863                           
  5864                           ;key_scan.c: 318: key_long_flag = 0x41;
  5865  02D6  00F9               	movwf	_key_long_flag
  5866                           
  5867                           ;key_scan.c: 319: sys_stute = 3;
  5868  02D7  3003               	movlw	3
  5869  02D8  2ACA               	goto	L8
  5870  02D9                     __end_of_key_value_read:	
  5871  02D9                     __ptext1149:	
  5872 ;; =============== function _IIC_START ends ============
  5873                           
  5874                           
  5875 ;; *************** function _key_scan *****************
  5876 ;; Defined at:
  5877 ;;		line 28 in file "F:\\\PAV03fix\PAV03\pav03\src\key_scan.c"
  5878 ;; Parameters:    Size  Location     Type
  5879 ;;		None
  5880 ;; Auto vars:     Size  Location     Type
  5881 ;;		None
  5882 ;; Return value:  Size  Location     Type
  5883 ;;		None               void
  5884 ;; Registers used:
  5885 ;;		wreg, fsr0l, fsr0h, status,2, status,0, pclath, cstack
  5886 ;; Tracked objects:
  5887 ;;		On entry : 60/0
  5888 ;;		On exit  : 60/0
  5889 ;;		Unchanged: FFF9F/0
  5890 ;; Data sizes:     COMMON   BANK0   BANK1
  5891 ;;      Params:         0       0       0
  5892 ;;      Locals:         0       0       0
  5893 ;;      Temps:          0       0       0
  5894 ;;      Totals:         0       0       0
  5895 ;;Total ram usage:        0 bytes
  5896 ;; Hardware stack levels used:    1
  5897 ;; Hardware stack levels required when called:    3
  5898 ;; This function calls:
  5899 ;;		_soft_delay_ms
  5900 ;; This function is called by:
  5901 ;;		_key_value_read
  5902 ;; This function uses a non-reentrant model
  5903 ;;
  5904  02D9                     _key_scan:	
  5905                           
  5906                           ;key_scan.c: 29: if(RB1 == 0)
  5907                           
  5908                           ; Regs used in _key_scan: [wreg-fsr0h+status,2+status,0+pclath+cstack]
  5909  02D9  1886               	btfsc	6,1
  5910  02DA  2AED               	goto	l7146
  5911                           
  5912                           ;key_scan.c: 30: {
  5913                           ;key_scan.c: 31: soft_delay_ms(10);
  5914  02DB  300A               	movlw	10
  5915  02DC  00F3               	movwf	?_soft_delay_ms
  5916  02DD  01F4               	clrf	?_soft_delay_ms+1
  5917  02DE  158A  275D  118A   	fcall	_soft_delay_ms
  5918                           
  5919                           ;key_scan.c: 32: if(RB1 == 0)
  5920  02E1  1C86               	btfss	6,1
  5921                           
  5922                           ;key_scan.c: 33: if((KEY0_FLAG&0x01) == 0)
  5923  02E2  1876               	btfsc	_KEY0_FLAG,0
  5924  02E3  2AF3               	goto	l15026
  5925                           
  5926                           ;key_scan.c: 34: {
  5927                           ;key_scan.c: 35: flag_time_key0_add = 0;
  5928  02E4  01B4               	clrf	_flag_time_key0_add
  5929  02E5  01B5               	clrf	_flag_time_key0_add+1
  5930                           
  5931                           ;key_scan.c: 36: KEY0_FLAG|=0X01;
  5932  02E6  1476               	bsf	_KEY0_FLAG,0
  5933                           
  5934                           ;key_scan.c: 37: if(key_long_flag_add == 0)
  5935  02E7  08FA               	movf	_key_long_flag_add,f
  5936  02E8  1D03               	skipz
  5937  02E9  2AF3               	goto	l15026
  5938                           
  5939                           ;key_scan.c: 38: {
  5940                           ;key_scan.c: 39: key_long_flag_add = 1;
  5941  02EA  01FA               	clrf	_key_long_flag_add
  5942  02EB  0AFA               	incf	_key_long_flag_add,f
  5943  02EC  2AF3               	goto	l15026
  5944  02ED                     l7146:	
  5945                           ;key_scan.c: 40: }
  5946                           ;key_scan.c: 41: }
  5947                           ;key_scan.c: 42: }
  5948                           
  5949                           
  5950                           ;key_scan.c: 43: else
  5951                           ;key_scan.c: 44: {
  5952                           ;key_scan.c: 45: if(KEY0_FLAG&0x01)
  5953  02ED  1C76               	btfss	_KEY0_FLAG,0
  5954  02EE  2AF3               	goto	l15026
  5955                           
  5956                           ;key_scan.c: 46: {
  5957                           ;key_scan.c: 47: KEY0_FLAG |= 0X02;
  5958  02EF  14F6               	bsf	_KEY0_FLAG,1
  5959                           
  5960                           ;key_scan.c: 48: if(key_long_flag_add == 1)
  5961  02F0  0B7A               	decfsz	_key_long_flag_add,w
  5962  02F1  2AF3               	goto	l15026
  5963                           
  5964                           ;key_scan.c: 49: {
  5965                           ;key_scan.c: 50: key_long_flag_add = 0;
  5966  02F2  01FA               	clrf	_key_long_flag_add
  5967  02F3                     l15026:	
  5968                           
  5969                           ;key_scan.c: 51: }
  5970                           ;key_scan.c: 52: }
  5971                           ;key_scan.c: 53: }
  5972                           ;key_scan.c: 55: if(RB2 == 0)
  5973  02F3  1906               	btfsc	6,2
  5974  02F4  2B07               	goto	l7153
  5975                           
  5976                           ;key_scan.c: 56: {
  5977                           ;key_scan.c: 57: soft_delay_ms(10);
  5978  02F5  300A               	movlw	10
  5979  02F6  00F3               	movwf	?_soft_delay_ms
  5980  02F7  01F4               	clrf	?_soft_delay_ms+1
  5981  02F8  158A  275D  118A   	fcall	_soft_delay_ms
  5982                           
  5983                           ;key_scan.c: 58: if(RB2 == 0)
  5984  02FB  1D06               	btfss	6,2
  5985                           
  5986                           ;key_scan.c: 59: if((KEY1_FLAG&0x01) == 0)
  5987  02FC  1877               	btfsc	_KEY1_FLAG,0
  5988  02FD  2B0E               	goto	l15048
  5989                           
  5990                           ;key_scan.c: 60: {
  5991                           ;key_scan.c: 61: flag_time_key1_add = 0;
  5992  02FE  01B6               	clrf	_flag_time_key1_add
  5993  02FF  01B7               	clrf	_flag_time_key1_add+1
  5994                           
  5995                           ;key_scan.c: 62: KEY1_FLAG |= 0X01;
  5996  0300  1477               	bsf	_KEY1_FLAG,0
  5997                           
  5998                           ;key_scan.c: 63: if(key_long_flag_add == 0)
  5999  0301  08FA               	movf	_key_long_flag_add,f
  6000  0302  1D03               	skipz
  6001  0303  2B0E               	goto	l15048
  6002                           
  6003                           ;key_scan.c: 64: {
  6004                           ;key_scan.c: 65: key_long_flag_add = 2;
  6005  0304  3002               	movlw	2
  6006  0305  00FA               	movwf	_key_long_flag_add
  6007  0306  2B0E               	goto	l15048
  6008  0307                     l7153:	
  6009                           ;key_scan.c: 66: }
  6010                           ;key_scan.c: 67: }
  6011                           ;key_scan.c: 69: }
  6012                           
  6013                           
  6014                           ;key_scan.c: 70: else
  6015                           ;key_scan.c: 71: {
  6016                           ;key_scan.c: 72: if(KEY1_FLAG & 0x01)
  6017  0307  1C77               	btfss	_KEY1_FLAG,0
  6018  0308  2B0E               	goto	l15048
  6019                           
  6020                           ;key_scan.c: 73: {
  6021                           ;key_scan.c: 74: KEY1_FLAG |= 0X02;
  6022  0309  14F7               	bsf	_KEY1_FLAG,1
  6023                           
  6024                           ;key_scan.c: 75: if(key_long_flag_add == 2)
  6025  030A  087A               	movf	_key_long_flag_add,w
  6026  030B  3A02               	xorlw	2
  6027  030C  1903               	btfsc	3,2
  6028                           
  6029                           ;key_scan.c: 76: {
  6030                           ;key_scan.c: 77: key_long_flag_add = 0;
  6031  030D  01FA               	clrf	_key_long_flag_add
  6032  030E                     l15048:	
  6033                           
  6034                           ;key_scan.c: 78: }
  6035                           ;key_scan.c: 79: }
  6036                           ;key_scan.c: 80: }
  6037                           ;key_scan.c: 86: if(RB3 == 0)
  6038  030E  1986               	btfsc	6,3
  6039  030F  2B22               	goto	l7160
  6040                           
  6041                           ;key_scan.c: 87: {
  6042                           ;key_scan.c: 88: soft_delay_ms(10);
  6043  0310  300A               	movlw	10
  6044  0311  00F3               	movwf	?_soft_delay_ms
  6045  0312  01F4               	clrf	?_soft_delay_ms+1
  6046  0313  158A  275D  118A   	fcall	_soft_delay_ms
  6047                           
  6048                           ;key_scan.c: 89: if(RB3 == 0)
  6049  0316  1D86               	btfss	6,3
  6050                           
  6051                           ;key_scan.c: 90: if((KEY2_FLAG&0x01) == 0)
  6052  0317  1878               	btfsc	_KEY2_FLAG,0
  6053  0318  2B3A               	goto	l15078
  6054                           
  6055                           ;key_scan.c: 91: {
  6056                           ;key_scan.c: 92: flag_time_key2_add = 0;
  6057  0319  01B8               	clrf	_flag_time_key2_add
  6058  031A  01B9               	clrf	_flag_time_key2_add+1
  6059                           
  6060                           ;key_scan.c: 93: KEY2_FLAG|=0X01;
  6061  031B  1478               	bsf	_KEY2_FLAG,0
  6062                           
  6063                           ;key_scan.c: 94: if(key_long_flag_add == 0)
  6064  031C  08FA               	movf	_key_long_flag_add,f
  6065  031D  1D03               	skipz
  6066  031E  2B3A               	goto	l15078
  6067                           
  6068                           ;key_scan.c: 95: {
  6069                           ;key_scan.c: 96: key_long_flag_add = 4;
  6070  031F  3004               	movlw	4
  6071  0320  00FA               	movwf	_key_long_flag_add
  6072  0321  2B3A               	goto	l15078
  6073  0322                     l7160:	
  6074                           
  6075                           ;key_scan.c: 100: else
  6076                           ;key_scan.c: 101: {
  6077                           ;key_scan.c: 102: if(KEY2_FLAG & 0x01)
  6078  0322  1C78               	btfss	_KEY2_FLAG,0
  6079  0323  2B3A               	goto	l15078
  6080                           
  6081                           ;key_scan.c: 103: {
  6082                           ;key_scan.c: 104: KEY2_FLAG |= 0X02;
  6083  0324  14F8               	bsf	_KEY2_FLAG,1
  6084                           
  6085                           ;key_scan.c: 105: if(key_long_flag_add == 4)
  6086  0325  087A               	movf	_key_long_flag_add,w
  6087  0326  3A04               	xorlw	4
  6088  0327  1D03               	skipz
  6089  0328  2B3A               	goto	l15078
  6090                           
  6091                           ;key_scan.c: 106: {
  6092                           ;key_scan.c: 107: key_long_flag_add = 0;
  6093  0329  01FA               	clrf	_key_long_flag_add
  6094  032A  2B3A               	goto	l15078
  6095  032B                     l15070:	
  6096                           ;key_scan.c: 108: }
  6097                           ;key_scan.c: 109: }
  6098                           ;key_scan.c: 110: }
  6099                           ;key_scan.c: 113: switch(key_long_flag_add)
  6100                           
  6101                           
  6102                           ;key_scan.c: 120: {
  6103                           ;key_scan.c: 121: flag_time_key1_add = 0;
  6104  032B  01B6               	clrf	_flag_time_key1_add
  6105  032C  01B7               	clrf	_flag_time_key1_add+1
  6106                           
  6107                           ;key_scan.c: 122: flag_time_key2_add = 0;
  6108  032D  01B8               	clrf	_flag_time_key2_add
  6109  032E  01B9               	clrf	_flag_time_key2_add+1
  6110                           
  6111                           ;key_scan.c: 123: }break;
  6112  032F  0008               	return
  6113  0330                     l15072:	
  6114                           
  6115                           ;key_scan.c: 125: {
  6116                           ;key_scan.c: 126: flag_time_key0_add = 0;
  6117  0330  01B4               	clrf	_flag_time_key0_add
  6118  0331  01B5               	clrf	_flag_time_key0_add+1
  6119                           
  6120                           ;key_scan.c: 127: flag_time_key2_add = 0;
  6121  0332  01B8               	clrf	_flag_time_key2_add
  6122  0333  01B9               	clrf	_flag_time_key2_add+1
  6123                           
  6124                           ;key_scan.c: 128: }break;
  6125  0334  0008               	return
  6126  0335                     l15074:	
  6127                           
  6128                           ;key_scan.c: 130: {
  6129                           ;key_scan.c: 131: flag_time_key0_add = 0;
  6130  0335  01B4               	clrf	_flag_time_key0_add
  6131  0336  01B5               	clrf	_flag_time_key0_add+1
  6132                           
  6133                           ;key_scan.c: 132: flag_time_key1_add = 0;
  6134  0337  01B6               	clrf	_flag_time_key1_add
  6135  0338  01B7               	clrf	_flag_time_key1_add+1
  6136                           
  6137                           ;key_scan.c: 133: }break;
  6138  0339  0008               	return
  6139  033A                     l15078:	
  6140  033A  087A               	movf	_key_long_flag_add,w
  6141                           
  6142                           ; Switch size 1, requested type "space"
  6143                           ; Number of cases is 4, Range of values is 0 to 4
  6144                           ; switch strategies available:
  6145                           ; Name         Instructions Cycles
  6146                           ; simple_byte           13     7 (average)
  6147                           ; direct_byte           17     7 (fixed)
  6148                           ; jumptable            260     6 (fixed)
  6149                           ; rangetable             9     6 (fixed)
  6150                           ; spacedrange           16     9 (fixed)
  6151                           ; locatedrange           5     3 (fixed)
  6152                           ;	Chosen strategy is simple_byte
  6153  033B  3A00               	xorlw	0	; case 0
  6154  033C  1903               	skipnz
  6155  033D  2B48               	goto	l7173
  6156  033E  3A01               	xorlw	1	; case 1
  6157  033F  1903               	skipnz
  6158  0340  2B2B               	goto	l15070
  6159  0341  3A03               	xorlw	3	; case 2
  6160  0342  1903               	skipnz
  6161  0343  2B30               	goto	l15072
  6162  0344  3A06               	xorlw	6	; case 4
  6163  0345  1903               	skipnz
  6164  0346  2B35               	goto	l15074
  6165  0347  2B48               	goto	l7173
  6166  0348                     l7173:	
  6167  0348  0008               	return
  6168  0349                     __end_of_key_scan:	
  6169  0349                     PL2:	
  6170  0349  1683               	bsf	3,5	;RP0=1, select bank1
  6171  034A  1007               	bcf	7,0
  6172  034B  1283               	bcf	3,5	;RP0=0, select bank0
  6173  034C  3064               	movlw	100
  6174  034D  1007               	bcf	7,0
  6175  034E  00F3               	movwf	?_soft_delay_ms
  6176  034F  01F4               	clrf	?_soft_delay_ms+1
  6177  0350  0008               	return
  6178  0351                     PL3:	
  6179  0351  1683               	bsf	3,5	;RP0=1, select bank1
  6180  0352  1007               	bcf	7,0
  6181  0353  1283               	bcf	3,5	;RP0=0, select bank0
  6182  0354  3064               	movlw	100
  6183  0355  1407               	bsf	7,0
  6184  0356  00F3               	movwf	?_soft_delay_ms
  6185  0357  01F4               	clrf	?_soft_delay_ms+1
  6186  0358  0008               	return
  6187  0359                     PL4:	
  6188  0359  1683               	bsf	3,5	;RP0=1, select bank1
  6189  035A  1007               	bcf	7,0
  6190  035B  1283               	bcf	3,5	;RP0=0, select bank0
  6191  035C  1407               	bsf	7,0
  6192  035D  0008               	return
  6193                           
  6194                           	psect	text1141
  6195  000D                     __ptext1141:	
  6196 ;; =============== function _key_value_read ends ============
  6197                           
  6198                           
  6199 ;; *************** function _RF_Set_RxMode *****************
  6200 ;; Defined at:
  6201 ;;		line 267 in file "F:\\\PAV03fix\PAV03\pav03\src\rf297L.c"
  6202 ;; Parameters:    Size  Location     Type
  6203 ;;		None
  6204 ;; Auto vars:     Size  Location     Type
  6205 ;;		None
  6206 ;; Return value:  Size  Location     Type
  6207 ;;		None               void
  6208 ;; Registers used:
  6209 ;;		wreg, status,2, status,0, pclath, cstack
  6210 ;; Tracked objects:
  6211 ;;		On entry : 60/0
  6212 ;;		On exit  : 60/0
  6213 ;;		Unchanged: FFF9F/0
  6214 ;; Data sizes:     COMMON   BANK0   BANK1
  6215 ;;      Params:         0       0       0
  6216 ;;      Locals:         0       0       0
  6217 ;;      Temps:          0       0       0
  6218 ;;      Totals:         0       0       0
  6219 ;;Total ram usage:        0 bytes
  6220 ;; Hardware stack levels used:    1
  6221 ;; Hardware stack levels required when called:    4
  6222 ;; This function calls:
  6223 ;;		_RF_WriteReg
  6224 ;;		_soft_delay_ms
  6225 ;; This function is called by:
  6226 ;;		_main
  6227 ;; This function uses a non-reentrant model
  6228 ;;
  6229  000D                     _RF_Set_RxMode:	
  6230                           
  6231                           ;rf297L.c: 268: RF_WriteReg(0x20 + 0x00, 0X87);
  6232                           
  6233                           ; Regs used in _RF_Set_RxMode: [wreg+status,2+status,0+pclath+cstack]
  6234  000D  3087               	movlw	135
  6235  000E  00F5               	movwf	?_RF_WriteReg
  6236  000F  3020               	movlw	32
  6237  0010  2181               	fcall	_RF_WriteReg
  6238                           
  6239                           ;rf297L.c: 269: soft_delay_ms(10);
  6240  0011  300A               	movlw	10
  6241  0012  00F3               	movwf	?_soft_delay_ms
  6242  0013  01F4               	clrf	?_soft_delay_ms+1
  6243  0014  158A  275D  118A   	fcall	_soft_delay_ms
  6244  0017  300A               	movlw	10
  6245                           
  6246                           ;rf297L.c: 270: RA7=1;
  6247  0018  1785               	bsf	5,7
  6248                           
  6249                           ;rf297L.c: 271: soft_delay_ms(10);
  6250  0019  00F3               	movwf	?_soft_delay_ms
  6251  001A  01F4               	clrf	?_soft_delay_ms+1
  6252  001B  158A  2F5D         	ljmp	l14732
  6253  001D                     __end_of_RF_Set_RxMode:	
  6254  001D                     __ptext1130:	
  6255 ;; =============== function _loadParamsFromEeprom ends ============
  6256                           
  6257                           
  6258 ;; *************** function _rx_data *****************
  6259 ;; Defined at:
  6260 ;;		line 80 in file "F:\\\PAV03fix\PAV03\pav03\src\recive.c"
  6261 ;; Parameters:    Size  Location     Type
  6262 ;;		None
  6263 ;; Auto vars:     Size  Location     Type
  6264 ;;  crc16           2   11[BANK0 ] unsigned int 
  6265 ;;  i               1   15[BANK0 ] unsigned char 
  6266 ;;  rx_flag         1   14[BANK0 ] unsigned char 
  6267 ;;  rand            1   13[BANK0 ] unsigned char 
  6268 ;; Return value:  Size  Location     Type
  6269 ;;                  1    wreg      unsigned char 
  6270 ;; Registers used:
  6271 ;;		wreg, fsr0l, fsr0h, status,2, status,0, btemp+1, pclath, cstack
  6272 ;; Tracked objects:
  6273 ;;		On entry : 60/0
  6274 ;;		On exit  : 60/0
  6275 ;;		Unchanged: FFE9F/0
  6276 ;; Data sizes:     COMMON   BANK0   BANK1
  6277 ;;      Params:         0       0       0
  6278 ;;      Locals:         0       5       0
  6279 ;;      Temps:          0       3       0
  6280 ;;      Totals:         0       8       0
  6281 ;;Total ram usage:        8 bytes
  6282 ;; Hardware stack levels used:    1
  6283 ;; Hardware stack levels required when called:    6
  6284 ;; This function calls:
  6285 ;;		_RF_RxData
  6286 ;;		_UpdateCRC
  6287 ;; This function is called by:
  6288 ;;		_recive_task
  6289 ;; This function uses a non-reentrant model
  6290 ;;
  6291  001D                     _rx_data:	
  6292  001D  3012               	movlw	18
  6293                           
  6294                           ;recive.c: 81: unsigned char rx_flag = 0;
  6295                           
  6296 ;; using string table level
  6297                           ; Regs used in _rx_data: [wreg-fsr0h+status,2+status,0+btemp+1+pclath+cstack]
  6298  001E  01DE               	clrf	rx_data@rx_flag
  6299                           
  6300                           ;recive.c: 83: unsigned char i = 0;
  6301  001F  01DF               	clrf	rx_data@i
  6302                           
  6303                           ;recive.c: 84: unsigned int crc16 = 0;
  6304  0020  01DB               	clrf	rx_data@crc16
  6305  0021  01DC               	clrf	rx_data@crc16+1
  6306                           
  6307                           ;recive.c: 86: if(RF_RxData(rf_buf,18))
  6308  0022  00D4               	movwf	?_RF_RxData
  6309  0023  303D               	movlw	_rf_buf& (0+255)
  6310  0024  20E3  118A         	fcall	_RF_RxData
  6311  0026  3A00               	xorlw	0
  6312  0027  1903               	skipnz
  6313  0028  28AA               	goto	l16882
  6314                           
  6315                           ;recive.c: 87: {
  6316                           ;recive.c: 88: for(i = 0; i < 18; i++)
  6317  0029  01DF               	clrf	rx_data@i
  6318  002A                     l16830:	
  6319                           
  6320                           ;recive.c: 89: {
  6321                           ;recive.c: 90: rf_buf[i] = rf_buf[i] ^ crc_2_4G_lib[3+i] ^ ble_crc_38[21+i];
  6322  002A  085F               	movf	rx_data@i,w
  6323  002B  3E16               	addlw	low ((_ble_crc_38-__stringbase+21))
  6324  002C  0084               	movwf	4
  6325  002D  118A  235E  118A   	fcall	stringdir
  6326  0030  00D8               	movwf	??_rx_data
  6327  0031  085F               	movf	rx_data@i,w
  6328  0032  3E2E               	addlw	low ((_crc_2_4G_lib-__stringbase+3))
  6329  0033  0084               	movwf	4
  6330  0034  118A  235E  118A   	fcall	stringdir
  6331  0037  00D9               	movwf	??_rx_data+1
  6332  0038  085F               	movf	rx_data@i,w
  6333  0039  3E3D               	addlw	_rf_buf& (0+255)
  6334  003A  0084               	movwf	4
  6335  003B  1383               	bcf	3,7	;select IRP bank0
  6336  003C  0800               	movf	0,w
  6337  003D  0659               	xorwf	??_rx_data+1,w
  6338  003E  0658               	xorwf	??_rx_data,w
  6339  003F  00DA               	movwf	??_rx_data+2
  6340  0040  085F               	movf	rx_data@i,w
  6341  0041  3E3D               	addlw	_rf_buf& (0+255)
  6342  0042  0084               	movwf	4
  6343  0043  085A               	movf	??_rx_data+2,w
  6344  0044  0080               	movwf	0
  6345  0045  3012               	movlw	18
  6346  0046  0ADF               	incf	rx_data@i,f
  6347  0047  025F               	subwf	rx_data@i,w
  6348  0048  1C03               	skipc
  6349  0049  282A               	goto	l16830
  6350                           
  6351                           ;recive.c: 91: }
  6352                           ;recive.c: 92: crc16 = rf_buf[16] + rf_buf[17] * 256;
  6353  004A  084E               	movf	_rf_buf+17,w
  6354  004B  00D8               	movwf	??_rx_data
  6355  004C  01D9               	clrf	??_rx_data+1
  6356  004D  00D9               	movwf	??_rx_data+1
  6357  004E  01D8               	clrf	??_rx_data
  6358  004F  084D               	movf	_rf_buf+16,w
  6359  0050  0758               	addwf	??_rx_data,w
  6360  0051  00DB               	movwf	rx_data@crc16
  6361  0052  0859               	movf	??_rx_data+1,w
  6362  0053  1803               	skipnc
  6363  0054  0A59               	incf	??_rx_data+1,w
  6364  0055  00DC               	movwf	rx_data@crc16+1
  6365                           
  6366                           ;recive.c: 93: for(i = 0; i < 16; i++)
  6367  0056  01DF               	clrf	rx_data@i
  6368  0057                     l16844:	
  6369                           
  6370                           ;recive.c: 94: {
  6371                           ;recive.c: 95: rf_buf[i] = rf_buf[i] ^ crc_lab[i];
  6372  0057  085F               	movf	rx_data@i,w
  6373  0058  3E40               	addlw	low (_crc_lab-__stringbase)
  6374  0059  0084               	movwf	4
  6375  005A  118A  235E  118A   	fcall	stringdir
  6376  005D  00D8               	movwf	??_rx_data
  6377  005E  085F               	movf	rx_data@i,w
  6378  005F  3E3D               	addlw	_rf_buf& (0+255)
  6379  0060  0084               	movwf	4
  6380  0061  0800               	movf	0,w
  6381  0062  0658               	xorwf	??_rx_data,w
  6382  0063  00D9               	movwf	??_rx_data+1
  6383  0064  085F               	movf	rx_data@i,w
  6384  0065  3E3D               	addlw	_rf_buf& (0+255)
  6385  0066  0084               	movwf	4
  6386  0067  0859               	movf	??_rx_data+1,w
  6387  0068  0080               	movwf	0
  6388  0069  3010               	movlw	16
  6389  006A  0ADF               	incf	rx_data@i,f
  6390  006B  025F               	subwf	rx_data@i,w
  6391  006C  1C03               	skipc
  6392  006D  2857               	goto	l16844
  6393                           
  6394                           ;recive.c: 96: }
  6395                           ;recive.c: 97: rand = rf_buf[15];
  6396  006E  084C               	movf	_rf_buf+15,w
  6397  006F  00DD               	movwf	rx_data@rand
  6398                           
  6399                           ;recive.c: 98: for(i = 7; i < 15; i++)
  6400  0070  3007               	movlw	7
  6401  0071  00DF               	movwf	rx_data@i
  6402  0072                     l16854:	
  6403                           
  6404                           ;recive.c: 99: {
  6405                           ;recive.c: 100: rf_buf[i] ^= rand;
  6406  0072  085F               	movf	rx_data@i,w
  6407  0073  3E3D               	addlw	_rf_buf& (0+255)
  6408  0074  0084               	movwf	4
  6409  0075  085D               	movf	rx_data@rand,w
  6410  0076  0680               	xorwf	0,f
  6411  0077  300F               	movlw	15
  6412  0078  0ADF               	incf	rx_data@i,f
  6413  0079  025F               	subwf	rx_data@i,w
  6414  007A  1C03               	skipc
  6415  007B  2872               	goto	l16854
  6416                           
  6417                           ;recive.c: 101: }
  6418                           ;recive.c: 102: if(crc16 == UpdateCRC(rf_buf,16) )
  6419  007C  3010               	movlw	16
  6420  007D  00F3               	movwf	?_UpdateCRC
  6421  007E  303D               	movlw	_rf_buf& (0+255)
  6422  007F  01F4               	clrf	?_UpdateCRC+1
  6423  0080  20AC  118A         	fcall	_UpdateCRC
  6424  0082  085C               	movf	rx_data@crc16+1,w
  6425  0083  0674               	xorwf	?_UpdateCRC+1,w
  6426  0084  1D03               	skipz
  6427  0085  2888               	goto	u5455
  6428  0086  085B               	movf	rx_data@crc16,w
  6429  0087  0673               	xorwf	?_UpdateCRC,w
  6430  0088                     u5455:	
  6431  0088  1D03               	skipz
  6432  0089  28AA               	goto	l16882
  6433                           
  6434                           ;recive.c: 103: {
  6435                           ;recive.c: 104: if((rf_buf[3] == 0) && (rf_buf[4] == 0) && (rf_buf[5] == 0) && (rf_buf[6
      +                          ] == 0))
  6436  008A  08C0               	movf	_rf_buf+3,f
  6437  008B  1D03               	skipz
  6438  008C  2898               	goto	l16872
  6439  008D  08C1               	movf	_rf_buf+4,f
  6440  008E  1D03               	skipz
  6441  008F  2898               	goto	l16872
  6442  0090  08C2               	movf	_rf_buf+5,f
  6443  0091  1D03               	skipz
  6444  0092  2898               	goto	l16872
  6445  0093  08C3               	movf	_rf_buf+6,f
  6446  0094  1D03               	skipz
  6447  0095  2898               	goto	l16872
  6448  0096                     l16870:	
  6449                           
  6450                           ;recive.c: 105: {
  6451                           ;recive.c: 106: rx_flag=0;
  6452  0096  01DE               	clrf	rx_data@rx_flag
  6453                           
  6454                           ;recive.c: 107: }
  6455  0097  28AA               	goto	l16882
  6456  0098                     l16872:	
  6457                           
  6458                           ;recive.c: 108: else if((rf_buf[3] == 0xff) && (rf_buf[4] == 0xff) && (rf_buf[5] == 0xff
      +                          ) && (rf_buf[6] == 0xff))
  6459  0098  0840               	movf	_rf_buf+3,w
  6460  0099  3AFF               	xorlw	255
  6461  009A  1D03               	skipz
  6462  009B  28A8               	goto	l9820
  6463  009C  0841               	movf	_rf_buf+4,w
  6464  009D  3AFF               	xorlw	255
  6465  009E  1D03               	skipz
  6466  009F  28A8               	goto	l9820
  6467  00A0  0842               	movf	_rf_buf+5,w
  6468  00A1  3AFF               	xorlw	255
  6469  00A2  1D03               	skipz
  6470  00A3  28A8               	goto	l9820
  6471  00A4  0843               	movf	_rf_buf+6,w
  6472  00A5  3AFF               	xorlw	255
  6473  00A6  1903               	btfsc	3,2
  6474  00A7  2896               	goto	l16870
  6475  00A8                     l9820:	
  6476                           
  6477                           ;recive.c: 112: else
  6478                           ;recive.c: 113: rx_flag = 1;
  6479  00A8  01DE               	clrf	rx_data@rx_flag
  6480  00A9  0ADE               	incf	rx_data@rx_flag,f
  6481  00AA                     l16882:	
  6482                           
  6483                           ;recive.c: 114: }
  6484                           ;recive.c: 116: }
  6485                           ;recive.c: 117: return rx_flag;
  6486  00AA  085E               	movf	rx_data@rx_flag,w
  6487  00AB  0008               	return
  6488  00AC                     __end_of_rx_data:	
  6489  00AC                     __ptext1156:	
  6490 ;; =============== function _iic_delay_us ends ============
  6491                           
  6492                           
  6493 ;; *************** function _UpdateCRC *****************
  6494 ;; Defined at:
  6495 ;;		line 53 in file "F:\\\PAV03fix\PAV03\pav03\src\recive.c"
  6496 ;; Parameters:    Size  Location     Type
  6497 ;;  CRC_input       1    wreg     PTR unsigned char 
  6498 ;;		 -> rf_buf(18), 
  6499 ;;  len             2    3[COMMON] unsigned int 
  6500 ;; Auto vars:     Size  Location     Type
  6501 ;;  CRC_input       1    3[BANK0 ] PTR unsigned char 
  6502 ;;		 -> rf_buf(18), 
  6503 ;;  CRC_acc         2    6[BANK0 ] unsigned short 
  6504 ;;  i               1    5[BANK0 ] unsigned char 
  6505 ;;  k               1    4[BANK0 ] unsigned char 
  6506 ;; Return value:  Size  Location     Type
  6507 ;;                  2    3[COMMON] unsigned short 
  6508 ;; Registers used:
  6509 ;;		wreg, fsr0l, fsr0h, status,2, status,0, btemp+1
  6510 ;; Tracked objects:
  6511 ;;		On entry : 160/0
  6512 ;;		On exit  : 160/0
  6513 ;;		Unchanged: FFE9F/0
  6514 ;; Data sizes:     COMMON   BANK0   BANK1
  6515 ;;      Params:         2       0       0
  6516 ;;      Locals:         0       5       0
  6517 ;;      Temps:          0       3       0
  6518 ;;      Totals:         2       8       0
  6519 ;;Total ram usage:       10 bytes
  6520 ;; Hardware stack levels used:    1
  6521 ;; Hardware stack levels required when called:    2
  6522 ;; This function calls:
  6523 ;;		Nothing
  6524 ;; This function is called by:
  6525 ;;		_rx_data
  6526 ;; This function uses a non-reentrant model
  6527 ;;
  6528  00AC                     _UpdateCRC:	
  6529                           
  6530                           ; Regs used in _UpdateCRC: [wreg-fsr0h+status,2+status,0+btemp+1]
  6531                           ;UpdateCRC@CRC_input stored from wreg
  6532  00AC  00D3               	movwf	UpdateCRC@CRC_input
  6533  00AD  3055               	movlw	85
  6534                           
  6535                           ;recive.c: 54: unsigned char i,k = 0;
  6536  00AE  01D4               	clrf	UpdateCRC@k
  6537                           
  6538                           ;recive.c: 55: unsigned short CRC_acc = 0x5555;
  6539  00AF  00D6               	movwf	UpdateCRC@CRC_acc
  6540  00B0  00D7               	movwf	UpdateCRC@CRC_acc+1
  6541  00B1                     l14922:	
  6542                           ;recive.c: 57: while (len--)
  6543                           
  6544  00B1  3001               	movlw	1
  6545  00B2  02F3               	subwf	UpdateCRC@len,f
  6546  00B3  3000               	movlw	0
  6547  00B4  1C03               	skipc
  6548  00B5  03F4               	decf	UpdateCRC@len+1,f
  6549  00B6  02F4               	subwf	UpdateCRC@len+1,f
  6550  00B7  0A73               	incf	UpdateCRC@len,w
  6551  00B8  1903               	skipnz
  6552  00B9  0A74               	incf	UpdateCRC@len+1,w
  6553  00BA  1903               	btfsc	3,2
  6554  00BB  28DE               	goto	l14924
  6555                           
  6556                           ;recive.c: 58: {
  6557                           ;recive.c: 59: CRC_acc = CRC_acc ^ (CRC_input[k++] << 8);
  6558  00BC  0854               	movf	UpdateCRC@k,w
  6559  00BD  0753               	addwf	UpdateCRC@CRC_input,w
  6560  00BE  00D0               	movwf	??_UpdateCRC
  6561  00BF  0084               	movwf	4
  6562  00C0  0800               	movf	0,w
  6563  00C1  00D1               	movwf	??_UpdateCRC+1
  6564  00C2  01D2               	clrf	??_UpdateCRC+2
  6565  00C3  00D2               	movwf	??_UpdateCRC+2
  6566  00C4  01D1               	clrf	??_UpdateCRC+1
  6567  00C5  0851               	movf	??_UpdateCRC+1,w
  6568  00C6  06D6               	xorwf	UpdateCRC@CRC_acc,f
  6569  00C7  0852               	movf	??_UpdateCRC+2,w
  6570  00C8  06D7               	xorwf	UpdateCRC@CRC_acc+1,f
  6571  00C9  0AD4               	incf	UpdateCRC@k,f
  6572                           
  6573                           ;recive.c: 61: for (i = 0; i < 8; i++)
  6574  00CA  01D5               	clrf	UpdateCRC@i
  6575  00CB                     l9802:	
  6576                           
  6577                           ;recive.c: 62: {
  6578                           ;recive.c: 63: if ((CRC_acc & 0x8000) == 0x8000)
  6579  00CB  1FD7               	btfss	UpdateCRC@CRC_acc+1,7
  6580  00CC  28D5               	goto	l14918
  6581  00CD  3021               	movlw	33
  6582                           
  6583                           ;recive.c: 64: {
  6584                           ;recive.c: 65: CRC_acc = CRC_acc << 1;
  6585  00CE  1003               	clrc
  6586  00CF  0DD6               	rlf	UpdateCRC@CRC_acc,f
  6587  00D0  0DD7               	rlf	UpdateCRC@CRC_acc+1,f
  6588                           
  6589                           ;recive.c: 66: CRC_acc ^= 0x1021;
  6590  00D1  06D6               	xorwf	UpdateCRC@CRC_acc,f
  6591  00D2  3010               	movlw	16
  6592  00D3  06D7               	xorwf	UpdateCRC@CRC_acc+1,f
  6593                           
  6594                           ;recive.c: 67: }
  6595  00D4  28D8               	goto	l9805
  6596  00D5                     l14918:	
  6597                           
  6598                           ;recive.c: 68: else
  6599                           ;recive.c: 69: {
  6600                           ;recive.c: 70: CRC_acc = CRC_acc << 1;
  6601  00D5  1003               	clrc
  6602  00D6  0DD6               	rlf	UpdateCRC@CRC_acc,f
  6603  00D7  0DD7               	rlf	UpdateCRC@CRC_acc+1,f
  6604  00D8                     l9805:	
  6605  00D8  3008               	movlw	8
  6606  00D9  0AD5               	incf	UpdateCRC@i,f
  6607  00DA  0255               	subwf	UpdateCRC@i,w
  6608  00DB  1803               	btfsc	3,0
  6609  00DC  28B1               	goto	l14922
  6610  00DD  28CB               	goto	l9802
  6611  00DE                     l14924:	
  6612                           
  6613                           ;recive.c: 71: }
  6614                           ;recive.c: 72: }
  6615                           ;recive.c: 73: }
  6616                           ;recive.c: 74: return CRC_acc;
  6617  00DE  0857               	movf	UpdateCRC@CRC_acc+1,w
  6618  00DF  00F4               	movwf	?_UpdateCRC+1
  6619  00E0  0856               	movf	UpdateCRC@CRC_acc,w
  6620  00E1  00F3               	movwf	?_UpdateCRC
  6621  00E2  0008               	return
  6622  00E3                     __end_of_UpdateCRC:	
  6623  00E3                     __ptext1134:	
  6624 ;; =============== function _AT24C02_Write_Msg ends ============
  6625                           
  6626                           
  6627 ;; *************** function _RF_RxData *****************
  6628 ;; Defined at:
  6629 ;;		line 134 in file "F:\\\PAV03fix\PAV03\pav03\src\rf297L.c"
  6630 ;; Parameters:    Size  Location     Type
  6631 ;;  payload_buff    1    wreg     PTR unsigned char 
  6632 ;;		 -> rf_buf(18), 
  6633 ;;  length          1    4[BANK0 ] unsigned char 
  6634 ;; Auto vars:     Size  Location     Type
  6635 ;;  payload_buff    1    6[BANK0 ] PTR unsigned char 
  6636 ;;		 -> rf_buf(18), 
  6637 ;; Return value:  Size  Location     Type
  6638 ;;                  1    wreg      unsigned char 
  6639 ;; Registers used:
  6640 ;;		wreg, fsr0l, fsr0h, status,2, status,0, pclath, cstack
  6641 ;; Tracked objects:
  6642 ;;		On entry : 60/0
  6643 ;;		On exit  : 60/0
  6644 ;;		Unchanged: FFE9F/0
  6645 ;; Data sizes:     COMMON   BANK0   BANK1
  6646 ;;      Params:         0       1       0
  6647 ;;      Locals:         0       1       0
  6648 ;;      Temps:          0       1       0
  6649 ;;      Totals:         0       3       0
  6650 ;;Total ram usage:        3 bytes
  6651 ;; Hardware stack levels used:    1
  6652 ;; Hardware stack levels required when called:    5
  6653 ;; This function calls:
  6654 ;;		_RF_GetStatus
  6655 ;;		_RF_Read_Buff
  6656 ;;		_RF_ClearFIFO
  6657 ;;		_RF_ClearStatus
  6658 ;; This function is called by:
  6659 ;;		_rx_data
  6660 ;; This function uses a non-reentrant model
  6661 ;;
  6662  00E3                     _RF_RxData:	
  6663                           
  6664                           ; Regs used in _RF_RxData: [wreg-fsr0h+status,2+status,0+pclath+cstack]
  6665                           ;RF_RxData@payload_buff stored from wreg
  6666  00E3  00D6               	movwf	RF_RxData@payload_buff
  6667                           
  6668                           ;rf297L.c: 135: if(!(RF_GetStatus() & 0X40))
  6669  00E4  21BB  118A         	fcall	_RF_GetStatus
  6670  00E6  00D5               	movwf	??_RF_RxData
  6671  00E7  1F55               	btfss	??_RF_RxData,6
  6672                           
  6673                           ;rf297L.c: 136: {
  6674                           ;rf297L.c: 137: return 0;
  6675  00E8  3400               	retlw	0
  6676                           
  6677                           ;rf297L.c: 138: }
  6678                           ;rf297L.c: 139: RF_Read_Buff(0x61, payload_buff, length);
  6679  00E9  0856               	movf	RF_RxData@payload_buff,w
  6680  00EA  00D0               	movwf	?_RF_Read_Buff
  6681  00EB  0854               	movf	RF_RxData@length,w
  6682  00EC  00D1               	movwf	?_RF_Read_Buff+1
  6683  00ED  3061               	movlw	97
  6684  00EE  20F4  118A         	fcall	_RF_Read_Buff
  6685                           
  6686                           ;rf297L.c: 141: RF_ClearFIFO();
  6687  00F0  21BF  118A         	fcall	_RF_ClearFIFO
  6688                           
  6689                           ;rf297L.c: 142: RF_ClearStatus();
  6690  00F2  21CF               	fcall	_RF_ClearStatus
  6691                           
  6692                           ;rf297L.c: 143: return 1;
  6693  00F3  3401               	retlw	1
  6694  00F4                     __end_of_RF_RxData:	
  6695  00F4                     __ptext1151:	
  6696 ;; =============== function _RF_ReadReg ends ============
  6697                           
  6698                           
  6699 ;; *************** function _RF_Read_Buff *****************
  6700 ;; Defined at:
  6701 ;;		line 275 in file "F:\\\PAV03fix\PAV03\pav03\src\rf297L.c"
  6702 ;; Parameters:    Size  Location     Type
  6703 ;;  reg_addr        1    wreg     unsigned char 
  6704 ;;  pBuff           1    0[BANK0 ] PTR unsigned char 
  6705 ;;		 -> rf_buf(18), 
  6706 ;;  length          1    1[BANK0 ] unsigned char 
  6707 ;; Auto vars:     Size  Location     Type
  6708 ;;  reg_addr        1    2[BANK0 ] unsigned char 
  6709 ;;  byte_ctr        1    3[BANK0 ] unsigned char 
  6710 ;; Return value:  Size  Location     Type
  6711 ;;		None               void
  6712 ;; Registers used:
  6713 ;;		wreg, fsr0l, fsr0h, status,2, status,0, pclath, cstack
  6714 ;; Tracked objects:
  6715 ;;		On entry : 60/0
  6716 ;;		On exit  : 60/0
  6717 ;;		Unchanged: FFE9F/0
  6718 ;; Data sizes:     COMMON   BANK0   BANK1
  6719 ;;      Params:         0       2       0
  6720 ;;      Locals:         0       2       0
  6721 ;;      Temps:          1       0       0
  6722 ;;      Totals:         1       4       0
  6723 ;;Total ram usage:        5 bytes
  6724 ;; Hardware stack levels used:    1
  6725 ;; Hardware stack levels required when called:    3
  6726 ;; This function calls:
  6727 ;;		_SPI_RW
  6728 ;; This function is called by:
  6729 ;;		_RF_RxData
  6730 ;; This function uses a non-reentrant model
  6731 ;;
  6732  00F4                     _RF_Read_Buff:	
  6733                           
  6734                           ; Regs used in _RF_Read_Buff: [wreg-fsr0h+status,2+status,0+pclath+cstack]
  6735                           ;RF_Read_Buff@reg_addr stored from wreg
  6736  00F4  00D2               	movwf	RF_Read_Buff@reg_addr
  6737                           
  6738                           ;rf297L.c: 276: unsigned char byte_ctr;
  6739                           ;rf297L.c: 277: RE2=0;
  6740  00F5  1109               	bcf	9,2
  6741                           
  6742                           ;rf297L.c: 278: SPI_RW(reg_addr);
  6743  00F6  219F  118A         	fcall	_SPI_RW
  6744                           
  6745                           ;rf297L.c: 279: for(byte_ctr=0;byte_ctr<length;byte_ctr++){
  6746  00F8  01D3               	clrf	RF_Read_Buff@byte_ctr
  6747  00F9                     l16704:	
  6748  00F9  0851               	movf	RF_Read_Buff@length,w
  6749  00FA  0253               	subwf	RF_Read_Buff@byte_ctr,w
  6750  00FB  1803               	btfsc	3,0
  6751  00FC  2908               	goto	l5193
  6752                           
  6753                           ;rf297L.c: 280: pBuff[byte_ctr] = SPI_RW(0);
  6754  00FD  0853               	movf	RF_Read_Buff@byte_ctr,w
  6755  00FE  0750               	addwf	RF_Read_Buff@pBuff,w
  6756  00FF  00F5               	movwf	??_RF_Read_Buff
  6757  0100  0084               	movwf	4
  6758  0101  3000               	movlw	0
  6759  0102  219F  118A         	fcall	_SPI_RW
  6760  0104  1383               	bcf	3,7	;select IRP bank0
  6761  0105  0080               	movwf	0
  6762  0106  0AD3               	incf	RF_Read_Buff@byte_ctr,f
  6763  0107  28F9               	goto	l16704
  6764  0108                     l5193:	
  6765                           
  6766                           ;rf297L.c: 281: }
  6767                           ;rf297L.c: 282: RE2=1;
  6768  0108  1509               	bsf	9,2
  6769  0109  0008               	return
  6770  010A                     __end_of_RF_Read_Buff:	
  6771  010A                     __ptext1142:	
  6772 ;; =============== function _RF_Set_RxMode ends ============
  6773                           
  6774                           
  6775 ;; *************** function _RF_Init *****************
  6776 ;; Defined at:
  6777 ;;		line 45 in file "F:\\\PAV03fix\PAV03\pav03\src\rf297L.c"
  6778 ;; Parameters:    Size  Location     Type
  6779 ;;		None
  6780 ;; Auto vars:     Size  Location     Type
  6781 ;;  feature         1    0        unsigned char 
  6782 ;; Return value:  Size  Location     Type
  6783 ;;		None               void
  6784 ;; Registers used:
  6785 ;;		wreg, fsr0l, fsr0h, status,2, status,0, pclath, cstack
  6786 ;; Tracked objects:
  6787 ;;		On entry : 60/20
  6788 ;;		On exit  : 60/0
  6789 ;;		Unchanged: FFF9F/0
  6790 ;; Data sizes:     COMMON   BANK0   BANK1
  6791 ;;      Params:         0       0       0
  6792 ;;      Locals:         0       1       0
  6793 ;;      Temps:          0       0       0
  6794 ;;      Totals:         0       1       0
  6795 ;;Total ram usage:        1 bytes
  6796 ;; Hardware stack levels used:    1
  6797 ;; Hardware stack levels required when called:    4
  6798 ;; This function calls:
  6799 ;;		_SPI_init
  6800 ;;		_RF_WriteReg
  6801 ;;		_RF_Write_Buff
  6802 ;; This function is called by:
  6803 ;;		_main
  6804 ;; This function uses a non-reentrant model
  6805 ;;
  6806  010A                     _RF_Init:	
  6807                           
  6808                           ;rf297L.c: 76: SPI_init();
  6809                           
  6810                           ; Regs used in _RF_Init: [wreg-fsr0h+status,2+status,0+pclath+cstack]
  6811  010A  21B4  118A         	fcall	_SPI_init
  6812                           
  6813                           ;rf297L.c: 77: RF_WriteReg(0x53, 0x5A);
  6814  010C  305A               	movlw	90
  6815  010D  00F5               	movwf	?_RF_WriteReg
  6816  010E  3053               	movlw	83
  6817  010F  2181  118A         	fcall	_RF_WriteReg
  6818                           
  6819                           ;rf297L.c: 78: RF_WriteReg(0x53, 0XA5);
  6820  0111  30A5               	movlw	165
  6821  0112  00F5               	movwf	?_RF_WriteReg
  6822  0113  3053               	movlw	83
  6823  0114  2181  118A         	fcall	_RF_WriteReg
  6824  0116  30E1               	movlw	225
  6825                           
  6826                           ;rf297L.c: 79: RF_WriteReg(0xE1, 0);
  6827  0117  01F5               	clrf	?_RF_WriteReg
  6828  0118  2181  118A         	fcall	_RF_WriteReg
  6829  011A  30E2               	movlw	226
  6830                           
  6831                           ;rf297L.c: 80: RF_WriteReg(0xE2, 0);
  6832  011B  01F5               	clrf	?_RF_WriteReg
  6833  011C  2181  118A         	fcall	_RF_WriteReg
  6834                           
  6835                           ;rf297L.c: 81: RF_WriteReg(0x20 + 0x07, 0x70);
  6836  011E  3070               	movlw	112
  6837  011F  00F5               	movwf	?_RF_WriteReg
  6838  0120  3027               	movlw	39
  6839  0121  2181  118A         	fcall	_RF_WriteReg
  6840  0123  3022               	movlw	34
  6841                           
  6842                           ;rf297L.c: 82: RF_WriteReg(0x20 + 0x02, 0x01);
  6843  0124  01F5               	clrf	?_RF_WriteReg
  6844  0125  0AF5               	incf	?_RF_WriteReg,f
  6845  0126  2181  118A         	fcall	_RF_WriteReg
  6846  0128  3023               	movlw	35
  6847                           
  6848                           ;rf297L.c: 83: RF_WriteReg(0x20 + 0x03, 0x01);
  6849  0129  01F5               	clrf	?_RF_WriteReg
  6850  012A  0AF5               	incf	?_RF_WriteReg,f
  6851  012B  2181  118A         	fcall	_RF_WriteReg
  6852                           
  6853                           ;rf297L.c: 84: RF_WriteReg(0x20 + 0x05, 26);
  6854  012D  301A               	movlw	26
  6855  012E  00F5               	movwf	?_RF_WriteReg
  6856  012F  3025               	movlw	37
  6857  0130  2181  118A         	fcall	_RF_WriteReg
  6858                           
  6859                           ;rf297L.c: 85: RF_WriteReg(0x20 + 0x11, 18);
  6860  0132  3012               	movlw	18
  6861  0133  00F5               	movwf	?_RF_WriteReg
  6862  0134  3031               	movlw	49
  6863  0135  2181  118A         	fcall	_RF_WriteReg
  6864                           
  6865                           ;rf297L.c: 86: RF_Write_Buff(0x20 + 0x10, TX_ADDRESS_DEF, sizeof(TX_ADDRESS_DEF));
  6866  0137  3075               	movlw	(_TX_ADDRESS_DEF-__stringbase)& (0+255)
  6867  0138  00D0               	movwf	?_RF_Write_Buff
  6868  0139  3003               	movlw	3
  6869  013A  00D1               	movwf	?_RF_Write_Buff+1
  6870  013B  3030               	movlw	48
  6871  013C  218A  118A         	fcall	_RF_Write_Buff
  6872                           
  6873                           ;rf297L.c: 87: RF_Write_Buff(0x20 + 0x0A,RX_ADDRESS_DEF, sizeof(RX_ADDRESS_DEF));
  6874  013E  3072               	movlw	(_RX_ADDRESS_DEF-__stringbase)& (0+255)
  6875  013F  00D0               	movwf	?_RF_Write_Buff
  6876  0140  3003               	movlw	3
  6877  0141  00D1               	movwf	?_RF_Write_Buff+1
  6878  0142  302A               	movlw	42
  6879  0143  218A  118A         	fcall	_RF_Write_Buff
  6880                           
  6881                           ;rf297L.c: 88: RF_Write_Buff(0x20 + 0x1F, BB_cal_data, sizeof(BB_cal_data));
  6882  0145  3061               	movlw	(RF_Init@BB_cal_data-__stringbase)& (0+255)
  6883  0146  00D0               	movwf	?_RF_Write_Buff
  6884  0147  3005               	movlw	5
  6885  0148  00D1               	movwf	?_RF_Write_Buff+1
  6886  0149  303F               	movlw	63
  6887  014A  218A  118A         	fcall	_RF_Write_Buff
  6888                           
  6889                           ;rf297L.c: 89: RF_Write_Buff(0x20 + 0x1A, RF_cal2_data, sizeof(RF_cal2_data));
  6890  014C  3056               	movlw	(RF_Init@RF_cal2_data-__stringbase)& (0+255)
  6891  014D  00D0               	movwf	?_RF_Write_Buff
  6892  014E  3006               	movlw	6
  6893  014F  00D1               	movwf	?_RF_Write_Buff+1
  6894  0150  303A               	movlw	58
  6895  0151  218A  118A         	fcall	_RF_Write_Buff
  6896                           
  6897                           ;rf297L.c: 90: RF_Write_Buff(0x20 + 0x19, Dem_cal_data, sizeof(Dem_cal_data));
  6898  0153  3079               	movlw	(RF_Init@Dem_cal_data-__stringbase)& (0+255)
  6899  0154  00D0               	movwf	?_RF_Write_Buff
  6900  0155  3039               	movlw	57
  6901  0156  01D1               	clrf	?_RF_Write_Buff+1
  6902  0157  0AD1               	incf	?_RF_Write_Buff+1,f
  6903  0158  218A  118A         	fcall	_RF_Write_Buff
  6904                           
  6905                           ;rf297L.c: 91: RF_Write_Buff(0x20 + 0x1E, RF_cal_data, sizeof(RF_cal_data));
  6906  015A  306F               	movlw	(RF_Init@RF_cal_data-__stringbase)& (0+255)
  6907  015B  00D0               	movwf	?_RF_Write_Buff
  6908  015C  3003               	movlw	3
  6909  015D  00D1               	movwf	?_RF_Write_Buff+1
  6910  015E  303E               	movlw	62
  6911  015F  218A  118A         	fcall	_RF_Write_Buff
  6912                           
  6913                           ;rf297L.c: 92: RF_Write_Buff(0x20 + 0x1B, Dem_cal2_data,sizeof(Dem_cal2_data));
  6914  0161  306C               	movlw	(RF_Init@Dem_cal2_data-__stringbase)& (0+255)
  6915  0162  00D0               	movwf	?_RF_Write_Buff
  6916  0163  3003               	movlw	3
  6917  0164  00D1               	movwf	?_RF_Write_Buff+1
  6918  0165  303B               	movlw	59
  6919  0166  218A  118A         	fcall	_RF_Write_Buff
  6920  0168  303C               	movlw	60
  6921                           
  6922                           ;rf297L.c: 93: RF_WriteReg(0x20 + 0x1C, 0x00);
  6923  0169  01F5               	clrf	?_RF_WriteReg
  6924  016A  2181  118A         	fcall	_RF_WriteReg
  6925                           
  6926                           ;rf297L.c: 94: RF_WriteReg(0x20 + 0x06, (0x0e |0X00));
  6927  016C  300E               	movlw	14
  6928  016D  00F5               	movwf	?_RF_WriteReg
  6929  016E  3026               	movlw	38
  6930  016F  2181  118A         	fcall	_RF_WriteReg
  6931                           
  6932                           ;rf297L.c: 95: RF_WriteReg(0x50, 0x73);
  6933  0171  3073               	movlw	115
  6934  0172  00F5               	movwf	?_RF_WriteReg
  6935  0173  3050               	movlw	80
  6936  0174  2181  118A         	fcall	_RF_WriteReg
  6937  0176  3024               	movlw	36
  6938                           
  6939                           ;rf297L.c: 101: RF_WriteReg(0x20 + 0x04,0x00);
  6940  0177  01F5               	clrf	?_RF_WriteReg
  6941  0178  2181  118A         	fcall	_RF_WriteReg
  6942  017A  3021               	movlw	33
  6943                           
  6944                           ;rf297L.c: 102: RF_WriteReg(0x20 + 0x01, 0x00);
  6945  017B  01F5               	clrf	?_RF_WriteReg
  6946  017C  2181  118A         	fcall	_RF_WriteReg
  6947                           
  6948                           ;rf297L.c: 113: if(18 >32){
  6949  017E  303D               	movlw	61
  6950                           
  6951                           ;rf297L.c: 115: }
  6952                           ;rf297L.c: 117: RF_WriteReg(0x20 + 0x1D, feature);
  6953  017F  01F5               	clrf	?_RF_WriteReg
  6954  0180  2981               	ljmp	_RF_WriteReg
  6955  0181                     __end_of_RF_Init:	
  6956  0181                     __ptext1153:	
  6957 ;; =============== function _RF_Write_Buff ends ============
  6958                           
  6959                           
  6960 ;; *************** function _RF_WriteReg *****************
  6961 ;; Defined at:
  6962 ;;		line 298 in file "F:\\\PAV03fix\PAV03\pav03\src\rf297L.c"
  6963 ;; Parameters:    Size  Location     Type
  6964 ;;  reg_addr        1    wreg     unsigned char 
  6965 ;;  write_data      1    5[COMMON] unsigned char 
  6966 ;; Auto vars:     Size  Location     Type
  6967 ;;  reg_addr        1    0[BANK0 ] unsigned char 
  6968 ;; Return value:  Size  Location     Type
  6969 ;;		None               void
  6970 ;; Registers used:
  6971 ;;		wreg, status,2, status,0, pclath, cstack
  6972 ;; Tracked objects:
  6973 ;;		On entry : 40/0
  6974 ;;		On exit  : 60/0
  6975 ;;		Unchanged: FFF9F/0
  6976 ;; Data sizes:     COMMON   BANK0   BANK1
  6977 ;;      Params:         1       0       0
  6978 ;;      Locals:         0       1       0
  6979 ;;      Temps:          0       0       0
  6980 ;;      Totals:         1       1       0
  6981 ;;Total ram usage:        2 bytes
  6982 ;; Hardware stack levels used:    1
  6983 ;; Hardware stack levels required when called:    3
  6984 ;; This function calls:
  6985 ;;		_SPI_RW
  6986 ;; This function is called by:
  6987 ;;		_RF_Init
  6988 ;;		_RF_ClearFIFO
  6989 ;;		_RF_ClearStatus
  6990 ;;		_RF_Set_RxMode
  6991 ;; This function uses a non-reentrant model
  6992 ;;
  6993  0181                     _RF_WriteReg:	
  6994                           
  6995                           ; Regs used in _RF_WriteReg: [wreg+status,2+status,0+pclath+cstack]
  6996                           ;RF_WriteReg@reg_addr stored from wreg
  6997  0181  1283               	bcf	3,5	;RP0=0, select bank0
  6998  0182  00D0               	movwf	RF_WriteReg@reg_addr
  6999                           
  7000                           ;rf297L.c: 299: RE2=0;
  7001  0183  1109               	bcf	9,2
  7002                           
  7003                           ;rf297L.c: 300: SPI_RW(reg_addr);
  7004  0184  219F  118A         	fcall	_SPI_RW
  7005                           
  7006                           ;rf297L.c: 301: SPI_RW(write_data);
  7007  0186  0875               	movf	RF_WriteReg@write_data,w
  7008  0187  219F               	fcall	_SPI_RW
  7009                           
  7010                           ;rf297L.c: 302: RE2=1;
  7011  0188  1509               	bsf	9,2
  7012  0189  0008               	return
  7013  018A                     __end_of_RF_WriteReg:	
  7014  018A                     __ptext1152:	
  7015 ;; =============== function _RF_Read_Buff ends ============
  7016                           
  7017                           
  7018 ;; *************** function _RF_Write_Buff *****************
  7019 ;; Defined at:
  7020 ;;		line 286 in file "F:\\\PAV03fix\PAV03\pav03\src\rf297L.c"
  7021 ;; Parameters:    Size  Location     Type
  7022 ;;  reg_addr        1    wreg     unsigned char 
  7023 ;;  pBuff           1    0[BANK0 ] PTR unsigned char 
  7024 ;;		 -> RF_Carrier@Dem_cal2_data(3), RF_Carrier@RF_cal_data(3), RF_Carrier@Dem_cal_data(1), RF_Carrier@RF_cal2_data(6), 
  7025 ;;		 -> RF_Carrier@BB_cal_data(5), RF_Init@Dem_cal2_data(3), RF_Init@RF_cal_data(3), RF_Init@Dem_cal_data(1), 
  7026 ;;		 -> RF_Init@RF_cal2_data(6), RF_Init@BB_cal_data(5), RX_ADDRESS_DEF(3), TX_ADDRESS_DEF(3), 
  7027 ;;  length          1    1[BANK0 ] unsigned char 
  7028 ;; Auto vars:     Size  Location     Type
  7029 ;;  reg_addr        1    2[BANK0 ] unsigned char 
  7030 ;;  i               1    3[BANK0 ] unsigned char 
  7031 ;; Return value:  Size  Location     Type
  7032 ;;		None               void
  7033 ;; Registers used:
  7034 ;;		wreg, fsr0l, fsr0h, status,2, status,0, pclath, cstack
  7035 ;; Tracked objects:
  7036 ;;		On entry : 60/0
  7037 ;;		On exit  : 60/0
  7038 ;;		Unchanged: FFF9F/0
  7039 ;; Data sizes:     COMMON   BANK0   BANK1
  7040 ;;      Params:         0       2       0
  7041 ;;      Locals:         0       2       0
  7042 ;;      Temps:          0       0       0
  7043 ;;      Totals:         0       4       0
  7044 ;;Total ram usage:        4 bytes
  7045 ;; Hardware stack levels used:    1
  7046 ;; Hardware stack levels required when called:    3
  7047 ;; This function calls:
  7048 ;;		_SPI_RW
  7049 ;; This function is called by:
  7050 ;;		_RF_Init
  7051 ;; This function uses a non-reentrant model
  7052 ;;
  7053  018A                     _RF_Write_Buff:	
  7054                           
  7055                           ; Regs used in _RF_Write_Buff: [wreg-fsr0h+status,2+status,0+pclath+cstack]
  7056                           ;RF_Write_Buff@reg_addr stored from wreg
  7057  018A  00D2               	movwf	RF_Write_Buff@reg_addr
  7058                           
  7059                           ;rf297L.c: 287: unsigned char i;
  7060                           ;rf297L.c: 288: RE2=0;
  7061  018B  1109               	bcf	9,2
  7062                           
  7063                           ;rf297L.c: 289: SPI_RW(reg_addr);
  7064  018C  219F  118A         	fcall	_SPI_RW
  7065                           
  7066                           ;rf297L.c: 290: for(i=0;i<length;i++)
  7067  018E  01D3               	clrf	RF_Write_Buff@i
  7068  018F                     l16692:	
  7069  018F  0851               	movf	RF_Write_Buff@length,w
  7070  0190  0253               	subwf	RF_Write_Buff@i,w
  7071  0191  1803               	btfsc	3,0
  7072  0192  299D               	goto	l5199
  7073                           
  7074                           ;rf297L.c: 291: {
  7075                           ;rf297L.c: 292: SPI_RW(pBuff[i]);
  7076  0193  0853               	movf	RF_Write_Buff@i,w
  7077  0194  0750               	addwf	RF_Write_Buff@pBuff,w
  7078  0195  0084               	movwf	4
  7079  0196  118A  235E  118A   	fcall	stringdir
  7080  0199  219F  118A         	fcall	_SPI_RW
  7081  019B  0AD3               	incf	RF_Write_Buff@i,f
  7082  019C  298F               	goto	l16692
  7083  019D                     l5199:	
  7084                           
  7085                           ;rf297L.c: 293: }
  7086                           ;rf297L.c: 294: RE2=1;
  7087  019D  1509               	bsf	9,2
  7088  019E  0008               	return
  7089  019F                     __end_of_RF_Write_Buff:	
  7090  019F                     __ptext1157:	
  7091 ;; =============== function _UpdateCRC ends ============
  7092                           
  7093                           
  7094 ;; *************** function _SPI_RW *****************
  7095 ;; Defined at:
  7096 ;;		line 331 in file "F:\\\PAV03fix\PAV03\pav03\src\rf297L.c"
  7097 ;; Parameters:    Size  Location     Type
  7098 ;;  read_reg_add    1    wreg     unsigned char 
  7099 ;; Auto vars:     Size  Location     Type
  7100 ;;  read_reg_add    1    3[COMMON] unsigned char 
  7101 ;;  i               1    4[COMMON] unsigned char 
  7102 ;; Return value:  Size  Location     Type
  7103 ;;                  1    wreg      unsigned char 
  7104 ;; Registers used:
  7105 ;;		wreg, status,2, status,0
  7106 ;; Tracked objects:
  7107 ;;		On entry : 60/0
  7108 ;;		On exit  : 60/0
  7109 ;;		Unchanged: FFF9F/0
  7110 ;; Data sizes:     COMMON   BANK0   BANK1
  7111 ;;      Params:         0       0       0
  7112 ;;      Locals:         2       0       0
  7113 ;;      Temps:          0       0       0
  7114 ;;      Totals:         2       0       0
  7115 ;;Total ram usage:        2 bytes
  7116 ;; Hardware stack levels used:    1
  7117 ;; Hardware stack levels required when called:    2
  7118 ;; This function calls:
  7119 ;;		Nothing
  7120 ;; This function is called by:
  7121 ;;		_RF_Read_Buff
  7122 ;;		_RF_Write_Buff
  7123 ;;		_RF_WriteReg
  7124 ;;		_RF_ReadReg
  7125 ;; This function uses a non-reentrant model
  7126 ;;
  7127  019F                     _SPI_RW:	
  7128                           
  7129                           ; Regs used in _SPI_RW: [wreg+status,2+status,0]
  7130                           ;SPI_RW@read_reg_addr stored from wreg
  7131  019F  00F3               	movwf	SPI_RW@read_reg_addr
  7132                           
  7133                           ;rf297L.c: 332: unsigned char i;
  7134                           ;rf297L.c: 333: for(i = 0; i < 8; i++)
  7135  01A0  01F4               	clrf	SPI_RW@i
  7136                           
  7137                           ;rf297L.c: 334: {
  7138                           ;rf297L.c: 335: RE1=0;
  7139  01A1  1089               	bcf	9,1
  7140  01A2                     L16:	
  7141                           
  7142                           ;rf297L.c: 336: if(read_reg_addr & 0x80)
  7143  01A2  1FF3               	btfss	SPI_RW@read_reg_addr,7
  7144  01A3  29A6               	goto	l5214
  7145                           
  7146                           ;rf297L.c: 337: {
  7147                           ;rf297L.c: 338: RA5=1;
  7148  01A4  1685               	bsf	5,5
  7149                           
  7150                           ;rf297L.c: 339: }
  7151  01A5  29A7               	goto	l5215
  7152  01A6                     l5214:	
  7153                           
  7154                           ;rf297L.c: 340: else
  7155                           ;rf297L.c: 341: {
  7156                           ;rf297L.c: 342: RA5=0;
  7157  01A6  1285               	bcf	5,5
  7158  01A7                     l5215:	
  7159                           
  7160                           ;rf297L.c: 343: }
  7161                           ;rf297L.c: 344: read_reg_addr = read_reg_addr << 1;
  7162  01A7  1003               	clrc
  7163  01A8  0DF3               	rlf	SPI_RW@read_reg_addr,f
  7164                           
  7165                           ;rf297L.c: 345: RE1=1;
  7166  01A9  1489               	bsf	9,1
  7167                           
  7168                           ;rf297L.c: 346: if( RA4 )
  7169  01AA  1A05               	btfsc	5,4
  7170                           
  7171                           ;rf297L.c: 347: {
  7172                           ;rf297L.c: 348: read_reg_addr = read_reg_addr | 0x01;
  7173  01AB  1473               	bsf	SPI_RW@read_reg_addr,0
  7174  01AC  3008               	movlw	8
  7175  01AD  0AF4               	incf	SPI_RW@i,f
  7176  01AE  0274               	subwf	SPI_RW@i,w
  7177                           
  7178                           ;rf297L.c: 349: }
  7179                           ;rf297L.c: 350: }
  7180                           ;rf297L.c: 351: RE1=0;
  7181  01AF  1089               	bcf	9,1
  7182  01B0  1C03               	skipc
  7183  01B1  29A2               	goto	L16
  7184                           
  7185                           ;rf297L.c: 352: return read_reg_addr;
  7186  01B2  0873               	movf	SPI_RW@read_reg_addr,w
  7187  01B3  0008               	return
  7188  01B4                     __end_of_SPI_RW:	
  7189  01B4                     __ptext1158:	
  7190 ;; =============== function _SPI_RW ends ============
  7191                           
  7192                           
  7193 ;; *************** function _SPI_init *****************
  7194 ;; Defined at:
  7195 ;;		line 316 in file "F:\\\PAV03fix\PAV03\pav03\src\rf297L.c"
  7196 ;; Parameters:    Size  Location     Type
  7197 ;;		None
  7198 ;; Auto vars:     Size  Location     Type
  7199 ;;		None
  7200 ;; Return value:  Size  Location     Type
  7201 ;;		None               void
  7202 ;; Registers used:
  7203 ;;		None
  7204 ;; Tracked objects:
  7205 ;;		On entry : 60/20
  7206 ;;		On exit  : 60/20
  7207 ;;		Unchanged: FFF9F/0
  7208 ;; Data sizes:     COMMON   BANK0   BANK1
  7209 ;;      Params:         0       0       0
  7210 ;;      Locals:         0       0       0
  7211 ;;      Temps:          0       0       0
  7212 ;;      Totals:         0       0       0
  7213 ;;Total ram usage:        0 bytes
  7214 ;; Hardware stack levels used:    1
  7215 ;; Hardware stack levels required when called:    2
  7216 ;; This function calls:
  7217 ;;		Nothing
  7218 ;; This function is called by:
  7219 ;;		_RF_Init
  7220 ;; This function uses a non-reentrant model
  7221 ;;
  7222  01B4                     _SPI_init:	
  7223                           
  7224                           ;rf297L.c: 318: TRISE2 =0;
  7225                           
  7226                           ; Regs used in _SPI_init: []
  7227  01B4  1109               	bcf	9,2
  7228                           
  7229                           ;rf297L.c: 319: TRISE1=0;
  7230  01B5  1089               	bcf	9,1
  7231                           
  7232                           ;rf297L.c: 320: TRISA5=0;
  7233  01B6  1285               	bcf	5,5
  7234                           
  7235                           ;rf297L.c: 321: TRISA7 = 0;
  7236  01B7  1385               	bcf	5,7
  7237                           
  7238                           ;rf297L.c: 323: TRISA3 = 1;
  7239  01B8  1585               	bsf	5,3
  7240                           
  7241                           ;rf297L.c: 324: TRISA4=1;
  7242  01B9  1605               	bsf	5,4
  7243  01BA  0008               	return
  7244  01BB                     __end_of_SPI_init:	
  7245  01BB                     __ptext1139:	
  7246 ;; =============== function _RF_ClearFIFO ends ============
  7247                           
  7248                           
  7249 ;; *************** function _RF_GetStatus *****************
  7250 ;; Defined at:
  7251 ;;		line 254 in file "F:\\\PAV03fix\PAV03\pav03\src\rf297L.c"
  7252 ;; Parameters:    Size  Location     Type
  7253 ;;		None
  7254 ;; Auto vars:     Size  Location     Type
  7255 ;;		None
  7256 ;; Return value:  Size  Location     Type
  7257 ;;                  1    wreg      unsigned char 
  7258 ;; Registers used:
  7259 ;;		wreg, status,2, status,0, pclath, cstack
  7260 ;; Tracked objects:
  7261 ;;		On entry : 60/0
  7262 ;;		On exit  : 60/0
  7263 ;;		Unchanged: FFF9F/0
  7264 ;; Data sizes:     COMMON   BANK0   BANK1
  7265 ;;      Params:         0       0       0
  7266 ;;      Locals:         0       0       0
  7267 ;;      Temps:          0       0       0
  7268 ;;      Totals:         0       0       0
  7269 ;;Total ram usage:        0 bytes
  7270 ;; Hardware stack levels used:    1
  7271 ;; Hardware stack levels required when called:    4
  7272 ;; This function calls:
  7273 ;;		_RF_ReadReg
  7274 ;; This function is called by:
  7275 ;;		_RF_RxData
  7276 ;; This function uses a non-reentrant model
  7277 ;;
  7278  01BB                     _RF_GetStatus:	
  7279                           
  7280                           ;rf297L.c: 255: return RF_ReadReg(0x07)&0x70;
  7281                           
  7282                           ; Regs used in _RF_GetStatus: [wreg+status,2+status,0+pclath+cstack]
  7283  01BB  3007               	movlw	7
  7284  01BC  21C6               	fcall	_RF_ReadReg
  7285  01BD  3970               	andlw	112
  7286  01BE  0008               	return
  7287  01BF                     __end_of_RF_GetStatus:	
  7288  01BF                     __ptext1138:	
  7289 ;; =============== function _RF_ClearStatus ends ============
  7290                           
  7291                           
  7292 ;; *************** function _RF_ClearFIFO *****************
  7293 ;; Defined at:
  7294 ;;		line 243 in file "F:\\\PAV03fix\PAV03\pav03\src\rf297L.c"
  7295 ;; Parameters:    Size  Location     Type
  7296 ;;		None
  7297 ;; Auto vars:     Size  Location     Type
  7298 ;;		None
  7299 ;; Return value:  Size  Location     Type
  7300 ;;		None               void
  7301 ;; Registers used:
  7302 ;;		wreg, status,2, status,0, pclath, cstack
  7303 ;; Tracked objects:
  7304 ;;		On entry : 60/0
  7305 ;;		On exit  : 60/0
  7306 ;;		Unchanged: FFF9F/0
  7307 ;; Data sizes:     COMMON   BANK0   BANK1
  7308 ;;      Params:         0       0       0
  7309 ;;      Locals:         0       0       0
  7310 ;;      Temps:          0       0       0
  7311 ;;      Totals:         0       0       0
  7312 ;;Total ram usage:        0 bytes
  7313 ;; Hardware stack levels used:    1
  7314 ;; Hardware stack levels required when called:    4
  7315 ;; This function calls:
  7316 ;;		_RF_WriteReg
  7317 ;; This function is called by:
  7318 ;;		_RF_RxData
  7319 ;;		_recive_task
  7320 ;; This function uses a non-reentrant model
  7321 ;;
  7322  01BF                     _RF_ClearFIFO:	
  7323                           
  7324                           ; Regs used in _RF_ClearFIFO: [wreg+status,2+status,0+pclath+cstack]
  7325  01BF  30E1               	movlw	225
  7326                           
  7327                           ;rf297L.c: 244: RF_WriteReg(0xE1, 0);
  7328  01C0  01F5               	clrf	?_RF_WriteReg
  7329  01C1  2181  118A         	fcall	_RF_WriteReg
  7330  01C3  30E2               	movlw	226
  7331                           
  7332                           ;rf297L.c: 245: RF_WriteReg(0xE2, 0);
  7333  01C4  01F5               	clrf	?_RF_WriteReg
  7334  01C5  2981               	ljmp	_RF_WriteReg
  7335  01C6                     __end_of_RF_ClearFIFO:	
  7336  01C6                     __ptext1150:	
  7337 ;; =============== function _key_scan ends ============
  7338                           
  7339                           
  7340 ;; *************** function _RF_ReadReg *****************
  7341 ;; Defined at:
  7342 ;;		line 306 in file "F:\\\PAV03fix\PAV03\pav03\src\rf297L.c"
  7343 ;; Parameters:    Size  Location     Type
  7344 ;;  reg_addr        1    wreg     unsigned char 
  7345 ;; Auto vars:     Size  Location     Type
  7346 ;;  reg_addr        1    0[BANK0 ] unsigned char 
  7347 ;;  tmp             1    1[BANK0 ] unsigned char 
  7348 ;; Return value:  Size  Location     Type
  7349 ;;                  1    wreg      unsigned char 
  7350 ;; Registers used:
  7351 ;;		wreg, status,2, status,0, pclath, cstack
  7352 ;; Tracked objects:
  7353 ;;		On entry : 60/0
  7354 ;;		On exit  : 60/0
  7355 ;;		Unchanged: FFF9F/0
  7356 ;; Data sizes:     COMMON   BANK0   BANK1
  7357 ;;      Params:         0       0       0
  7358 ;;      Locals:         0       2       0
  7359 ;;      Temps:          0       0       0
  7360 ;;      Totals:         0       2       0
  7361 ;;Total ram usage:        2 bytes
  7362 ;; Hardware stack levels used:    1
  7363 ;; Hardware stack levels required when called:    3
  7364 ;; This function calls:
  7365 ;;		_SPI_RW
  7366 ;; This function is called by:
  7367 ;;		_RF_GetStatus
  7368 ;; This function uses a non-reentrant model
  7369 ;;
  7370  01C6                     _RF_ReadReg:	
  7371                           
  7372                           ; Regs used in _RF_ReadReg: [wreg+status,2+status,0+pclath+cstack]
  7373                           ;RF_ReadReg@reg_addr stored from wreg
  7374  01C6  00D0               	movwf	RF_ReadReg@reg_addr
  7375                           
  7376                           ;rf297L.c: 307: unsigned char tmp;
  7377                           ;rf297L.c: 308: RE2=0;
  7378  01C7  1109               	bcf	9,2
  7379                           
  7380                           ;rf297L.c: 309: SPI_RW(reg_addr);
  7381  01C8  219F  118A         	fcall	_SPI_RW
  7382                           
  7383                           ;rf297L.c: 310: tmp = SPI_RW(0);
  7384  01CA  3000               	movlw	0
  7385  01CB  219F               	fcall	_SPI_RW
  7386  01CC  00D1               	movwf	RF_ReadReg@tmp
  7387                           
  7388                           ;rf297L.c: 311: RE2=1;
  7389  01CD  1509               	bsf	9,2
  7390                           
  7391                           ;rf297L.c: 312: return tmp;
  7392  01CE  0008               	return
  7393  01CF                     __end_of_RF_ReadReg:	
  7394  01CF                     __ptext1137:	
  7395 ;; =============== function _AT24C02_Write_Byte ends ============
  7396                           
  7397                           
  7398 ;; *************** function _RF_ClearStatus *****************
  7399 ;; Defined at:
  7400 ;;		line 249 in file "F:\\\PAV03fix\PAV03\pav03\src\rf297L.c"
  7401 ;; Parameters:    Size  Location     Type
  7402 ;;		None
  7403 ;; Auto vars:     Size  Location     Type
  7404 ;;		None
  7405 ;; Return value:  Size  Location     Type
  7406 ;;		None               void
  7407 ;; Registers used:
  7408 ;;		wreg, status,2, status,0, pclath, cstack
  7409 ;; Tracked objects:
  7410 ;;		On entry : 60/0
  7411 ;;		On exit  : 60/0
  7412 ;;		Unchanged: FFF9F/0
  7413 ;; Data sizes:     COMMON   BANK0   BANK1
  7414 ;;      Params:         0       0       0
  7415 ;;      Locals:         0       0       0
  7416 ;;      Temps:          0       0       0
  7417 ;;      Totals:         0       0       0
  7418 ;;Total ram usage:        0 bytes
  7419 ;; Hardware stack levels used:    1
  7420 ;; Hardware stack levels required when called:    4
  7421 ;; This function calls:
  7422 ;;		_RF_WriteReg
  7423 ;; This function is called by:
  7424 ;;		_RF_RxData
  7425 ;;		_recive_task
  7426 ;; This function uses a non-reentrant model
  7427 ;;
  7428  01CF                     _RF_ClearStatus:	
  7429  01CF                     l16776:	
  7430                           ; Regs used in _RF_ClearStatus: [wreg+status,2+status,0+pclath+cstack]
  7431                           
  7432                           
  7433                           ;rf297L.c: 250: RF_WriteReg(0x20 + 0x07,0x70);
  7434  01CF  3070               	movlw	112
  7435  01D0  00F5               	movwf	?_RF_WriteReg
  7436  01D1  3027               	movlw	39
  7437  01D2  2981               	ljmp	_RF_WriteReg
  7438  01D3                     __end_of_RF_ClearStatus:	
  7439                           
  7440                           	psect	text1147
  7441  057E                     __ptext1147:	
  7442 ;; =============== function _IIC_Wait_ACK ends ============
  7443                           
  7444                           
  7445 ;; *************** function _IIC_STOP *****************
  7446 ;; Defined at:
  7447 ;;		line 32 in file "F:\\\PAV03fix\PAV03\pav03\src\iic.c"
  7448 ;; Parameters:    Size  Location     Type
  7449 ;;		None
  7450 ;; Auto vars:     Size  Location     Type
  7451 ;;		None
  7452 ;; Return value:  Size  Location     Type
  7453 ;;		None               void
  7454 ;; Registers used:
  7455 ;;		wreg, status,2, status,0, pclath, cstack
  7456 ;; Tracked objects:
  7457 ;;		On entry : 60/0
  7458 ;;		On exit  : 60/0
  7459 ;;		Unchanged: FFF9F/0
  7460 ;; Data sizes:     COMMON   BANK0   BANK1
  7461 ;;      Params:         0       0       0
  7462 ;;      Locals:         0       0       0
  7463 ;;      Temps:          0       0       0
  7464 ;;      Totals:         0       0       0
  7465 ;;Total ram usage:        0 bytes
  7466 ;; Hardware stack levels used:    1
  7467 ;; Hardware stack levels required when called:    3
  7468 ;; This function calls:
  7469 ;;		_iic_delay_us
  7470 ;; This function is called by:
  7471 ;;		_AT24C02_Write_Byte
  7472 ;;		_AT24C02_Read_Byte
  7473 ;; This function uses a non-reentrant model
  7474 ;;
  7475  057E                     _IIC_STOP:	
  7476  057E                     l15088:	
  7477                           ; Regs used in _IIC_STOP: [wreg+status,2+status,0+pclath+cstack]
  7478                           
  7479                           
  7480                           ;iic.c: 33: TRISC1=0;
  7481  057E  1683               	bsf	3,5	;RP0=1, select bank1
  7482  057F  1087               	bcf	7,1
  7483                           
  7484                           ;iic.c: 34: RC1=0;
  7485  0580  1283               	bcf	3,5	;RP0=0, select bank0
  7486  0581  3001               	movlw	1
  7487  0582  1087               	bcf	7,1
  7488                           
  7489                           ;iic.c: 35: RC2=1;
  7490  0583  1507               	bsf	7,2
  7491                           
  7492                           ;iic.c: 36: iic_delay_us(1);
  7493  0584  158A  27EC         	fcall	_iic_delay_us
  7494                           
  7495                           ;iic.c: 37: RC1=1;
  7496  0586  1487               	bsf	7,1
  7497  0587  0008               	return
  7498  0588                     __end_of_IIC_STOP:	
  7499                           
  7500                           	psect	text1159
  7501  03DD                     __ptext1159:	
  7502 ;; =============== function _SPI_init ends ============
  7503                           
  7504                           
  7505 ;; *************** function _delay_task *****************
  7506 ;; Defined at:
  7507 ;;		line 940 in file "F:\\\PAV03fix\PAV03\pav03\src\recive.c"
  7508 ;; Parameters:    Size  Location     Type
  7509 ;;		None
  7510 ;; Auto vars:     Size  Location     Type
  7511 ;;		None
  7512 ;; Return value:  Size  Location     Type
  7513 ;;		None               void
  7514 ;; Registers used:
  7515 ;;		wreg, fsr0l, fsr0h, status,2, status,0
  7516 ;; Tracked objects:
  7517 ;;		On entry : 60/0
  7518 ;;		On exit  : 60/0
  7519 ;;		Unchanged: FFF9F/0
  7520 ;; Data sizes:     COMMON   BANK0   BANK1
  7521 ;;      Params:         0       0       0
  7522 ;;      Locals:         0       0       0
  7523 ;;      Temps:          0       0       0
  7524 ;;      Totals:         0       0       0
  7525 ;;Total ram usage:        0 bytes
  7526 ;; Hardware stack levels used:    1
  7527 ;; Hardware stack levels required when called:    2
  7528 ;; This function calls:
  7529 ;;		Nothing
  7530 ;; This function is called by:
  7531 ;;		_main
  7532 ;; This function uses a non-reentrant model
  7533 ;;
  7534  03DD                     _delay_task:	
  7535                           
  7536                           ;recive.c: 942: if(channel_delay[0] != 0)
  7537                           
  7538                           ; Regs used in _delay_task: [wreg-fsr0h+status,2+status,0]
  7539  03DD  0829               	movf	_channel_delay,w
  7540  03DE  1903               	btfsc	3,2
  7541  03DF  0008               	return
  7542                           
  7543                           ;recive.c: 943: {
  7544                           ;recive.c: 944: if(delay_flag == 0)delay_flag = 1;
  7545  03E0  08BB               	movf	_delay_flag,f
  7546  03E1  1D03               	skipz
  7547  03E2  2BE5               	goto	l14798
  7548  03E3  01BB               	clrf	_delay_flag
  7549  03E4  0ABB               	incf	_delay_flag,f
  7550  03E5                     l14798:	
  7551                           
  7552                           ;recive.c: 945: if(channel_delay[2] > 0)
  7553  03E5  082B               	movf	_channel_delay+2,w
  7554  03E6  1903               	btfsc	3,2
  7555  03E7  2C36               	goto	l14850
  7556                           
  7557                           ;recive.c: 946: {
  7558                           ;recive.c: 947: if(flag_5min_add >= 30000)
  7559  03E8  3075               	movlw	117
  7560  03E9  0231               	subwf	_flag_5min_add+1,w
  7561  03EA  3030               	movlw	48
  7562  03EB  1903               	skipnz
  7563  03EC  0230               	subwf	_flag_5min_add,w
  7564  03ED  1C03               	skipc
  7565  03EE  0008               	return
  7566                           
  7567                           ;recive.c: 948: {
  7568                           ;recive.c: 949: flag_5min_add = 0;
  7569  03EF  01B0               	clrf	_flag_5min_add
  7570  03F0  01B1               	clrf	_flag_5min_add+1
  7571                           
  7572                           ;recive.c: 950: channel_delay[2]--;
  7573  03F1  03AB               	decf	_channel_delay+2,f
  7574  03F2  0008               	return
  7575  03F3                     l14806:	
  7576                           
  7577                           ;recive.c: 958: {
  7578                           ;recive.c: 959: if(channel_delay[1] != 2)
  7579  03F3  082A               	movf	_channel_delay+1,w
  7580  03F4  3A02               	xorlw	2
  7581  03F5  1903               	skipnz
  7582  03F6  2BFA               	goto	l14810
  7583                           
  7584                           ;recive.c: 960: KEY0.channel_status = channel_delay[1];
  7585  03F7  082A               	movf	_channel_delay+1,w
  7586  03F8  00A0               	movwf	_KEY0
  7587  03F9  2C4D               	goto	l14852
  7588  03FA                     l14810:	
  7589                           
  7590                           ;recive.c: 961: else
  7591                           ;recive.c: 962: KEY0.channel_status ^= 1;
  7592  03FA  3001               	movlw	1
  7593  03FB  06A0               	xorwf	_KEY0,f
  7594  03FC  2C4D               	goto	l14852
  7595  03FD                     l14812:	
  7596                           
  7597                           ;recive.c: 965: {
  7598                           ;recive.c: 966: if(channel_delay[1] != 2)
  7599  03FD  082A               	movf	_channel_delay+1,w
  7600  03FE  3A02               	xorlw	2
  7601  03FF  1D03               	btfss	3,2
  7602  0400  2C0F               	goto	L17
  7603                           
  7604                           ;recive.c: 968: else
  7605                           ;recive.c: 969: KEY1.channel_status ^= 1;
  7606                           
  7607                           ;recive.c: 967: KEY1.channel_status = channel_delay[1];
  7608  0401  3001               	movlw	1
  7609  0402  2C14               	goto	L18
  7610  0403                     l14818:	
  7611                           
  7612                           ;recive.c: 972: {
  7613                           ;recive.c: 973: if(channel_delay[1] != 2)
  7614  0403  082A               	movf	_channel_delay+1,w
  7615  0404  3A02               	xorlw	2
  7616  0405  1D03               	btfss	3,2
  7617  0406  2C2E               	goto	L23
  7618                           
  7619                           ;recive.c: 975: else
  7620                           ;recive.c: 976: KEY2.channel_status ^= 1;
  7621                           
  7622                           ;recive.c: 974: KEY2.channel_status = channel_delay[1];
  7623  0407  3001               	movlw	1
  7624  0408  2C34               	goto	L24
  7625  0409                     l14824:	
  7626                           
  7627                           ;recive.c: 979: {
  7628                           ;recive.c: 980: if(channel_delay[1] != 2)
  7629  0409  082A               	movf	_channel_delay+1,w
  7630  040A  3A02               	xorlw	2
  7631  040B  1903               	skipnz
  7632  040C  2C12               	goto	l14828
  7633                           
  7634                           ;recive.c: 981: {
  7635                           ;recive.c: 982: KEY0.channel_status = channel_delay[1];
  7636  040D  082A               	movf	_channel_delay+1,w
  7637  040E  00A0               	movwf	_KEY0
  7638  040F                     L17:	
  7639                           
  7640                           ;recive.c: 983: KEY1.channel_status = channel_delay[1];
  7641  040F  082A               	movf	_channel_delay+1,w
  7642  0410  00A3               	movwf	_KEY1
  7643                           
  7644                           ;recive.c: 984: }
  7645  0411  2C4D               	goto	l14852
  7646  0412                     l14828:	
  7647                           
  7648                           ;recive.c: 985: else
  7649                           ;recive.c: 986: {
  7650                           ;recive.c: 987: KEY0.channel_status ^= 1;
  7651  0412  3001               	movlw	1
  7652  0413  06A0               	xorwf	_KEY0,f
  7653  0414                     L18:	
  7654                           
  7655                           ;recive.c: 988: KEY1.channel_status ^= 1;
  7656  0414  06A3               	xorwf	_KEY1,f
  7657  0415  2C4D               	goto	l14852
  7658  0416                     l14830:	
  7659                           
  7660                           ;recive.c: 992: {
  7661                           ;recive.c: 993: if(channel_delay[1] != 2)
  7662  0416  082A               	movf	_channel_delay+1,w
  7663  0417  3A02               	xorlw	2
  7664  0418  1903               	skipnz
  7665  0419  2C1D               	goto	l14834
  7666                           
  7667                           ;recive.c: 994: {
  7668                           ;recive.c: 995: KEY0.channel_status = channel_delay[1];
  7669  041A  082A               	movf	_channel_delay+1,w
  7670  041B  00A0               	movwf	_KEY0
  7671  041C  2C2E               	goto	L23
  7672  041D                     l14834:	
  7673                           ;recive.c: 997: }
  7674                           
  7675                           ;recive.c: 996: KEY2.channel_status = channel_delay[1];
  7676                           
  7677                           
  7678                           ;recive.c: 998: else
  7679                           ;recive.c: 999: {
  7680                           ;recive.c: 1000: KEY0.channel_status ^= 1;
  7681  041D  3001               	movlw	1
  7682  041E  06A0               	xorwf	_KEY0,f
  7683  041F  2C34               	goto	L24
  7684  0420                     l14836:	
  7685                           ;recive.c: 1001: KEY2.channel_status ^= 1;
  7686                           
  7687                           
  7688                           ;recive.c: 1005: {
  7689                           ;recive.c: 1006: if(channel_delay[1] != 2)
  7690  0420  082A               	movf	_channel_delay+1,w
  7691  0421  3A02               	xorlw	2
  7692  0422  1D03               	btfss	3,2
  7693  0423  2C2C               	goto	L25
  7694                           
  7695                           ;recive.c: 1011: else
  7696                           ;recive.c: 1012: {
  7697                           ;recive.c: 1013: KEY1.channel_status ^= 1;
  7698                           
  7699                           ;recive.c: 1010: }
  7700                           
  7701                           ;recive.c: 1009: KEY2.channel_status = channel_delay[1];
  7702                           
  7703                           ;recive.c: 1007: {
  7704                           ;recive.c: 1008: KEY1.channel_status = channel_delay[1];
  7705  0424  3001               	movlw	1
  7706  0425  2C33               	goto	L26
  7707  0426                     l14842:	
  7708                           ;recive.c: 1014: KEY2.channel_status ^= 1;
  7709                           
  7710                           
  7711                           ;recive.c: 1018: {
  7712                           ;recive.c: 1019: if(channel_delay[1] != 2)
  7713  0426  082A               	movf	_channel_delay+1,w
  7714  0427  3A02               	xorlw	2
  7715  0428  1903               	skipnz
  7716  0429  2C31               	goto	l14846
  7717                           
  7718                           ;recive.c: 1020: {
  7719                           ;recive.c: 1021: KEY0.channel_status = channel_delay[1];
  7720  042A  082A               	movf	_channel_delay+1,w
  7721  042B  00A0               	movwf	_KEY0
  7722  042C                     L25:	
  7723                           
  7724                           ;recive.c: 1022: KEY1.channel_status = channel_delay[1];
  7725  042C  082A               	movf	_channel_delay+1,w
  7726  042D  00A3               	movwf	_KEY1
  7727  042E                     L23:	
  7728                           
  7729                           ;recive.c: 1023: KEY2.channel_status = channel_delay[1];
  7730  042E  082A               	movf	_channel_delay+1,w
  7731  042F  00A6               	movwf	_KEY2
  7732                           
  7733                           ;recive.c: 1024: }
  7734  0430  2C4D               	goto	l14852
  7735  0431                     l14846:	
  7736                           
  7737                           ;recive.c: 1025: else
  7738                           ;recive.c: 1026: {
  7739                           ;recive.c: 1027: KEY0.channel_status ^= 1;
  7740  0431  3001               	movlw	1
  7741  0432  06A0               	xorwf	_KEY0,f
  7742  0433                     L26:	
  7743                           
  7744                           ;recive.c: 1028: KEY1.channel_status ^= 1;
  7745  0433  06A3               	xorwf	_KEY1,f
  7746  0434                     L24:	
  7747                           
  7748                           ;recive.c: 1029: KEY2.channel_status ^= 1;
  7749  0434  06A6               	xorwf	_KEY2,f
  7750  0435  2C4D               	goto	l14852
  7751  0436                     l14850:	
  7752  0436  0829               	movf	_channel_delay,w
  7753                           
  7754                           ; Switch size 1, requested type "space"
  7755                           ; Number of cases is 7, Range of values is 1 to 7
  7756                           ; switch strategies available:
  7757                           ; Name         Instructions Cycles
  7758                           ; simple_byte           22    12 (average)
  7759                           ; direct_byte           24    10 (fixed)
  7760                           ; jumptable            263     9 (fixed)
  7761                           ;	Chosen strategy is simple_byte
  7762  0437  3A01               	xorlw	1	; case 1
  7763  0438  1903               	skipnz
  7764  0439  2BF3               	goto	l14806
  7765  043A  3A03               	xorlw	3	; case 2
  7766  043B  1903               	skipnz
  7767  043C  2BFD               	goto	l14812
  7768  043D  3A01               	xorlw	1	; case 3
  7769  043E  1903               	skipnz
  7770  043F  2C09               	goto	l14824
  7771  0440  3A07               	xorlw	7	; case 4
  7772  0441  1903               	skipnz
  7773  0442  2C03               	goto	l14818
  7774  0443  3A01               	xorlw	1	; case 5
  7775  0444  1903               	skipnz
  7776  0445  2C16               	goto	l14830
  7777  0446  3A03               	xorlw	3	; case 6
  7778  0447  1903               	skipnz
  7779  0448  2C20               	goto	l14836
  7780  0449  3A01               	xorlw	1	; case 7
  7781  044A  1903               	skipnz
  7782  044B  2C26               	goto	l14842
  7783  044C  2C4D               	goto	l14852
  7784  044D                     l14852:	
  7785                           
  7786                           ;recive.c: 1035: channel_delay[0] = 0;
  7787  044D  01A9               	clrf	_channel_delay
  7788                           
  7789                           ;recive.c: 1036: channel_delay[1] = 0;
  7790  044E  01AA               	clrf	_channel_delay+1
  7791                           
  7792                           ;recive.c: 1037: channel_delay[2] = 0;
  7793  044F  01AB               	clrf	_channel_delay+2
  7794                           
  7795                           ;recive.c: 1038: delay_flag=0;
  7796  0450  01BB               	clrf	_delay_flag
  7797  0451  0008               	return
  7798  0452                     __end_of_delay_task:	
  7799                           
  7800                           	psect	text1160
  7801  04F2                     __ptext1160:	
  7802 ;; =============== function _delay_task ends ============
  7803                           
  7804                           
  7805 ;; *************** function _channel_set *****************
  7806 ;; Defined at:
  7807 ;;		line 894 in file "F:\\\PAV03fix\PAV03\pav03\src\recive.c"
  7808 ;; Parameters:    Size  Location     Type
  7809 ;;  channel_num     1    wreg     unsigned char 
  7810 ;;  status          1    3[COMMON] unsigned char 
  7811 ;; Auto vars:     Size  Location     Type
  7812 ;;  channel_num     1    4[COMMON] unsigned char 
  7813 ;; Return value:  Size  Location     Type
  7814 ;;		None               void
  7815 ;; Registers used:
  7816 ;;		wreg, fsr0l, fsr0h, status,2, status,0
  7817 ;; Tracked objects:
  7818 ;;		On entry : 60/0
  7819 ;;		On exit  : 60/0
  7820 ;;		Unchanged: FFF9F/0
  7821 ;; Data sizes:     COMMON   BANK0   BANK1
  7822 ;;      Params:         1       0       0
  7823 ;;      Locals:         1       0       0
  7824 ;;      Temps:          0       0       0
  7825 ;;      Totals:         2       0       0
  7826 ;;Total ram usage:        2 bytes
  7827 ;; Hardware stack levels used:    1
  7828 ;; Hardware stack levels required when called:    2
  7829 ;; This function calls:
  7830 ;;		Nothing
  7831 ;; This function is called by:
  7832 ;;		_main
  7833 ;; This function uses a non-reentrant model
  7834 ;;
  7835  04F2                     _channel_set:	
  7836                           
  7837                           ; Regs used in _channel_set: [wreg-fsr0h+status,2+status,0]
  7838                           ;channel_set@channel_num stored from wreg
  7839  04F2  00F4               	movwf	channel_set@channel_num
  7840                           
  7841                           ;recive.c: 895: switch(channel_num)
  7842  04F3  2D1B               	goto	l14790
  7843  04F4                     l10039:	
  7844                           ;recive.c: 896: {
  7845                           ;recive.c: 897: case 0 :
  7846                           
  7847                           
  7848                           ;recive.c: 898: {
  7849                           ;recive.c: 899: if(status)
  7850  04F4  0873               	movf	channel_set@status,w
  7851  04F5  1903               	btfsc	3,2
  7852  04F6  2CFC               	goto	l10040
  7853                           
  7854                           ;recive.c: 900: {
  7855                           ;recive.c: 901: TRISB6 = 0;
  7856  04F7  1683               	bsf	3,5	;RP0=1, select bank1
  7857  04F8  1306               	bcf	6,6
  7858                           
  7859                           ;recive.c: 902: RB6 = 1;
  7860  04F9  1283               	bcf	3,5	;RP0=0, select bank0
  7861  04FA  1706               	bsf	6,6
  7862                           
  7863                           ;recive.c: 903: }
  7864  04FB  0008               	return
  7865  04FC                     l10040:	
  7866                           
  7867                           ;recive.c: 904: else
  7868                           ;recive.c: 905: {
  7869                           ;recive.c: 906: TRISB6 = 0;
  7870  04FC  1683               	bsf	3,5	;RP0=1, select bank1
  7871  04FD  1306               	bcf	6,6
  7872                           
  7873                           ;recive.c: 907: RB6 = 0;
  7874  04FE  1283               	bcf	3,5	;RP0=0, select bank0
  7875  04FF  1306               	bcf	6,6
  7876  0500  0008               	return
  7877  0501                     l10043:	
  7878                           ;recive.c: 910: case 1:
  7879                           
  7880                           
  7881                           ;recive.c: 911: {
  7882                           ;recive.c: 912: if(status)
  7883  0501  0873               	movf	channel_set@status,w
  7884  0502  1903               	btfsc	3,2
  7885  0503  2D09               	goto	l10044
  7886                           
  7887                           ;recive.c: 913: {
  7888                           ;recive.c: 914: TRISB5 = 0;
  7889  0504  1683               	bsf	3,5	;RP0=1, select bank1
  7890  0505  1286               	bcf	6,5
  7891                           
  7892                           ;recive.c: 915: RB5 = 1;
  7893  0506  1283               	bcf	3,5	;RP0=0, select bank0
  7894  0507  1686               	bsf	6,5
  7895                           
  7896                           ;recive.c: 916: }
  7897  0508  0008               	return
  7898  0509                     l10044:	
  7899                           
  7900                           ;recive.c: 917: else
  7901                           ;recive.c: 918: {
  7902                           ;recive.c: 919: TRISB5 = 0;
  7903  0509  1683               	bsf	3,5	;RP0=1, select bank1
  7904  050A  1286               	bcf	6,5
  7905                           
  7906                           ;recive.c: 920: RB5 = 0;
  7907  050B  1283               	bcf	3,5	;RP0=0, select bank0
  7908  050C  1286               	bcf	6,5
  7909  050D  0008               	return
  7910  050E                     l10046:	
  7911                           ;recive.c: 923: case 2:
  7912                           
  7913                           
  7914                           ;recive.c: 924: {
  7915                           ;recive.c: 925: if(status)
  7916  050E  0873               	movf	channel_set@status,w
  7917  050F  1903               	btfsc	3,2
  7918  0510  2D16               	goto	l10047
  7919                           
  7920                           ;recive.c: 926: {
  7921                           ;recive.c: 927: TRISB4 = 0;
  7922  0511  1683               	bsf	3,5	;RP0=1, select bank1
  7923  0512  1206               	bcf	6,4
  7924                           
  7925                           ;recive.c: 928: RB4 = 1;
  7926  0513  1283               	bcf	3,5	;RP0=0, select bank0
  7927  0514  1606               	bsf	6,4
  7928                           
  7929                           ;recive.c: 929: }
  7930  0515  0008               	return
  7931  0516                     l10047:	
  7932                           
  7933                           ;recive.c: 930: else
  7934                           ;recive.c: 931: {
  7935                           ;recive.c: 932: TRISB4 = 0;
  7936  0516  1683               	bsf	3,5	;RP0=1, select bank1
  7937  0517  1206               	bcf	6,4
  7938                           
  7939                           ;recive.c: 933: RB4 = 0;
  7940  0518  1283               	bcf	3,5	;RP0=0, select bank0
  7941  0519  1206               	bcf	6,4
  7942  051A  0008               	return
  7943  051B                     l14790:	
  7944  051B  0874               	movf	channel_set@channel_num,w
  7945                           
  7946                           ; Switch size 1, requested type "space"
  7947                           ; Number of cases is 3, Range of values is 0 to 2
  7948                           ; switch strategies available:
  7949                           ; Name         Instructions Cycles
  7950                           ; simple_byte           10     6 (average)
  7951                           ; direct_byte           13     7 (fixed)
  7952                           ; jumptable            260     6 (fixed)
  7953                           ; rangetable             7     6 (fixed)
  7954                           ; spacedrange           12     9 (fixed)
  7955                           ; locatedrange           3     3 (fixed)
  7956                           ;	Chosen strategy is simple_byte
  7957  051C  3A00               	xorlw	0	; case 0
  7958  051D  1903               	skipnz
  7959  051E  2CF4               	goto	l10039
  7960  051F  3A01               	xorlw	1	; case 1
  7961  0520  1903               	skipnz
  7962  0521  2D01               	goto	l10043
  7963  0522  3A03               	xorlw	3	; case 2
  7964  0523  1903               	skipnz
  7965  0524  2D0E               	goto	l10046
  7966  0525  2D26               	goto	l10049
  7967  0526                     l10049:	
  7968  0526  0008               	return
  7969  0527                     __end_of_channel_set:	
  7970                           
  7971                           	psect	text1161
  7972  05A8                     __ptext1161:	
  7973 ;; =============== function _channel_set ends ============
  7974                           
  7975                           
  7976 ;; *************** function _Enable_Interrupt *****************
  7977 ;; Defined at:
  7978 ;;		line 38 in file "F:\\\PAV03fix\PAV03\pav03\src\system.c"
  7979 ;; Parameters:    Size  Location     Type
  7980 ;;		None
  7981 ;; Auto vars:     Size  Location     Type
  7982 ;;		None
  7983 ;; Return value:  Size  Location     Type
  7984 ;;		None               void
  7985 ;; Registers used:
  7986 ;;		None
  7987 ;; Tracked objects:
  7988 ;;		On entry : 60/0
  7989 ;;		On exit  : 60/0
  7990 ;;		Unchanged: FFF9F/0
  7991 ;; Data sizes:     COMMON   BANK0   BANK1
  7992 ;;      Params:         0       0       0
  7993 ;;      Locals:         0       0       0
  7994 ;;      Temps:          0       0       0
  7995 ;;      Totals:         0       0       0
  7996 ;;Total ram usage:        0 bytes
  7997 ;; Hardware stack levels used:    1
  7998 ;; Hardware stack levels required when called:    2
  7999 ;; This function calls:
  8000 ;;		Nothing
  8001 ;; This function is called by:
  8002 ;;		_main
  8003 ;; This function uses a non-reentrant model
  8004 ;;
  8005  05A8                     _Enable_Interrupt:	
  8006                           
  8007                           ;system.c: 39: INTCON |= 0x80;
  8008                           
  8009                           ; Regs used in _Enable_Interrupt: []
  8010  05A8  178B               	bsf	11,7	;volatile
  8011  05A9  0008               	return
  8012  05AA                     __end_of_Enable_Interrupt:	
  8013                           
  8014                           	psect	text1162
  8015  0567                     __ptext1162:	
  8016 ;; =============== function _Enable_Interrupt ends ============
  8017                           
  8018                           
  8019 ;; *************** function _Timer1_start *****************
  8020 ;; Defined at:
  8021 ;;		line 43 in file "F:\\\PAV03fix\PAV03\pav03\src\timer1.c"
  8022 ;; Parameters:    Size  Location     Type
  8023 ;;  T_nums          2    3[COMMON] unsigned int 
  8024 ;;  Timer1_ISR_e    1    5[COMMON] unsigned char 
  8025 ;; Auto vars:     Size  Location     Type
  8026 ;;		None
  8027 ;; Return value:  Size  Location     Type
  8028 ;;		None               void
  8029 ;; Registers used:
  8030 ;;		wreg
  8031 ;; Tracked objects:
  8032 ;;		On entry : 60/20
  8033 ;;		On exit  : 60/0
  8034 ;;		Unchanged: FFF9F/0
  8035 ;; Data sizes:     COMMON   BANK0   BANK1
  8036 ;;      Params:         3       0       0
  8037 ;;      Locals:         0       0       0
  8038 ;;      Temps:          0       2       0
  8039 ;;      Totals:         3       2       0
  8040 ;;Total ram usage:        5 bytes
  8041 ;; Hardware stack levels used:    1
  8042 ;; Hardware stack levels required when called:    2
  8043 ;; This function calls:
  8044 ;;		Nothing
  8045 ;; This function is called by:
  8046 ;;		_main
  8047 ;; This function uses a non-reentrant model
  8048 ;;
  8049  0567                     _Timer1_start:	
  8050                           
  8051                           ;timer1.c: 44: Timer1_set_time = 0xffff - T_nums + Timer1_ISR_execution_total_time;
  8052                           
  8053                           ; Regs used in _Timer1_start: [wreg]
  8054  0567  0875               	movf	Timer1_start@Timer1_ISR_execution_total_time,w
  8055  0568  1283               	bcf	3,5	;RP0=0, select bank0
  8056  0569  00AE               	movwf	_Timer1_set_time	;volatile
  8057  056A  01AF               	clrf	_Timer1_set_time+1	;volatile
  8058  056B  0874               	movf	Timer1_start@T_nums+1,w
  8059  056C  00D1               	movwf	??_Timer1_start+1
  8060  056D  0873               	movf	Timer1_start@T_nums,w
  8061  056E  00D0               	movwf	??_Timer1_start
  8062  056F  09D0               	comf	??_Timer1_start,f
  8063  0570  09D1               	comf	??_Timer1_start+1,f
  8064  0571  0850               	movf	??_Timer1_start,w
  8065  0572  07AE               	addwf	_Timer1_set_time,f	;volatile
  8066  0573  1803               	skipnc
  8067  0574  0AAF               	incf	_Timer1_set_time+1,f	;volatile
  8068  0575  0851               	movf	??_Timer1_start+1,w
  8069  0576  07AF               	addwf	_Timer1_set_time+1,f	;volatile
  8070                           
  8071                           ;timer1.c: 45: TMR1L = (unsigned char)(Timer1_set_time);
  8072  0577  082E               	movf	_Timer1_set_time,w	;volatile
  8073  0578  008E               	movwf	14	;volatile
  8074                           
  8075                           ;timer1.c: 46: TMR1H = (unsigned char)(Timer1_set_time>>8);
  8076  0579  082F               	movf	_Timer1_set_time+1,w	;volatile
  8077  057A  008F               	movwf	15	;volatile
  8078                           
  8079                           ;timer1.c: 47: PIR1 &= ~(0x01);
  8080  057B  100C               	bcf	12,0	;volatile
  8081                           
  8082                           ;timer1.c: 48: T1CON |= 0x01;
  8083  057C  1410               	bsf	16,0	;volatile
  8084  057D  0008               	return
  8085  057E                     __end_of_Timer1_start:	
  8086                           
  8087                           	psect	text1163
  8088  0590                     __ptext1163:	
  8089 ;; =============== function _Timer1_start ends ============
  8090                           
  8091                           
  8092 ;; *************** function _Timer1_Init *****************
  8093 ;; Defined at:
  8094 ;;		line 29 in file "F:\\\PAV03fix\PAV03\pav03\src\timer1.c"
  8095 ;; Parameters:    Size  Location     Type
  8096 ;;  TIMER1_DIVID    1    wreg     enum E560
  8097 ;; Auto vars:     Size  Location     Type
  8098 ;;  TIMER1_DIVID    1    3[COMMON] enum E560
  8099 ;; Return value:  Size  Location     Type
  8100 ;;		None               void
  8101 ;; Registers used:
  8102 ;;		wreg, status,2, status,0
  8103 ;; Tracked objects:
  8104 ;;		On entry : 60/0
  8105 ;;		On exit  : 60/20
  8106 ;;		Unchanged: FFF9F/0
  8107 ;; Data sizes:     COMMON   BANK0   BANK1
  8108 ;;      Params:         0       0       0
  8109 ;;      Locals:         1       0       0
  8110 ;;      Temps:          0       0       0
  8111 ;;      Totals:         1       0       0
  8112 ;;Total ram usage:        1 bytes
  8113 ;; Hardware stack levels used:    1
  8114 ;; Hardware stack levels required when called:    2
  8115 ;; This function calls:
  8116 ;;		Nothing
  8117 ;; This function is called by:
  8118 ;;		_main
  8119 ;; This function uses a non-reentrant model
  8120 ;;
  8121  0590                     _Timer1_Init:	
  8122                           
  8123                           ; Regs used in _Timer1_Init: [wreg+status,2+status,0]
  8124                           ;Timer1_Init@TIMER1_DIVIDER stored from wreg
  8125  0590  00F3               	movwf	Timer1_Init@TIMER1_DIVIDER
  8126                           
  8127                           ;timer1.c: 30: T1CON = 0x00;
  8128  0591  0190               	clrf	16	;volatile
  8129                           
  8130                           ;timer1.c: 31: T1CON |= TIMER1_DIVIDER;
  8131  0592  0490               	iorwf	16,f	;volatile
  8132                           
  8133                           ;timer1.c: 32: INTCON |= (0x40);
  8134  0593  170B               	bsf	11,6	;volatile
  8135                           
  8136                           ;timer1.c: 33: PIE1 |= 0x01;
  8137  0594  1683               	bsf	3,5	;RP0=1, select bank1
  8138  0595  140C               	bsf	12,0	;volatile
  8139  0596  0008               	return
  8140  0597                     __end_of_Timer1_Init:	
  8141                           
  8142                           	psect	text1164
  8143  0597                     __ptext1164:	
  8144 ;; =============== function _Timer1_Init ends ============
  8145                           
  8146                           
  8147 ;; *************** function _key_Init *****************
  8148 ;; Defined at:
  8149 ;;		line 335 in file "F:\\\PAV03fix\PAV03\pav03\src\key_scan.c"
  8150 ;; Parameters:    Size  Location     Type
  8151 ;;		None
  8152 ;; Auto vars:     Size  Location     Type
  8153 ;;		None
  8154 ;; Return value:  Size  Location     Type
  8155 ;;		None               void
  8156 ;; Registers used:
  8157 ;;		wreg, status,2, status,0
  8158 ;; Tracked objects:
  8159 ;;		On entry : 60/0
  8160 ;;		On exit  : 60/20
  8161 ;;		Unchanged: FFF9F/0
  8162 ;; Data sizes:     COMMON   BANK0   BANK1
  8163 ;;      Params:         0       0       0
  8164 ;;      Locals:         0       0       0
  8165 ;;      Temps:          0       0       0
  8166 ;;      Totals:         0       0       0
  8167 ;;Total ram usage:        0 bytes
  8168 ;; Hardware stack levels used:    1
  8169 ;; Hardware stack levels required when called:    2
  8170 ;; This function calls:
  8171 ;;		Nothing
  8172 ;; This function is called by:
  8173 ;;		_main
  8174 ;; This function uses a non-reentrant model
  8175 ;;
  8176  0597                     _key_Init:	
  8177                           
  8178                           ;key_scan.c: 336: OPTION_REG &= ~0x80;
  8179                           
  8180                           ; Regs used in _key_Init: [wreg+status,2+status,0]
  8181  0597  1683               	bsf	3,5	;RP0=1, select bank1
  8182  0598  1381               	bcf	1,7	;volatile
  8183                           
  8184                           ;key_scan.c: 337: TRISB |= 0x0e;
  8185  0599  300E               	movlw	14
  8186  059A  0486               	iorwf	6,f	;volatile
  8187                           
  8188                           ;key_scan.c: 338: WPUB |= 0x0e;
  8189  059B  0495               	iorwf	21,f	;volatile
  8190  059C  0008               	return
  8191  059D                     __end_of_key_Init:	
  8192                           
  8193                           	psect	text1165
  8194  059D                     __ptext1165:	
  8195 ;; =============== function _key_Init ends ============
  8196                           
  8197                           
  8198 ;; *************** function _IIC_Init *****************
  8199 ;; Defined at:
  8200 ;;		line 11 in file "F:\\\PAV03fix\PAV03\pav03\src\iic.c"
  8201 ;; Parameters:    Size  Location     Type
  8202 ;;		None
  8203 ;; Auto vars:     Size  Location     Type
  8204 ;;		None
  8205 ;; Return value:  Size  Location     Type
  8206 ;;		None               void
  8207 ;; Registers used:
  8208 ;;		None
  8209 ;; Tracked objects:
  8210 ;;		On entry : 60/0
  8211 ;;		On exit  : 60/0
  8212 ;;		Unchanged: FFF9F/0
  8213 ;; Data sizes:     COMMON   BANK0   BANK1
  8214 ;;      Params:         0       0       0
  8215 ;;      Locals:         0       0       0
  8216 ;;      Temps:          0       0       0
  8217 ;;      Totals:         0       0       0
  8218 ;;Total ram usage:        0 bytes
  8219 ;; Hardware stack levels used:    1
  8220 ;; Hardware stack levels required when called:    2
  8221 ;; This function calls:
  8222 ;;		Nothing
  8223 ;; This function is called by:
  8224 ;;		_main
  8225 ;; This function uses a non-reentrant model
  8226 ;;
  8227  059D                     _IIC_Init:	
  8228                           
  8229                           ;iic.c: 12: OPTION_REG &= ~0x80;
  8230                           
  8231                           ; Regs used in _IIC_Init: []
  8232  059D  1683               	bsf	3,5	;RP0=1, select bank1
  8233  059E  1381               	bcf	1,7	;volatile
  8234                           
  8235                           ;iic.c: 14: RC1=1;
  8236  059F  1283               	bcf	3,5	;RP0=0, select bank0
  8237  05A0  1487               	bsf	7,1
  8238                           
  8239                           ;iic.c: 15: RC2=1;
  8240  05A1  1507               	bsf	7,2
  8241  05A2  0008               	return
  8242  05A3                     __end_of_IIC_Init:	
  8243                           
  8244                           	psect	text1167
  8245  05A3                     __ptext1167:	
  8246 ;; =============== function _soft_delay_ms ends ============
  8247                           
  8248                           
  8249 ;; *************** function _system_set_CPU_frequency *****************
  8250 ;; Defined at:
  8251 ;;		line 19 in file "F:\\\PAV03fix\PAV03\pav03\src\system.c"
  8252 ;; Parameters:    Size  Location     Type
  8253 ;;  CPU_Frequenc    1    wreg     enum E551
  8254 ;; Auto vars:     Size  Location     Type
  8255 ;;  CPU_Frequenc    1    3[COMMON] enum E551
  8256 ;; Return value:  Size  Location     Type
  8257 ;;		None               void
  8258 ;; Registers used:
  8259 ;;		wreg, status,2
  8260 ;; Tracked objects:
  8261 ;;		On entry : 17F/0
  8262 ;;		On exit  : 17F/20
  8263 ;;		Unchanged: FFE80/0
  8264 ;; Data sizes:     COMMON   BANK0   BANK1
  8265 ;;      Params:         0       0       0
  8266 ;;      Locals:         1       0       0
  8267 ;;      Temps:          0       0       0
  8268 ;;      Totals:         1       0       0
  8269 ;;Total ram usage:        1 bytes
  8270 ;; Hardware stack levels used:    1
  8271 ;; Hardware stack levels required when called:    2
  8272 ;; This function calls:
  8273 ;;		Nothing
  8274 ;; This function is called by:
  8275 ;;		_main
  8276 ;; This function uses a non-reentrant model
  8277 ;;
  8278  05A3                     _system_set_CPU_frequency:	
  8279                           
  8280                           ; Regs used in _system_set_CPU_frequency: [wreg+status,2]
  8281                           ;system_set_CPU_frequency@CPU_Frequency stored from wreg
  8282  05A3  00F3               	movwf	system_set_CPU_frequency@CPU_Frequency
  8283                           
  8284                           ;system.c: 20: OSCCON = CPU_Frequency;
  8285  05A4  1683               	bsf	3,5	;RP0=1, select bank1
  8286  05A5  008F               	movwf	15
  8287                           
  8288                           ;system.c: 21: OSCTUNE = 0X00;
  8289  05A6  0190               	clrf	16	;volatile
  8290  05A7  0008               	return
  8291  05A8                     __end_of_system_set_CPU_frequency:	
  8292                           
  8293                           	psect	text1168
  8294  0527                     __ptext1168:	
  8295 ;; =============== function _system_set_CPU_frequency ends ============
  8296                           
  8297                           
  8298 ;; *************** function _ISR *****************
  8299 ;; Defined at:
  8300 ;;		line 48 in file "F:\\\PAV03fix\PAV03\pav03\src\system.c"
  8301 ;; Parameters:    Size  Location     Type
  8302 ;;		None
  8303 ;; Auto vars:     Size  Location     Type
  8304 ;;  peripheral_i    1    2[COMMON] unsigned char 
  8305 ;;  inside_intte    1    0        unsigned char 
  8306 ;;  peripheral_i    1    0        unsigned char 
  8307 ;;  inside_intte    1    0        unsigned char 
  8308 ;; Return value:  Size  Location     Type
  8309 ;;		None               void
  8310 ;; Registers used:
  8311 ;;		wreg, status,2, status,0, pclath, cstack
  8312 ;; Tracked objects:
  8313 ;;		On entry : 0/0
  8314 ;;		On exit  : 60/0
  8315 ;;		Unchanged: FFF9F/0
  8316 ;; Data sizes:     COMMON   BANK0   BANK1
  8317 ;;      Params:         0       0       0
  8318 ;;      Locals:         1       0       0
  8319 ;;      Temps:          2       0       0
  8320 ;;      Totals:         3       0       0
  8321 ;;Total ram usage:        3 bytes
  8322 ;; Hardware stack levels used:    1
  8323 ;; Hardware stack levels required when called:    1
  8324 ;; This function calls:
  8325 ;;		_TIMER1_ISR
  8326 ;; This function is called by:
  8327 ;;		Interrupt level 1
  8328 ;; This function uses a non-reentrant model
  8329 ;;
  8330  0527                     _ISR:	
  8331                           
  8332                           ;system.c: 54: peripheral_intterrupt_enable = PIE1 & 0x43;
  8333                           
  8334                           ;system.c: 49: unsigned char inside_intterrupt_enable,peripheral_intterrupt_enable;
  8335                           ;system.c: 50: unsigned char inside_intterrupt_touch,peripheral_intterrupt_touch;
  8336                           ;system.c: 53: inside_intterrupt_enable = INTCON & 0x38;
  8337  0527  1683               	bsf	3,5	;RP0=1, select bank1
  8338  0528  1303               	bcf	3,6	;RP1=0, select bank1
  8339                           
  8340                           ;system.c: 56: peripheral_intterrupt_touch = PIR1 & 0x43;
  8341                           
  8342                           ;system.c: 55: inside_intterrupt_touch = INTCON & 0x07;
  8343  0529  1283               	bcf	3,5	;RP0=0, select bank0
  8344  052A  080C               	movf	12,w
  8345  052B  00F2               	movwf	ISR@peripheral_intterrupt_touch
  8346  052C  3043               	movlw	67
  8347  052D  05F2               	andwf	ISR@peripheral_intterrupt_touch,f
  8348                           
  8349                           ;system.c: 71: if(peripheral_intterrupt_touch & TIMER1_ISR_TOUCH) {
  8350  052E  1C72               	btfss	ISR@peripheral_intterrupt_touch,0
  8351  052F  2D31               	goto	i1l1314
  8352                           
  8353                           ;system.c: 72: TIMER1_ISR();
  8354  0530  2538               	fcall	_TIMER1_ISR
  8355  0531                     i1l1314:	
  8356  0531  0871               	movf	??_ISR+1,w
  8357  0532  008A               	movwf	10
  8358  0533  0E70               	swapf	??_ISR^(0+-128),w
  8359  0534  0083               	movwf	3
  8360  0535  0EFE               	swapf	126,f
  8361  0536  0E7E               	swapf	126,w
  8362  0537  0009               	retfie
  8363  0538                     __end_of_ISR:	
  8364  0538                     __ptext1169:	
  8365 ;; =============== function _ISR ends ============
  8366                           
  8367                           
  8368 ;; *************** function _TIMER1_ISR *****************
  8369 ;; Defined at:
  8370 ;;		line 60 in file "F:\\\PAV03fix\PAV03\pav03\src\timer1.c"
  8371 ;; Parameters:    Size  Location     Type
  8372 ;;		None
  8373 ;; Auto vars:     Size  Location     Type
  8374 ;;		None
  8375 ;; Return value:  Size  Location     Type
  8376 ;;		None               void
  8377 ;; Registers used:
  8378 ;;		wreg, status,2, status,0
  8379 ;; Tracked objects:
  8380 ;;		On entry : 60/0
  8381 ;;		On exit  : 60/0
  8382 ;;		Unchanged: FFF9F/0
  8383 ;; Data sizes:     COMMON   BANK0   BANK1
  8384 ;;      Params:         0       0       0
  8385 ;;      Locals:         0       0       0
  8386 ;;      Temps:          0       0       0
  8387 ;;      Totals:         0       0       0
  8388 ;;Total ram usage:        0 bytes
  8389 ;; Hardware stack levels used:    1
  8390 ;; This function calls:
  8391 ;;		Nothing
  8392 ;; This function is called by:
  8393 ;;		_ISR
  8394 ;; This function uses a non-reentrant model
  8395 ;;
  8396  0538                     _TIMER1_ISR:	
  8397                           
  8398                           ;timer1.c: 61: static unsigned int flag_1s_add=0;
  8399                           ;timer1.c: 62: static unsigned int flag_1min_add=0;
  8400                           ;timer1.c: 63: T1CON &= ~(0x01);
  8401                           
  8402                           ; Regs used in _TIMER1_ISR: [wreg+status,2+status,0]
  8403  0538  1010               	bcf	16,0	;volatile
  8404                           
  8405                           ;timer1.c: 64: TMR1L = (unsigned char)(Timer1_set_time);
  8406  0539  082E               	movf	_Timer1_set_time,w	;volatile
  8407  053A  008E               	movwf	14	;volatile
  8408                           
  8409                           ;timer1.c: 65: TMR1H = (unsigned char)(Timer1_set_time>>8);
  8410  053B  082F               	movf	_Timer1_set_time+1,w	;volatile
  8411  053C  008F               	movwf	15	;volatile
  8412                           
  8413                           ;timer1.c: 67: flag_time_key0_add++;
  8414  053D  0AB4               	incf	_flag_time_key0_add,f
  8415  053E  1903               	skipnz
  8416  053F  0AB5               	incf	_flag_time_key0_add+1,f
  8417                           
  8418                           ;timer1.c: 68: flag_time_key1_add++;
  8419  0540  0AB6               	incf	_flag_time_key1_add,f
  8420  0541  1903               	skipnz
  8421  0542  0AB7               	incf	_flag_time_key1_add+1,f
  8422                           
  8423                           ;timer1.c: 69: flag_time_key2_add++;
  8424  0543  0AB8               	incf	_flag_time_key2_add,f
  8425  0544  1903               	skipnz
  8426  0545  0AB9               	incf	_flag_time_key2_add+1,f
  8427                           
  8428                           ;timer1.c: 70: flag_5s_add++;
  8429  0546  0AB2               	incf	_flag_5s_add,f
  8430  0547  1903               	skipnz
  8431  0548  0AB3               	incf	_flag_5s_add+1,f
  8432                           
  8433                           ;timer1.c: 72: flag_1s_add++;
  8434  0549  0AB0               	incf	_flag_5min_add,f
  8435  054A  1903               	skipnz
  8436  054B  0AB1               	incf	_flag_5min_add+1,f
  8437                           
  8438                           ;timer1.c: 74: PIR1 &= ~(0x01);
  8439  054C  100C               	bcf	12,0	;volatile
  8440                           
  8441                           ;timer1.c: 75: T1CON |= 0x01;
  8442  054D  1410               	bsf	16,0	;volatile
  8443  054E  0008               	return
  8444  054F                     __end_of_TIMER1_ISR:	
  8445                           
  8446                           	psect	intentry
  8447  0004                     __pintentry:	
  8448                           ; Regs used in _ISR: [wreg+status,2+status,0+pclath+cstack]
  8449                           
  8450  0004                     interrupt_function:	
  8451  007E                     saved_w	set	btemp
  8452  0004  00FE               	movwf	btemp
  8453  0005  0E03               	swapf	3,w
  8454  0006  00F0               	movwf	??_ISR
  8455  0007  080A               	movf	10,w
  8456  0008  00F1               	movwf	??_ISR+1
  8457  0009  118A  2D27         	ljmp	_ISR
  8458                           
  8459                           	psect	text1170
  8460  0000                     __ptext1170:	
  8461 ;; =============== function _TIMER1_ISR ends ============
  8462                           
  8463  007E                     btemp	set	126	;btemp
  8464  007E                     wtemp0	set	126


HI-TECH Software PICC Macro Assembler V9.83 build 10920 
Symbol Table                                                                                   Wed Jan 13 15:27:31 2021

                                          pc 0002                               ___bmul@product 0074  
                         RF_Init@BB_cal_data 03C4                             ??_key_value_read 0075  
                        RF_Write_Buff@length 0051                          ??_AT24C02_Write_Msg 0056  
                             ?_soft_delay_ms 0073                                           fsr 0004  
                                _RF_WriteReg 0181                                          l665 0000  
                                        _RB1 0031                                          _RC0 0038  
                                        _RB2 0032                                          _RA4 002C  
                                        _RC1 0039                                          _RB3 0033  
                                        _RA5 002D                                          _RC2 003A  
                                        _RB4 0034                                          _RB5 0035  
                                        _RA7 002F                                          _RB6 0036  
                                        _RE1 0049                                          _RE2 004A  
                                        _ISR 0527                         ??_AT24C02_Write_Byte 0076  
                                        fsr0 0004                                          indf 0000  
                             ??_iic_delay_us 0073                         _loadParamsFromEeprom 0825  
                             ?_RF_Set_RxMode 0070                                ?_IIC_Wait_ACK 0070  
                            __end_of_IIC_ACK 04F2                                         ?_ISR 0070  
                   __end_of_Enable_Interrupt 05AA                                         l1307 0000  
                                       l1298 0000                                         l5200 0000  
                                       l5203 0000                                         l5214 01A6  
                                       l5206 0000                                         l5215 01A7  
                                       l5209 0000                                         l5217 0000  
                                       l2586 0000                                         l5156 0000  
                                       l2589 0000                                         l5182 0000  
                                       l5176 0000                                         l5193 0108  
                                       l5194 0000                                         l5179 0000  
                                       l5188 0000                                         l7221 0000  
                                       l5199 019D                                         l7160 0322  
                                       l7153 0307                                         l7146 02ED  
                                       l7173 0348                                         l7182 0229  
                                       l7196 0280                                         l5866 0000  
                                       l9802 00CB                                         l9820 00A8  
                                       l9805 00D8                                         l9822 0000  
                                       l9807 0000                                         l9841 08C0  
                                       l9826 084E                                         l9843 08E1  
                                       l9860 09BD                                         l9891 0C29  
                                       l9964 0D88                                         l9879 0ADE  
                                       l9896 0B8B                                         _KEY0 0020  
                                       _KEY1 0023                                         _KEY2 0026  
                                       _PIE1 008C                                         u2685 0F66  
                                       u5455 0088                                         _PIR1 000C  
                                       u5804 09D0                                         u5805 09CE  
                                       u6474 0CD1                                         u6475 0CCF  
                                       u5755 094D                                         u6684 0D6F  
                                       u6685 0D6D                                         u6694 0D82  
                                       u6695 0D80                    __end_of_AT24C02_Write_Msg 0F93  
                      RF_Write_Buff@reg_addr 0052                                         _WPUB 0095  
                            recive_task@flag 006B                           __size_of_IIC_START 000D  
                      RF_Carrier@RF_cal_data 03CC                        __size_of_I2C_ReadByte 0028  
                                       _main 0452                              __end_of_RF_Init 0181  
                                       btemp 007E                                         start 000B  
                              _RF_Write_Buff 018A                        __size_of_I2C_SendByte 001B  
                       RF_Read_Buff@byte_ctr 0053                             _last_PORTB_value 003C  
                          ___bmul@multiplier 0075                         RF_Read_Buff@reg_addr 0052  
                           ??_RF_ClearStatus 0076                                        ??_ISR 0070  
                           __end_of_IIC_NACK 04E3                                  ?_TIMER1_ISR 0070  
                           __end_of_IIC_STOP 0588                       RF_Carrier@RF_cal2_data 03B3  
                           __end_of_IIC_Init 05A3                                 rx_data@crc16 005B  
                                      l10007 0E9C                                        l10040 04FC  
                                      l10033 0F3F                                        l10043 0501  
                                      l10035 0F4E                                        l10044 0509  
                                      l10046 050E                                        l10047 0516  
                                      l10039 04F4                                        l10049 0526  
                                      l10712 0000                                        l10720 0000  
                                      l10706 0000                                        l10715 0000  
                                      l10723 0000                                        l10731 0FC7  
                                      l10732 0FC9                                        l10709 0000  
                                      l10733 0000                                        l10741 0000  
                                      l10726 0000                                        l11391 0000  
                                      l11376 0000                                        l10736 04B5  
                                      l10729 0FC2                                        l11385 0000  
                                      l11379 0000                                        l15004 0000  
                                      l15100 0000                                        l11397 0000  
                                      l15030 0000                                        l15022 0000  
                                      l15014 0000                                        l15110 0000  
                                      l15102 0000                                        l15024 0000  
                                      l15016 0000                                        l15008 0000  
                                      l15112 0000                                        l15104 0000  
                                      l15026 02F3                                        l15114 0000  
                                      l15106 0000                                        l15130 0000  
                                      l15122 0000                                        l15060 0000  
                                      l15052 0000                                        l15044 0000  
                                      l15036 0000                                        l15108 0000  
                                      l15124 0000                                        l15132 0000  
                                      l15140 0000                                        l15300 0000  
                                      l15220 0000                                        l15212 0000  
                                      l15070 032B                                        l15038 0000  
                                      l15126 0000                                        l15134 0000  
                                      l15150 0000                                        l15142 0000  
                                      l15310 0000                                        l15302 0000  
                                      l15230 0000                                        l15222 0000  
                                      l15214 0000                                        l15072 0330  
                                      l15048 030E                                        l15080 0000  
                                      l15128 0000                                        l15136 0000  
                                      l15152 0000                                        l15312 0000  
                                      l15304 0240                                        l15240 0000  
                                      l15232 0000                                        l15224 0000  
                                      l15216 0000                                        l15074 0335  
                                      l15066 0000                                        l15058 0000  
                                      l15082 0000                                        l15090 0000  
                                      l15138 0000                                        l15154 0000  
                                      l15306 0000                                        l15314 0247  
                                      l15330 0254                                        l15242 0000  
                                      l15234 0000                                        l15226 0000  
                                      l17010 0914                                        l17002 0000  
                                      l15084 0000                                        l15092 0000  
                                      l15156 0000                                        l15404 02AC  
                                      l15308 0000                                        l15260 0000  
                                      l15236 0000                                        l15228 0000  
                                      l15244 01F1                                        l17100 09FC  
                                      l17004 08FA                                        l15078 033A  
                                      l15086 0000                                        l15094 0000  
                                      l15422 0000                                        l15334 0000  
                                      l15270 0000                                        l15510 0000  
                                      l17110 0A0E                                        l17102 0000  
                                      l14800 0000                                        l15088 057E  
                                      l15096 0000                                        l15408 0000  
                                      l15360 0000                                        l15344 0000  
                                      l15280 0000                                        l15256 01FE  
                                      l15520 0000                                        l15512 0000  
                                      l17200 0000                                        l17120 0A23  
                                      l17104 09FE                                        l17032 0947  
                                      l14730 0000                                        l14810 03FA  
                                      l15098 0000                                        l15418 0000  
                                      l15370 0000                                        l15354 0000  
                                      l15274 0000                                        l15522 0000  
                                      l15514 0000                                        l15506 0000  
                                      l17210 0AD4                                        l17202 0ABF  
                                      l17130 0000                                        l17106 0000  
                                      l17050 0000                                        l17042 0000  
                                      l17026 0912                                        l14732 0F5D  
                                      l14812 03FD                                        l14804 0000  
                                      l14900 0000                                        l15428 0000  
                                      l15380 0000                                        l15372 0000  
                                      l15348 0000                                        l15292 0000  
                                      l15268 0000                                        l15276 021B  
                                      l15452 0000                                        l15444 0000  
                                      l15524 0000                                        l15516 0000  
                                      l15508 0000                                        l17220 0AE4  
                                      l17212 0000                                        l17204 0000  
                                      l17132 0000                                        l17124 0000  
                                      l17116 0000                                        l17108 0000  
                                      l17044 0972                                        l17036 0000  
                                      l17028 0000                                        l14750 0F74  
                                      l14742 0F6E                                        l14830 0416  
                                      l14806 03F3                                        l14902 0000  
                                      l15382 0000                                        l15374 0000  
                                      l15366 0000                                        l15294 0000  
                                      l15286 0000                                        l15454 0000  
                                      l15446 0000                                        l15526 0000  
                                      l15518 0000                                        l17214 0AD9  
                                      l17206 0ACD                                        l17134 0A38  
                                      l17126 0000                                        l17070 0000  
                                      l17054 098C                                        l14728 0000  
                                      l14736 0F69                                        l14760 0000  
                                      l14824 0409                                        l14920 0000  
                                      l15384 0000                                        l15376 0000  
                                      l15368 0000                                        l15296 0000  
                                      l15472 04CF                                        l15464 0000  
                                      l15456 0000                                        l15528 0000  
                                      l17320 0BCF                                        l17240 0000  
                                      l17144 0A48                                        l17128 0000  
                                      l17080 09DE                                        l17064 0000  
                                      l17056 0000                                        l17136 0A3A  
                                      l14754 0F76                                        l14762 0000  
                                      l14770 0000                                        l14842 0426  
                                      l14834 041D                                        l14818 0403  
                                      l14850 0436                                        l14906 0000  
                                      l14922 00B1                                        l14930 0FED  
                                      l15386 0000                                        l15378 0297  
                                      l15298 0000                                        l15474 04D0  
                                      l15466 0000                                        l15458 0000  
                                      l17330 0000                                        l17314 0B8F  
                                      l17162 0A46                                        l17058 0000  
                                      l17066 09A5                                        l14756 0F60  
                                      l14764 0000                                        l14772 0000  
                                      l14780 0000                                        l14836 0420  
                                      l14828 0412                                        l14852 044D  
                                      l14924 00DE                                        l14916 0000  
                                      l14908 0000                                        l14940 0000  
                                      l14932 0000                                        l15388 029F  
                                      l17404 0C58                                        l17332 0BE6  
                                      l17324 0000                                        l17316 0000  
                                      l17244 0B22                                        l17180 0000  
                                      l17172 0000                                        l17164 0000  
                                      l17092 09F2                                        l17084 09E5  
                                      l17068 0000                                        l14758 0000  
                                      l14766 0000                                        l14774 0000  
                                      l14782 0000                                        l14790 051B  
                                      l14846 0431                                        l14918 00D5  
                                      l14942 0000                                        l14934 0F51  
                                      l16702 0000                                        l16710 0000  
                                      l17502 0D50                                        l17430 0000  
                                      l17350 0000                                        l17342 0C00  
                                      l17262 0000                                        l17254 0000  
                                      l17238 0AE2                                        l17182 0A9B  
                                      l17174 0000                                        l14768 0000  
                                      l14776 0000                                        l14784 0000  
                                      l14792 0000                                        l14880 0000  
                                      l14928 0000                                        l16704 00F9  
                                      l16712 0000                                        l16720 0000  
                                      l16800 0000                                        l17600 0000  
                                      l17520 0D9F                                        l17504 0000  
                                      l17432 0000                                        l17360 0C20  
                                      l17344 0000                                        l17352 0C0B  
                                      l17280 0000                                        l17256 0B3E  
                                      l17248 0000                                        l17192 0AB5  
                                      l17168 0A86                                        l17096 09F8  
                                      l17088 09EC                                        l14778 0000  
                                      l14786 0000                                        l14794 0000  
                                      l16706 0000                                        l16730 0000  
                                      l16722 0000                                        l16802 0000  
                                      l17602 0E58                                        l17530 0DB4  
                                      l17434 0000                                        l17426 0000  
                                      l17370 0000                                        l17362 0000  
                                      l17354 0000                                        l17338 0000  
                                      l17290 0B86                                        l17282 0B7A  
                                      l17274 0000                                        l17266 0B58  
                                      l17194 0000                                        l16708 0000  
                                      l16740 0000                                        l16732 0000  
                                      l16724 0000                                        l16716 0000  
                                      l16804 0000                                        l16812 0000  
                                      l16820 0000                                        l17700 0F1D  
                                      l17612 0E69                                        l17540 0000  
                                      l17532 0000                                        l17516 0000  
                                      l17460 0CF3                                        l17452 0CE6  
                                      l17436 0000                                        l17372 0C39  
                                      l17364 0C25                                        l17356 0C19  
                                      l17268 0000                                        l17276 0B67  
                                      l17188 0000                                        l16900 0000  
                                      l14798 03E5                                        l16670 0000  
                                      l16750 0000                                        l16742 0000  
                                      l16734 0000                                        l16726 0000  
                                      l16718 0000                                        l16806 0F7D  
                                      l16814 0000                                        l16830 002A  
                                      l16822 0000                                        l17702 0F20  
                                      l17710 0F2D                                        l17630 0E87  
                                      l17622 0E7A                                        l17614 0E6C  
                                      l17542 0DC8                                        l17534 0000  
                                      l17526 0000                                        l17518 0000  
                                      l17438 0CC0                                        l17286 0B81  
                                      l17278 0000                                        l16902 0000  
                                      l16672 0000                                        l16680 0000  
                                      l16760 0000                                        l16752 0000  
                                      l16744 0000                                        l16736 0000  
                                      l16728 0000                                        l16816 0000  
                                      l16808 0000                                        l16832 0000  
                                      l17720 0F39                                        l17712 0000  
                                      l17624 0E7D                                        l17632 0E8A  
                                      l17552 0DD7                                        l17560 0DDF  
                                      l17480 0D09                                        l17464 0CF9  
                                      l17448 0CDF                                        l17456 0CED  
                                      l17472 0CFF                                        l17296 0B91  
                                      l17288 0000                                        l17368 0C2A  
                                      l16920 0000                                        l16912 0000  
                                      l16658 0000                                        l16690 0000  
                                      l16682 0000                                        l16754 0000  
                                      l16746 0000                                        l16738 0000  
                                      l16770 0000                                        l16818 0F96  
                                      l16834 0000                                        l17714 0000  
                                      l17642 0E96                                        l17634 0000  
                                      l17562 0000                                        l17554 0000  
                                      l17538 0DC3                                        l17546 0DCF  
                                      l17570 0DED                                        l17474 0000  
                                      l17730 0F46                                        l17378 0000  
                                      l16922 0871                                        l16906 0859  
                                      l16676 0000                                        l16692 018F  
                                      l16684 0000                                        l16764 0000  
                                      l16756 0000                                        l16748 0000  
                                      l16780 0000                                        l16844 0057  
                                      l17724 0F40                                        l17716 0F33  
                                      l17708 0F2A                                        l17636 0000  
                                      l17652 0EA3                                        l17564 0000  
                                      l17556 0DDB                                        l17468 0CFD  
                                      l17476 0D01                                        l16932 0881  
                                      l16916 0869                                        l17740 0000  
                                      l16678 0000                                        l16686 0000  
                                      l16694 0000                                        l16758 0000  
                                      l16766 0000                                        l16774 0000  
                                      l16790 0000                                        l16870 0096  
                                      l16854 0072                                        l16846 0000  
                                      l16838 0000                                        l17670 0000  
                                      l17726 0F44                                        l17654 0EA4  
                                      l17646 0E9D                                        l17638 0E90  
                                      l17566 0000                                        l17398 0C4E  
                                      l17750 0000                                        l17742 0000  
                                      l16696 0000                                        l16768 0000  
                                      l16776 01CF                                        l16792 0000  
                                      l16872 0098                                        l16856 0000  
                                      l16848 0000                                        l17680 0EFB  
                                      l17648 0EA1                                        l17576 0DF6  
                                      l17568 0000                                        l17496 0000  
                                      l16960 08AB                                        l16944 0000  
                                      l16936 0000                                        l16928 0000  
                                      l17760 0000                                        l17752 0000  
                                      l17744 0000                                        l17736 0000  
                                      l16698 0000                                        l16778 0000  
                                      l16858 0000                                        l16882 00AA  
                                      l17690 0F0C                                        l17674 0000  
                                      l17498 0D08                                        l16970 0000  
                                      l16954 0000                                        l16938 0889  
                                      l17770 0000                                        l17762 0000  
                                      l17754 0000                                        l17746 0000  
                                      l17738 0000                                        l16788 0000  
                                      l16796 0000                                        l17692 0F0F  
                                      l17676 0000                                        l17596 0000  
                                      l16980 0000                                        l16972 0000  
                                      l16956 0000                                        l16948 0899  
                                      l17780 0000                                        l17772 0491  
                                      l17764 0000                                        l17756 0000  
                                      l17748 0000                                        l16894 0000  
                                      l16886 0000                                        l17678 0000  
                                      l17598 0000                                        l16990 0000  
                                      l16982 0000                                        l16974 0000  
                                      l16966 0000                                        l16958 08AA  
                                      l17782 0000                                        l17774 0000  
                                      l17766 0000                                        l17758 0000  
                                      l16888 0826                                        l16992 08E9  
                                      l16984 0000                                        l16976 0000  
                                      l17776 0000                                        l17768 0000  
                                      l16898 083B                                        l16986 0000  
                                      l16978 0000                                        l17778 0000  
                                      l16996 0000                                        l16998 08F0  
                                      ?_main 0070                                        _T1CON 0010  
                                      _TMR1H 000F                                        _TMR1L 000E  
                                      _TRISB 0086                                        _TRISC 0087  
                                      _WPUC1 0C79                        ?_loadParamsFromEeprom 0070  
                             ??_IIC_Wait_ACK 0074                                 _I2C_ReadByte 04AD  
                               _I2C_SendByte 0FBE                   __size_of_AT24C02_Read_Byte 001D  
                                      pclath 000A                             __end_of_SPI_init 01BB  
                              RF_ReadReg@tmp 0051                           __size_of_RF_RxData 0011  
                       __size_of_channel_set 0035                              __end_of_rx_data 00AC  
                                      status 0003                                        wtemp0 007E  
                                ?_RF_ReadReg 0070                               ?_RF_Write_Buff 0050  
                               __end_of_main 04AD                              ??_soft_delay_ms 0075  
                               ?_recive_task 0070                            __end_of_IIC_START 1000  
                                     ??_main 0076                                    ??_IIC_ACK 0074  
                            ??_RF_Set_RxMode 0076                            AT24C02_Read_Msg@i 005A  
                   _system_set_CPU_frequency 05A3                                    ??_RF_Init 0076  
                          iic_delay_us@delay 0073                                       i1l1314 0531  
                                     i1l2599 0000                   __size_of_AT24C02_Write_Msg 0019  
                                     _INTCON 000B                          __size_of_TIMER1_ISR 0017  
                                     _OSCCON 008F                                       _TRISA3 042B  
                                     _TRISC0 0438                                       _TRISA4 042C  
                                     _TRISC1 0439                                       _TRISA5 042D  
                                     _TRISB4 0434                                       _TRISB5 0435  
                                     _TRISA7 042F                                       _TRISB6 0436  
                                     _TRISE1 0449                                       _TRISE2 044A  
                                     _SPI_RW 019F                                ??_Timer1_Init 0073  
                       __end_of_iic_delay_us 0FF3                                       ___bmul 0F4F  
                           __end_of_key_Init 059D                             __end_of_key_scan 0349  
                                     _rf_buf 003D                            __end_of_RF_RxData 00F4  
                                     clrloop 0589                       ??_loadParamsFromEeprom 0076  
                        __size_of_RF_ReadReg 0009                                   UpdateCRC@i 0055  
                                 UpdateCRC@k 0054                           __size_of_UpdateCRC 0037  
                                     saved_w 007E                                 _crc_2_4G_lib 038E  
                                  ??_rx_data 0058                                    ?_IIC_NACK 0070  
                            ??_RF_Write_Buff 0075                                    ?_IIC_STOP 0070  
                                  ?_IIC_Init 0070                       RF_Carrier@Dem_cal_data 03DB  
                        SPI_RW@read_reg_addr 0073                    __size_of_AT24C02_Read_Msg 0018  
                      recive_task@match_flag 006A                          ___bmul@multiplicand 0073  
                       __end_of_IIC_Wait_ACK 0FEC                        loadParamsFromEeprom@i 005B  
                             __pcstackCOMMON 0070                                 __pidataBANK0 0000  
                        __end_of_Timer1_Init 0597                                 _channel_flag 004F  
                               ?_RF_WriteReg 0075                        RF_RxData@payload_buff 0056  
                                  ?_SPI_init 0070                                _key_long_flag 0079  
                       AT24C02_Read_Msg@addr 0059                         AT24C02_Read_Msg@data 0056  
                             _RX_ADDRESS_DEF 03D5                            ?_Enable_Interrupt 0070  
                                 __pbssBANK0 0020                                   __pbssBANK1 00A0  
                                 ??_IIC_NACK 0074                           RF_Init@RF_cal_data 03D2  
                                 _ble_crc_38 0364                                   ??_IIC_STOP 0074  
                                 ??_IIC_Init 0073                           ??_Enable_Interrupt 0073  
                                    ?_SPI_RW 0070                                   _delay_flag 003B  
                                 _delay_task 03DD                            __end_of_UpdateCRC 00E3  
                                 __pmaintext 0452                                      ?___bmul 0073  
                              ?_Timer1_start 0073                               soft_delay_ms@i 0050  
                             soft_delay_ms@j 0052                               soft_delay_ms@k 0053  
                               ??_TIMER1_ISR 0070                                   __pintentry 0004  
                          channel_set@status 0073                                      SPI_RW@i 0074  
                                 __ptext1130 001D                                   __ptext1131 0F93  
                                 __ptext1140 01D3                                   __ptext1132 0808  
                                 __ptext1141 000D                                   __ptext1133 0F7A  
                                 __ptext1150 01C6                                   __ptext1142 010A  
                                 __ptext1134 00E3                                   __ptext1151 00F4  
                                 __ptext1143 0FBE                                   __ptext1135 04AD  
                                 __ptext1160 04F2                                   __ptext1152 018A  
                                 __ptext1144 04D5                                   __ptext1136 0FAB  
                                 __ptext1128 0841                                   __ptext1161 05A8  
                                 __ptext1153 0181                                   __ptext1145 04E3  
                                 __ptext1137 01CF                                   __ptext1129 0825  
                                 __ptext1170 0000                                   __ptext1162 0567  
                                 __ptext1154 0F4F                                   __ptext1146 0FD9  
                                 __ptext1138 01BF                                   __ptext1163 0590  
                                 __ptext1155 0FEC                                   __ptext1147 057E  
                                 __ptext1139 01BB                                   __ptext1164 0597  
                                 __ptext1156 00AC                                   __ptext1148 0FF3  
                                 __ptext1165 059D                                   __ptext1157 019F  
                                 __ptext1149 02D9                                   __ptext1166 0F5D  
                                 __ptext1158 01B4                                   __ptext1167 05A3  
                                 __ptext1159 03DD                                   __ptext1168 0527  
                                 __ptext1169 0538                         __size_of_recive_task 070E  
                             rx_data@rx_flag 005E                                   ??_SPI_init 0073  
                                    _IIC_ACK 04E3                                      i1l14870 0000  
                                    i1l14862 0000                                      i1l14854 0000  
                                    i1l14872 0000                                      i1l14864 0000  
                                    i1l14856 0000                                      i1l14874 0000  
                                    i1l14866 0000                                      i1l14858 0000  
                                    i1l14876 0000                                      i1l14868 0000  
                                    i1l14878 0000                  __size_of_AT24C02_Write_Byte 0013  
                                    _OSCTUNE 0090                                      _RF_Init 010A  
                                  ?_key_Init 0070                           __end_of_TIMER1_ISR 054F  
                                  ?_key_scan 0070                        __size_of_iic_delay_us 0007  
                       AT24C02_Write_Msg@len 0055                                   _control_id 00A6  
                               ??_RF_ReadReg 0075                              __size_of_SPI_RW 0015  
                           I2C_ReadByte@data 0051                                  _Timer1_Init 0590  
                             ??_Timer1_start 0050                              __size_of___bmul 000E  
                 ??_system_set_CPU_frequency 0073                                      _crc_lab 03A3  
                               __size_of_ISR 0011                                    _KEY0_FLAG 0076  
                                  _IIC_START 0FF3                           __end_of_RF_ReadReg 01CF  
                                  _KEY1_FLAG 0077                                    _KEY2_FLAG 0078  
                            _Timer0_set_time 003A                      __size_of_key_value_read 0106  
                               _iic_delay_us 0FEC                                      _rx_data 001D  
                              ??_channel_set 0074                              _Timer1_set_time 002E  
                       end_of_initialization 0564                                   ??_key_Init 0073  
                              ?_RF_ClearFIFO 0070                                   ??_key_scan 0075  
                      __size_of_IIC_Wait_ACK 0013                             _AT24C02_Read_Msg 0F93  
                                ?_delay_task 0070                                ?_RF_GetStatus 0070  
Timer1_start@Timer1_ISR_execution_total_time 0075                        __end_of_soft_delay_ms 0F7A  
                    RF_Carrier@Dem_cal2_data 03C9                         __size_of_RF_WriteReg 0009  
                              ?_RF_Read_Buff 0050                      __size_of_RF_ClearStatus 0004  
                                  _RF_RxData 00E3                                   ?_IIC_START 0070  
                      __end_of_RF_Set_RxMode 001D                           RF_Write_Buff@pBuff 0050  
                               _IIC_Wait_ACK 0FD9                               ??_RF_ClearFIFO 0076  
                        __end_of_channel_set 0527                            __size_of_IIC_NACK 000E  
                          __size_of_IIC_STOP 000A                               recive_task@msg 0064  
                             __end_of_SPI_RW 01B4                            __size_of_IIC_Init 0006  
                       RF_Init@Dem_cal2_data 03CF                               ??_RF_GetStatus 0075  
                     AT24C02_Write_Byte@addr 0051                       AT24C02_Write_Byte@data 0050  
                                rx_data@rand 005D                               __end_of___bmul 0F5D  
                             ??_RF_Read_Buff 0075                                _channel_delay 0029  
                        start_initialization 054F                            __size_of_SPI_init 0007  
                                 ?_RF_RxData 0054                __size_of_loadParamsFromEeprom 001C  
                                __end_of_ISR 0538                          __size_of_delay_task 0075  
                  Timer1_Init@TIMER1_DIVIDER 0073                         __end_of_Timer1_start 057E  
                             _TX_ADDRESS_DEF 03D8                                     ??_SPI_RW 0073  
                      __end_of_RF_Write_Buff 019F                        AT24C02_Read_Byte@addr 0054  
                      AT24C02_Read_Byte@temp 0055                           AT24C02_Write_Msg@i 0058  
                        RF_Init@RF_cal2_data 03B9                                     ??___bmul 0074  
                  __size_of_Enable_Interrupt 0002                                  __pdataBANK0 006D  
           __end_of_system_set_CPU_frequency 05A8                                    _UpdateCRC 00AC  
                         UpdateCRC@CRC_input 0053                                     ?_IIC_ACK 0070  
                                __pbssCOMMON 0076                                  ??_IIC_START 0074  
                               recive_task@i 006C                               _key_value_read 01D3  
                              __pcstackBANK0 0050                                ?_I2C_ReadByte 0074  
                     channel_set@channel_num 0074                                     ?_RF_Init 0070  
                                _channel_set 04F2                                ?_I2C_SendByte 0070  
                        AT24C02_Read_Msg@len 0057                             UpdateCRC@CRC_acc 0056  
                          __size_of_key_Init 0006                          _virtual_timer_group 00A0  
                          __size_of_key_scan 0070                                 ?_Timer1_Init 0070  
                                _flag_5s_add 0032                                ??_recive_task 0060  
                                 ?_UpdateCRC 0073                             I2C_SendByte@Data 0074  
                              _flag_5min_add 0030                         __end_of_RF_ClearFIFO 01C6  
                            soft_delay_ms@ms 0073                   __end_of_AT24C02_Write_Byte 0FBE  
                                  __pstrings 035E                       __end_of_key_value_read 02D9  
                             _RF_ClearStatus 01CF                     __end_of_AT24C02_Read_Msg 0FAB  
                             ??_I2C_ReadByte 0076                                  ??_RF_RxData 0055  
                         RF_ReadReg@reg_addr 0050                              I2C_ReadByte@ack 0050  
                            I2C_ReadByte@cnt 0053                         __end_of_RF_GetStatus 01BF  
                                   ?_rx_data 0070                               ??_I2C_SendByte 0074  
                            RF_RxData@length 0054                                     _IIC_NACK 04D5  
                                   _IIC_STOP 057E                            interrupt_function 0004  
                                   _IIC_Init 059D                         __end_of_RF_Read_Buff 010A  
                               ??_delay_task 0073               ISR@peripheral_intterrupt_touch 0072  
                      RF_Carrier@BB_cal_data 03BF                            _key_long_flag_add 007A  
                                __stringbase 0363                       __end_of_RF_ClearStatus 01D3  
                                   _SPI_init 01B4                          __end_of_recive_task 0F4F  
                      __size_of_Timer1_start 0017                              ?_key_value_read 0070  
                           __size_of_IIC_ACK 000F                           RF_Read_Buff@length 0051  
                         __end_of_delay_task 0452                        AT24C02_Write_Msg@addr 0057  
                      AT24C02_Write_Msg@data 0054                          RF_Init@Dem_cal_data 03DC  
                           __size_of_RF_Init 0077            __size_of_system_set_CPU_frequency 0005  
                                  _sys_stute 006E                    ?_system_set_CPU_frequency 0070  
                             RF_Write_Buff@i 0053                                 _Timer1_start 0567  
                           _Enable_Interrupt 05A8                                  ??_UpdateCRC 0050  
                              ??_RF_WriteReg 0076                              ?_RF_ClearStatus 0070  
                         Timer1_start@T_nums 0073                             __size_of_rx_data 008F  
                            I2C_SendByte@cnt 0075                                     _key_Init 0597  
                     __size_of_soft_delay_ms 001D                                     _key_scan 02D9  
                              __size_of_main 005B                 __end_of_loadParamsFromEeprom 0841  
                                   clear_ram 0588                         __end_of_I2C_ReadByte 04D5  
                      __size_of_RF_ClearFIFO 0007                       __size_of_RF_Set_RxMode 0010  
                       __size_of_Timer1_Init 0007                                  _recive_task 0841  
                       __end_of_I2C_SendByte 0FD9                            RF_Read_Buff@pBuff 0050  
                      __size_of_RF_GetStatus 0004                        RF_WriteReg@write_data 0075  
                        __end_of_RF_WriteReg 018A                                 ?_channel_set 0073  
                                   intlevel1 0000                        __size_of_RF_Read_Buff 0016  
                               _RF_ClearFIFO 01BF                                 UpdateCRC@len 0073  
                          _AT24C02_Read_Byte 0808                           ?_AT24C02_Read_Byte 0070  
                                  stringcode 035E                                 _RF_GetStatus 01BB  
                         _flag_time_key0_add 0034                           _flag_time_key1_add 0036  
                         _flag_time_key2_add 0038                          RF_WriteReg@reg_addr 0050  
                                   rx_data@i 005F                                   _TIMER1_ISR 0538  
                        ??_AT24C02_Read_Byte 0076                                _soft_delay_ms 0F5D  
                         _match_channel_flag 006D                                   _OPTION_REG 0081  
                     __size_of_RF_Write_Buff 0015                                 _RF_Read_Buff 00F4  
                                   stringdir 035E                            ?_AT24C02_Read_Msg 0056  
                                   stringtab 035E                                ?_iic_delay_us 0070  
                              _RF_Set_RxMode 000D                           ??_AT24C02_Read_Msg 0058  
                         _AT24C02_Write_Byte 0FAB                    __end_of_AT24C02_Read_Byte 0825  
                          _ADC_digital_value 002C                            _AT24C02_Write_Msg 0F7A  
                                 _RF_ReadReg 01C6                          ?_AT24C02_Write_Byte 0050  
                         ?_AT24C02_Write_Msg 0054        system_set_CPU_frequency@CPU_Frequency 0073  
