

HI-TECH Software PIC PRO Macro Assembler V9.83 build 10920 
                                                                                               Wed Dec 30 11:42:47 2020

HI-TECH Software Omniscient Code Generator (PRO mode) build 10920
     1                           	processor	MX5325
     2                           	opt	pw 120
     3                           	opt	pm
     4                           	psect	idataBANK0,global,class=CODE,delta=2
     5                           	psect	strings,global,class=STRING,delta=2
     6                           	psect	cinit,global,class=CODE,delta=2
     7                           	psect	bssCOMMON,global,class=COMMON,space=1,delta=1
     8                           	psect	bssBANK0,global,class=BANK0,space=1,delta=1
     9                           	psect	dataBANK0,global,class=BANK0,space=1,delta=1
    10                           	psect	bssBANK1,global,class=BANK1,space=1,delta=1
    11                           	psect	clrtext,global,class=CODE,delta=2
    12                           	psect	cstackCOMMON,global,class=COMMON,space=1,delta=1
    13                           	psect	cstackBANK0,global,class=BANK0,space=1,delta=1
    14                           	psect	maintext,global,class=CODE,delta=2
    15                           	psect	text1100,local,class=CODE,delta=2
    16                           	psect	text1112,local,class=CODE,delta=2
    17                           	psect	text1130,local,class=CODE,delta=2
    18                           	psect	text1131,local,class=CODE,delta=2
    19                           	psect	text1132,local,class=CODE,delta=2
    20                           	psect	text1133,local,class=CODE,delta=2
    21                           	psect	text1134,local,class=CODE,delta=2
    22                           	psect	text1135,local,class=CODE,delta=2
    23                           	psect	text1136,local,class=CODE,delta=2
    24                           	psect	text1138,local,class=CODE,delta=2
    25                           	psect	text1139,local,class=CODE,delta=2
    26                           	psect	intentry,global,class=CODE,delta=2
    27                           	psect	text1141,local,class=CODE,delta=2
    28                           	psect	pa_nodes,global,class=CODE,delta=2
    29                           	dabs	1,0x7E,2
    30  000A                     
    31                           	psect	idataBANK0
    32  0000                     __pidataBANK0:	
    33                           
    34                           	psect	strings
    35  0700                     __pstrings:	
    36  0700                     stringtab:	
    37                           ;	global	stringdir,stringtab,__stringbase
    38                           
    39  0700                     stringcode:	
    40                           ;	String table - string pointers are 1 byte each
    41                           
    42  0700                     stringdir:	
    43  0700  3007               	movlw	high stringdir
    44  0701  008A               	movwf	10
    45  0702  0804               	movf	4,w
    46  0703  0A84               	incf	4,f
    47  0704  0782               	addwf	2,f
    48  0705                     __stringbase:	
    49  0705  3400               	retlw	0
    50  0706                     _ble_crc_38:	
    51  0706  34D6               	retlw	214
    52  0707  34C5               	retlw	197
    53  0708  3444               	retlw	68
    54  0709  3420               	retlw	32
    55  070A  3459               	retlw	89
    56  070B  34DE               	retlw	222
    57  070C  34E1               	retlw	225
    58  070D  348F               	retlw	143
    59  070E  341B               	retlw	27
    60  070F  34A5               	retlw	165
    61  0710  34AF               	retlw	175
    62  0711  3442               	retlw	66
    63  0712  347B               	retlw	123
    64  0713  344E               	retlw	78
    65  0714  34CD               	retlw	205
    66  0715  3460               	retlw	96
    67  0716  34EB               	retlw	235
    68  0717  3462               	retlw	98
    69  0718  3422               	retlw	34
    70  0719  3490               	retlw	144
    71  071A  342C               	retlw	44
    72  071B  34EF               	retlw	239
    73  071C  34F0               	retlw	240
    74  071D  34C7               	retlw	199
    75  071E  348D               	retlw	141
    76  071F  34D2               	retlw	210
    77  0720  3457               	retlw	87
    78  0721  34A1               	retlw	161
    79  0722  343D               	retlw	61
    80  0723  34A7               	retlw	167
    81  0724  3466               	retlw	102
    82  0725  34B0               	retlw	176
    83  0726  3475               	retlw	117
    84  0727  3431               	retlw	49
    85  0728  3411               	retlw	17
    86  0729  3448               	retlw	72
    87  072A  3496               	retlw	150
    88  072B  3477               	retlw	119
    89  072C  34F8               	retlw	248
    90  072D  34E3               	retlw	227
    91  072E  3446               	retlw	70
    92  072F  34E9               	retlw	233
    93  0730                     _crc_2_4G_lib:	
    94  0730  34C7               	retlw	199
    95  0731  348D               	retlw	141
    96  0732  34D2               	retlw	210
    97  0733  3457               	retlw	87
    98  0734  34A1               	retlw	161
    99  0735  343D               	retlw	61
   100  0736  34A7               	retlw	167
   101  0737  3466               	retlw	102
   102  0738  34B0               	retlw	176
   103  0739  3475               	retlw	117
   104  073A  3431               	retlw	49
   105  073B  3411               	retlw	17
   106  073C  3448               	retlw	72
   107  073D  3496               	retlw	150
   108  073E  3477               	retlw	119
   109  073F  34F8               	retlw	248
   110  0740  34E3               	retlw	227
   111  0741  3446               	retlw	70
   112  0742  34E9               	retlw	233
   113  0743  34AB               	retlw	171
   114  0744  34D0               	retlw	208
   115  0745                     _crc_lab:	
   116  0745  3441               	retlw	65
   117  0746  3492               	retlw	146
   118  0747  3453               	retlw	83
   119  0748  342A               	retlw	42
   120  0749  34FC               	retlw	252
   121  074A  34AB               	retlw	171
   122  074B  34CE               	retlw	206
   123  074C  3426               	retlw	38
   124  074D  340D               	retlw	13
   125  074E  341E               	retlw	30
   126  074F  3499               	retlw	153
   127  0750  3478               	retlw	120
   128  0751  3400               	retlw	0
   129  0752  3422               	retlw	34
   130  0753  3499               	retlw	153
   131  0754  34DE               	retlw	222
   132  0755                     RF_Carrier@RF_cal2_data:	
   133  0755  3445               	retlw	69
   134  0756  3421               	retlw	33
   135  0757  343F               	retlw	63
   136  0758  342D               	retlw	45
   137  0759  345C               	retlw	92
   138  075A  3440               	retlw	64
   139  075B                     RF_Init@RF_cal2_data:	
   140  075B  3445               	retlw	69
   141  075C  3421               	retlw	33
   142  075D  343F               	retlw	63
   143  075E  342D               	retlw	45
   144  075F  345C               	retlw	92
   145  0760  3440               	retlw	64
   146  0761                     RF_Carrier@BB_cal_data:	
   147  0761  340A               	retlw	10
   148  0762  346D               	retlw	109
   149  0763  3467               	retlw	103
   150  0764  349C               	retlw	156
   151  0765  3446               	retlw	70
   152  0766                     RF_Init@BB_cal_data:	
   153  0766  340A               	retlw	10
   154  0767  346D               	retlw	109
   155  0768  3467               	retlw	103
   156  0769  349C               	retlw	156
   157  076A  3446               	retlw	70
   158  076B                     RF_Carrier@Dem_cal2_data:	
   159  076B  340B               	retlw	11
   160  076C  34DF               	retlw	223
   161  076D  3402               	retlw	2
   162  076E                     RF_Carrier@RF_cal_data:	
   163  076E  3416               	retlw	22
   164  076F  3433               	retlw	51
   165  0770  3427               	retlw	39
   166  0771                     RF_Init@Dem_cal2_data:	
   167  0771  340B               	retlw	11
   168  0772  34DF               	retlw	223
   169  0773  3402               	retlw	2
   170  0774                     RF_Init@RF_cal_data:	
   171  0774  3416               	retlw	22
   172  0775  3433               	retlw	51
   173  0776  3427               	retlw	39
   174  0777                     _RX_ADDRESS_DEF:	
   175  0777  342D               	retlw	45
   176  0778  34D7               	retlw	215
   177  0779  34B9               	retlw	185
   178  077A                     _TX_ADDRESS_DEF:	
   179  077A  34CC               	retlw	204
   180  077B  34CC               	retlw	204
   181  077C  34CC               	retlw	204
   182  077D                     RF_Carrier@Dem_cal_data:	
   183  077D  34E1               	retlw	225
   184  077E                     RF_Init@Dem_cal_data:	
   185  077E  3401               	retlw	1
   186  000B                     _INTCON	set	11
   187  000C                     _PIR1	set	12
   188  0010                     _T1CON	set	16
   189  000F                     _TMR1H	set	15
   190  000E                     _TMR1L	set	14
   191  002C                     _RA4	set	44
   192  002D                     _RA5	set	45
   193  002F                     _RA7	set	47
   194  0031                     _RB1	set	49
   195  0032                     _RB2	set	50
   196  0033                     _RB3	set	51
   197  0034                     _RB4	set	52
   198  0035                     _RB5	set	53
   199  0036                     _RB6	set	54
   200  0038                     _RC0	set	56
   201  0039                     _RC1	set	57
   202  003A                     _RC2	set	58
   203  0049                     _RE1	set	73
   204  004A                     _RE2	set	74
   205  0081                     _OPTION_REG	set	129
   206  008F                     _OSCCON	set	143
   207  0090                     _OSCTUNE	set	144
   208  008C                     _PIE1	set	140
   209  0086                     _TRISB	set	134
   210  0087                     _TRISC	set	135
   211  0095                     _WPUB	set	149
   212  042B                     _TRISA3	set	1067
   213  042C                     _TRISA4	set	1068
   214  042D                     _TRISA5	set	1069
   215  042F                     _TRISA7	set	1071
   216  0434                     _TRISB4	set	1076
   217  0435                     _TRISB5	set	1077
   218  0436                     _TRISB6	set	1078
   219  0438                     _TRISC0	set	1080
   220  0439                     _TRISC1	set	1081
   221  0449                     _TRISE1	set	1097
   222  044A                     _TRISE2	set	1098
   223  0C79                     _WPUC1	set	3193
   224                           
   225                           	psect	cinit
   226  0DC5                     start_initialization:	
   227  0DC5  3020               	movlw	low __pbssBANK0
   228                           
   229                           ; Clear objects allocated to COMMON
   230  0DC6  01F6               	clrf	__pbssCOMMON& (0+127)
   231  0DC7  01F7               	clrf	(__pbssCOMMON+1)& (0+127)
   232  0DC8  01F8               	clrf	(__pbssCOMMON+2)& (0+127)
   233  0DC9  01F9               	clrf	(__pbssCOMMON+3)& (0+127)
   234  0DCA  01FA               	clrf	(__pbssCOMMON+4)& (0+127)
   235                           
   236                           ; Clear objects allocated to BANK0
   237  0DCB  1383               	bcf	3,7	;select IRP bank0
   238  0DCC  0084               	movwf	4
   239  0DCD  3050               	movlw	low (__pbssBANK0+48)
   240  0DCE  118A  27F4  158A   	fcall	clear_ram
   241                           
   242                           ; Clear objects allocated to BANK1
   243  0DD1  30A0               	movlw	low __pbssBANK1
   244  0DD2  0084               	movwf	4
   245  0DD3  30F0               	movlw	low (__pbssBANK1+80)
   246  0DD4  118A  27F4         	fcall	clear_ram
   247                           
   248                           ;initializer for _match_channel_flag
   249  0DD6  3020               	movlw	32
   250  0DD7  00EE               	movwf	__pdataBANK0& (0+127)
   251                           
   252                           ;initializer for _sys_stute
   253  0DD8  3002               	movlw	2
   254  0DD9  00EF               	movwf	(__pdataBANK0+1)& (0+127)
   255  0DDA                     end_of_initialization:	
   256                           ;End of C runtime variable initialization code
   257                           
   258  0DDA  0183               	clrf	3
   259  0DDB  118A  2E6C         	ljmp	_main	;jump to C main() function
   260                           
   261                           	psect	bssCOMMON
   262  0076                     __pbssCOMMON:	
   263  0076                     _KEY0_FLAG:	
   264  0076                     	ds	1
   265  0077                     _KEY1_FLAG:	
   266  0077                     	ds	1
   267  0078                     _KEY2_FLAG:	
   268  0078                     	ds	1
   269  0079                     _key_long_flag:	
   270  0079                     	ds	1
   271  007A                     _key_long_flag_add:	
   272  007A                     	ds	1
   273                           
   274                           	psect	bssBANK0
   275  0020                     __pbssBANK0:	
   276  0020                     _KEY0:	
   277  0020                     	ds	3
   278  0023                     _KEY1:	
   279  0023                     	ds	3
   280  0026                     _KEY2:	
   281  0026                     	ds	3
   282  0029                     _channel_delay:	
   283  0029                     	ds	3
   284  002C                     _Timer1_set_time:	
   285  002C                     	ds	2
   286  002E                     _flag_5min_add:	
   287  002E                     	ds	2
   288  0030                     _flag_5s_add:	
   289  0030                     	ds	2
   290  0032                     _flag_time_key0_add:	
   291  0032                     	ds	2
   292  0034                     _flag_time_key1_add:	
   293  0034                     	ds	2
   294  0036                     _flag_time_key2_add:	
   295  0036                     	ds	2
   296  0038                     _Timer0_set_time:	
   297  0038                     	ds	1
   298  0039                     _delay_flag:	
   299  0039                     	ds	1
   300  003A                     _last_PORTB_value:	
   301  003A                     	ds	1
   302  003B                     _rf_buf:	
   303  003B                     	ds	18
   304  004D                     _channel_flag:	
   305  004D                     	ds	3
   306                           
   307                           	psect	dataBANK0
   308  006E                     __pdataBANK0:	
   309  006E                     _match_channel_flag:	
   310  006E                     	ds	1
   311  006F                     _sys_stute:	
   312  006F                     	ds	1
   313                           
   314                           	psect	bssBANK1
   315  00A0                     __pbssBANK1:	
   316  00A0                     _virtual_timer_group:	
   317  00A0                     	ds	6
   318  00A6                     _ADC_digital_value:	
   319  00A6                     	ds	2
   320  00A8                     _control_id:	
   321  00A8                     	ds	72
   322                           
   323                           	psect	clrtext
   324  07F4                     clear_ram:	
   325                           ;	Called with FSR containing the base address, and
   326                           ;	W with the last address+1
   327                           
   328  07F4  0064               	clrwdt	;clear the watchdog before getting into this loop
   329  07F5                     clrloop:	
   330  07F5  0180               	clrf	0	;clear RAM location pointed to by FSR
   331  07F6  0A84               	incf	4,f	;increment pointer
   332  07F7  0604               	xorwf	4,w	;XOR with final address
   333  07F8  1903               	btfsc	3,2	;have we reached the end yet?
   334  07F9  3400               	retlw	0	;all done for this memory range, return
   335  07FA  0604               	xorwf	4,w	;XOR again to restore value
   336  07FB  2FF5               	goto	clrloop	;do the next byte
   337                           
   338                           	psect	cstackCOMMON
   339  0070                     __pcstackCOMMON:	
   340  0070                     ?_system_set_CPU_frequency:	
   341  0070                     ?_IIC_Init:	
   342                           ; 0 bytes @ 0x0
   343                           
   344  0070                     ?_key_Init:	
   345                           ; 0 bytes @ 0x0
   346                           
   347  0070                     ?_RF_Init:	
   348                           ; 0 bytes @ 0x0
   349                           
   350  0070                     ?_RF_Set_RxMode:	
   351                           ; 0 bytes @ 0x0
   352                           
   353  0070                     ?_Timer1_Init:	
   354                           ; 0 bytes @ 0x0
   355                           
   356  0070                     ?_Enable_Interrupt:	
   357                           ; 0 bytes @ 0x0
   358                           
   359  0070                     ?_recive_task:	
   360                           ; 0 bytes @ 0x0
   361                           
   362  0070                     ?_key_value_read:	
   363                           ; 0 bytes @ 0x0
   364                           
   365  0070                     ?_delay_task:	
   366                           ; 0 bytes @ 0x0
   367                           
   368  0070                     ?_TIMER1_ISR:	
   369                           ; 0 bytes @ 0x0
   370                           
   371  0070                     ??_TIMER1_ISR:	
   372                           ; 0 bytes @ 0x0
   373                           
   374  0070                     ?_SPI_init:	
   375                           ; 0 bytes @ 0x0
   376                           
   377  0070                     ?_RF_ClearFIFO:	
   378                           ; 0 bytes @ 0x0
   379                           
   380  0070                     ?_RF_ClearStatus:	
   381                           ; 0 bytes @ 0x0
   382                           
   383  0070                     ?_main:	
   384                           ; 0 bytes @ 0x0
   385                           
   386  0070                     ?_ISR:	
   387                           ; 0 bytes @ 0x0
   388                           
   389  0070                     ??_ISR:	
   390                           ; 0 bytes @ 0x0
   391                           
   392  0070                     ?_key_scan:	
   393                           ; 0 bytes @ 0x0
   394                           
   395  0070                     ?_iic_delay_us:	
   396                           ; 0 bytes @ 0x0
   397                           
   398  0070                     ?_IIC_START:	
   399                           ; 0 bytes @ 0x0
   400                           
   401  0070                     ?_IIC_STOP:	
   402                           ; 0 bytes @ 0x0
   403                           
   404  0070                     ?_IIC_ACK:	
   405                           ; 0 bytes @ 0x0
   406                           
   407  0070                     ?_IIC_NACK:	
   408                           ; 0 bytes @ 0x0
   409                           
   410  0070                     ?_I2C_SendByte:	
   411                           ; 0 bytes @ 0x0
   412                           
   413  0070                     ?_RF_GetStatus:	
   414                           ; 0 bytes @ 0x0
   415                           
   416  0070                     ?_RF_ReadReg:	
   417                           ; 1 bytes @ 0x0
   418                           
   419  0070                     ?_SPI_RW:	
   420                           ; 1 bytes @ 0x0
   421                           
   422  0070                     ?_rx_data:	
   423                           ; 1 bytes @ 0x0
   424                           
   425  0070                     ?_IIC_Wait_ACK:	
   426                           ; 1 bytes @ 0x0
   427                           
   428  0070                     ?_AT24C02_Read_Byte:	
   429                           ; 1 bytes @ 0x0
   430                           
   431                           
   432                           ; 1 bytes @ 0x0
   433  0070                     	ds	2
   434  0072                     ISR@peripheral_intterrupt_touch:	
   435                           
   436                           ; 1 bytes @ 0x2
   437  0072                     	ds	1
   438  0073                     ??_system_set_CPU_frequency:	
   439  0073                     ?_soft_delay_ms:	
   440                           ; 0 bytes @ 0x3
   441                           
   442  0073                     ??_IIC_Init:	
   443                           ; 0 bytes @ 0x3
   444                           
   445  0073                     ??_key_Init:	
   446                           ; 0 bytes @ 0x3
   447                           
   448  0073                     ??_Timer1_Init:	
   449                           ; 0 bytes @ 0x3
   450                           
   451  0073                     ?_Timer1_start:	
   452                           ; 0 bytes @ 0x3
   453                           
   454  0073                     ??_Enable_Interrupt:	
   455                           ; 0 bytes @ 0x3
   456                           
   457  0073                     ?_channel_set:	
   458                           ; 0 bytes @ 0x3
   459                           
   460  0073                     ??_delay_task:	
   461                           ; 0 bytes @ 0x3
   462                           
   463  0073                     ??_SPI_init:	
   464                           ; 0 bytes @ 0x3
   465                           
   466  0073                     ??_SPI_RW:	
   467                           ; 0 bytes @ 0x3
   468                           
   469  0073                     ??_iic_delay_us:	
   470                           ; 0 bytes @ 0x3
   471                           
   472  0073                     ?___bmul:	
   473                           ; 0 bytes @ 0x3
   474                           
   475  0073                     ?_UpdateCRC:	
   476                           ; 1 bytes @ 0x3
   477                           
   478  0073                     system_set_CPU_frequency@CPU_Frequency:	
   479                           ; 2 bytes @ 0x3
   480                           
   481  0073                     Timer1_Init@TIMER1_DIVIDER:	
   482                           ; 1 bytes @ 0x3
   483                           
   484  0073                     SPI_RW@read_reg_addr:	
   485                           ; 1 bytes @ 0x3
   486                           
   487  0073                     channel_set@status:	
   488                           ; 1 bytes @ 0x3
   489                           
   490  0073                     iic_delay_us@delay:	
   491                           ; 1 bytes @ 0x3
   492                           
   493  0073                     ___bmul@multiplicand:	
   494                           ; 1 bytes @ 0x3
   495                           
   496  0073                     Timer1_start@T_nums:	
   497                           ; 1 bytes @ 0x3
   498                           
   499  0073                     soft_delay_ms@ms:	
   500                           ; 2 bytes @ 0x3
   501                           
   502  0073                     UpdateCRC@len:	
   503                           ; 2 bytes @ 0x3
   504                           
   505                           
   506                           ; 2 bytes @ 0x3
   507  0073                     	ds	1
   508  0074                     ??_channel_set:	
   509  0074                     ??_IIC_START:	
   510                           ; 0 bytes @ 0x4
   511                           
   512  0074                     ??_IIC_STOP:	
   513                           ; 0 bytes @ 0x4
   514                           
   515  0074                     ??_IIC_Wait_ACK:	
   516                           ; 0 bytes @ 0x4
   517                           
   518  0074                     ??_IIC_ACK:	
   519                           ; 0 bytes @ 0x4
   520                           
   521  0074                     ??_IIC_NACK:	
   522                           ; 0 bytes @ 0x4
   523                           
   524  0074                     ??_I2C_SendByte:	
   525                           ; 0 bytes @ 0x4
   526                           
   527  0074                     ??___bmul:	
   528                           ; 0 bytes @ 0x4
   529                           
   530  0074                     ?_I2C_ReadByte:	
   531                           ; 0 bytes @ 0x4
   532                           
   533  0074                     SPI_RW@i:	
   534                           ; 2 bytes @ 0x4
   535                           
   536  0074                     channel_set@channel_num:	
   537                           ; 1 bytes @ 0x4
   538                           
   539  0074                     I2C_SendByte@Data:	
   540                           ; 1 bytes @ 0x4
   541                           
   542  0074                     ___bmul@product:	
   543                           ; 1 bytes @ 0x4
   544                           
   545                           
   546                           ; 1 bytes @ 0x4
   547  0074                     	ds	1
   548  0075                     ??_soft_delay_ms:	
   549  0075                     ??_key_value_read:	
   550                           ; 0 bytes @ 0x5
   551                           
   552  0075                     ??_RF_GetStatus:	
   553                           ; 0 bytes @ 0x5
   554                           
   555  0075                     ?_RF_WriteReg:	
   556                           ; 0 bytes @ 0x5
   557                           
   558  0075                     ??_RF_Write_Buff:	
   559                           ; 0 bytes @ 0x5
   560                           
   561  0075                     ??_RF_Read_Buff:	
   562                           ; 0 bytes @ 0x5
   563                           
   564  0075                     ??_RF_ReadReg:	
   565                           ; 0 bytes @ 0x5
   566                           
   567  0075                     ??_key_scan:	
   568                           ; 0 bytes @ 0x5
   569                           
   570  0075                     Timer1_start@Timer1_ISR_execution_total_time:	
   571                           ; 0 bytes @ 0x5
   572                           
   573  0075                     RF_WriteReg@write_data:	
   574                           ; 1 bytes @ 0x5
   575                           
   576  0075                     I2C_SendByte@cnt:	
   577                           ; 1 bytes @ 0x5
   578                           
   579  0075                     ___bmul@multiplier:	
   580                           ; 1 bytes @ 0x5
   581                           
   582                           
   583                           ; 1 bytes @ 0x5
   584  0075                     	ds	1
   585  0076                     ??_RF_Init:	
   586  0076                     ??_RF_Set_RxMode:	
   587                           ; 0 bytes @ 0x6
   588                           
   589  0076                     ??_RF_WriteReg:	
   590                           ; 0 bytes @ 0x6
   591                           
   592  0076                     ??_RF_ClearFIFO:	
   593                           ; 0 bytes @ 0x6
   594                           
   595  0076                     ??_RF_ClearStatus:	
   596                           ; 0 bytes @ 0x6
   597                           
   598  0076                     ??_AT24C02_Write_Byte:	
   599                           ; 0 bytes @ 0x6
   600                           
   601  0076                     ??_main:	
   602                           ; 0 bytes @ 0x6
   603                           
   604  0076                     ??_I2C_ReadByte:	
   605                           ; 0 bytes @ 0x6
   606                           
   607  0076                     ??_AT24C02_Read_Byte:	
   608                           ; 0 bytes @ 0x6
   609                           
   610                           
   611                           	psect	cstackBANK0
   612  0050                     __pcstackBANK0:	
   613                           ; 0 bytes @ 0x6
   614                           
   615  0050                     ??_Timer1_start:	
   616  0050                     ?_RF_Write_Buff:	
   617                           ; 0 bytes @ 0x0
   618                           
   619  0050                     ?_RF_Read_Buff:	
   620                           ; 0 bytes @ 0x0
   621                           
   622  0050                     ?_AT24C02_Write_Byte:	
   623                           ; 0 bytes @ 0x0
   624                           
   625  0050                     ??_UpdateCRC:	
   626                           ; 0 bytes @ 0x0
   627                           
   628  0050                     RF_Read_Buff@pBuff:	
   629                           ; 0 bytes @ 0x0
   630                           
   631  0050                     RF_Write_Buff@pBuff:	
   632                           ; 1 bytes @ 0x0
   633                           
   634  0050                     RF_WriteReg@reg_addr:	
   635                           ; 1 bytes @ 0x0
   636                           
   637  0050                     RF_ReadReg@reg_addr:	
   638                           ; 1 bytes @ 0x0
   639                           
   640  0050                     I2C_ReadByte@ack:	
   641                           ; 1 bytes @ 0x0
   642                           
   643  0050                     AT24C02_Write_Byte@data:	
   644                           ; 1 bytes @ 0x0
   645                           
   646  0050                     soft_delay_ms@i:	
   647                           ; 1 bytes @ 0x0
   648                           
   649                           
   650                           ; 2 bytes @ 0x0
   651  0050                     	ds	1
   652  0051                     RF_Read_Buff@length:	
   653  0051                     RF_Write_Buff@length:	
   654                           ; 1 bytes @ 0x1
   655                           
   656  0051                     RF_ReadReg@tmp:	
   657                           ; 1 bytes @ 0x1
   658                           
   659  0051                     AT24C02_Write_Byte@addr:	
   660                           ; 1 bytes @ 0x1
   661                           
   662  0051                     I2C_ReadByte@data:	
   663                           ; 1 bytes @ 0x1
   664                           
   665                           
   666                           ; 2 bytes @ 0x1
   667  0051                     	ds	1
   668  0052                     RF_Read_Buff@reg_addr:	
   669  0052                     RF_Write_Buff@reg_addr:	
   670                           ; 1 bytes @ 0x2
   671                           
   672  0052                     soft_delay_ms@j:	
   673                           ; 1 bytes @ 0x2
   674                           
   675                           
   676                           ; 1 bytes @ 0x2
   677  0052                     	ds	1
   678  0053                     RF_Read_Buff@byte_ctr:	
   679  0053                     RF_Write_Buff@i:	
   680                           ; 1 bytes @ 0x3
   681                           
   682  0053                     soft_delay_ms@k:	
   683                           ; 1 bytes @ 0x3
   684                           
   685  0053                     UpdateCRC@CRC_input:	
   686                           ; 1 bytes @ 0x3
   687                           
   688  0053                     I2C_ReadByte@cnt:	
   689                           ; 1 bytes @ 0x3
   690                           
   691                           
   692                           ; 1 bytes @ 0x3
   693  0053                     	ds	1
   694  0054                     ?_AT24C02_Write_Msg:	
   695  0054                     ?_RF_RxData:	
   696                           ; 0 bytes @ 0x4
   697                           
   698  0054                     RF_RxData@length:	
   699                           ; 1 bytes @ 0x4
   700                           
   701  0054                     UpdateCRC@k:	
   702                           ; 1 bytes @ 0x4
   703                           
   704  0054                     AT24C02_Read_Byte@addr:	
   705                           ; 1 bytes @ 0x4
   706                           
   707  0054                     AT24C02_Write_Msg@data:	
   708                           ; 1 bytes @ 0x4
   709                           
   710                           
   711                           ; 1 bytes @ 0x4
   712  0054                     	ds	1
   713  0055                     ??_RF_RxData:	
   714  0055                     UpdateCRC@i:	
   715                           ; 0 bytes @ 0x5
   716                           
   717  0055                     AT24C02_Read_Byte@temp:	
   718                           ; 1 bytes @ 0x5
   719                           
   720  0055                     AT24C02_Write_Msg@len:	
   721                           ; 1 bytes @ 0x5
   722                           
   723                           
   724                           ; 1 bytes @ 0x5
   725  0055                     	ds	1
   726  0056                     ?_AT24C02_Read_Msg:	
   727  0056                     ??_AT24C02_Write_Msg:	
   728                           ; 0 bytes @ 0x6
   729                           
   730  0056                     RF_RxData@payload_buff:	
   731                           ; 0 bytes @ 0x6
   732                           
   733  0056                     AT24C02_Read_Msg@data:	
   734                           ; 1 bytes @ 0x6
   735                           
   736  0056                     UpdateCRC@CRC_acc:	
   737                           ; 1 bytes @ 0x6
   738                           
   739                           
   740                           ; 2 bytes @ 0x6
   741  0056                     	ds	1
   742  0057                     AT24C02_Write_Msg@addr:	
   743  0057                     AT24C02_Read_Msg@len:	
   744                           ; 1 bytes @ 0x7
   745                           
   746                           
   747                           ; 1 bytes @ 0x7
   748  0057                     	ds	1
   749  0058                     ??_AT24C02_Read_Msg:	
   750  0058                     ??_rx_data:	
   751                           ; 0 bytes @ 0x8
   752                           
   753  0058                     AT24C02_Write_Msg@i:	
   754                           ; 0 bytes @ 0x8
   755                           
   756                           
   757                           ; 1 bytes @ 0x8
   758  0058                     	ds	1
   759  0059                     AT24C02_Read_Msg@addr:	
   760                           
   761                           ; 1 bytes @ 0x9
   762  0059                     	ds	1
   763  005A                     AT24C02_Read_Msg@i:	
   764                           
   765                           ; 1 bytes @ 0xA
   766  005A                     	ds	1
   767  005B                     rx_data@crc16:	
   768                           
   769                           ; 2 bytes @ 0xB
   770  005B                     	ds	2
   771  005D                     rx_data@rand:	
   772                           
   773                           ; 1 bytes @ 0xD
   774  005D                     	ds	1
   775  005E                     rx_data@rx_flag:	
   776                           
   777                           ; 1 bytes @ 0xE
   778  005E                     	ds	1
   779  005F                     rx_data@i:	
   780                           
   781                           ; 1 bytes @ 0xF
   782  005F                     	ds	1
   783  0060                     ??_recive_task:	
   784                           
   785                           ; 0 bytes @ 0x10
   786  0060                     	ds	4
   787  0064                     recive_task@flag_led:	
   788                           
   789                           ; 1 bytes @ 0x14
   790  0064                     	ds	1
   791  0065                     recive_task@match_flag:	
   792                           
   793                           ; 1 bytes @ 0x15
   794  0065                     	ds	1
   795  0066                     recive_task@msg:	
   796                           
   797                           ; 6 bytes @ 0x16
   798  0066                     	ds	6
   799  006C                     recive_task@i:	
   800                           
   801                           ; 1 bytes @ 0x1C
   802  006C                     	ds	1
   803  006D                     main@i:	
   804                           
   805                           ; 1 bytes @ 0x1D
   806  006D                     	ds	1
   807                           
   808                           	psect	maintext
   809  066C                     __pmaintext:	
   810 ;;Data sizes: Strings 0, constant 121, data 2, bss 133, persistent 0 stack 0
   811 ;;Auto spaces:   Size  Autos    Used
   812 ;; COMMON          14      6      11
   813 ;; BANK0           80     30      80
   814 ;; BANK1           80      0      80
   815 ;; BANK3           88      0       0
   816 ;; BANK2           80      0       0
   817 ;;
   818 ;; Pointer list with targets:
   819 ;; ?_I2C_ReadByte	unsigned int  size(1) Largest target is 0
   820 ;;
   821 ;; ?_UpdateCRC	unsigned short  size(1) Largest target is 0
   822 ;;
   823 ;; AT24C02_Read_Msg@data	PTR unsigned char  size(1) Largest target is 72
   824 ;;		 -> channel_flag(BANK0[3]), control_id(BANK1[72]), 
   825 ;;
   826 ;; AT24C02_Write_Msg@data	PTR unsigned char  size(1) Largest target is 6
   827 ;;		 -> recive_task@msg(BANK0[6]), channel_flag(BANK0[3]), 
   828 ;;
   829 ;; UpdateCRC@CRC_input	PTR unsigned char  size(1) Largest target is 18
   830 ;;		 -> rf_buf(BANK0[18]), 
   831 ;;
   832 ;; RF_Write_Buff@pBuff	PTR unsigned char  size(1) Largest target is 6
   833 ;;		 -> RF_Carrier@Dem_cal2_data(CODE[3]), RF_Carrier@RF_cal_data(CODE[3]), RF_Carrier@Dem_cal_data(CODE[1]), RF_Carrier
      +@RF_cal2_data(CODE[6]), 
   834 ;;		 -> RF_Carrier@BB_cal_data(CODE[5]), RF_Init@Dem_cal2_data(CODE[3]), RF_Init@RF_cal_data(CODE[3]), RF_Init@Dem_cal_d
      +ata(CODE[1]), 
   835 ;;		 -> RF_Init@RF_cal2_data(CODE[6]), RF_Init@BB_cal_data(CODE[5]), RX_ADDRESS_DEF(CODE[3]), TX_ADDRESS_DEF(CODE[3]), 
   836 ;;
   837 ;; RF_Read_Buff@pBuff	PTR unsigned char  size(1) Largest target is 18
   838 ;;		 -> rf_buf(BANK0[18]), 
   839 ;;
   840 ;; RF_RxData@payload_buff	PTR unsigned char  size(1) Largest target is 18
   841 ;;		 -> rf_buf(BANK0[18]), 
   842 ;;
   843 ;;
   844 ;; Critical Paths under _main in COMMON
   845 ;;
   846 ;;   _main->_Timer1_start
   847 ;;   _main->___bmul
   848 ;;   _recive_task->___bmul
   849 ;;   _AT24C02_Read_Msg->___bmul
   850 ;;   _AT24C02_Read_Byte->_I2C_SendByte
   851 ;;   _AT24C02_Read_Byte->_I2C_ReadByte
   852 ;;   _AT24C02_Write_Msg->___bmul
   853 ;;   _RF_RxData->_RF_Read_Buff
   854 ;;   _I2C_ReadByte->_iic_delay_us
   855 ;;   _AT24C02_Write_Byte->_I2C_SendByte
   856 ;;   _RF_ClearStatus->_RF_WriteReg
   857 ;;   _RF_ClearFIFO->_RF_WriteReg
   858 ;;   _key_value_read->_soft_delay_ms
   859 ;;   _RF_Set_RxMode->_RF_WriteReg
   860 ;;   _RF_Init->_RF_WriteReg
   861 ;;   _I2C_SendByte->_iic_delay_us
   862 ;;   _IIC_NACK->_iic_delay_us
   863 ;;   _IIC_ACK->_iic_delay_us
   864 ;;   _IIC_Wait_ACK->_iic_delay_us
   865 ;;   _IIC_STOP->_iic_delay_us
   866 ;;   _IIC_START->_iic_delay_us
   867 ;;   _key_scan->_soft_delay_ms
   868 ;;   _RF_ReadReg->_SPI_RW
   869 ;;   _RF_Read_Buff->_SPI_RW
   870 ;;   _RF_Write_Buff->_SPI_RW
   871 ;;   _RF_WriteReg->_SPI_RW
   872 ;;
   873 ;; Critical Paths under _ISR in COMMON
   874 ;;
   875 ;;   None.
   876 ;;
   877 ;; Critical Paths under _main in BANK0
   878 ;;
   879 ;;   _main->_recive_task
   880 ;;   _recive_task->_rx_data
   881 ;;   _rx_data->_UpdateCRC
   882 ;;   _AT24C02_Read_Msg->_AT24C02_Read_Byte
   883 ;;   _AT24C02_Read_Byte->_I2C_ReadByte
   884 ;;   _AT24C02_Write_Msg->_soft_delay_ms
   885 ;;   _RF_RxData->_RF_Read_Buff
   886 ;;   _RF_ClearStatus->_RF_WriteReg
   887 ;;   _RF_ClearFIFO->_RF_WriteReg
   888 ;;   _RF_GetStatus->_RF_ReadReg
   889 ;;   _key_value_read->_soft_delay_ms
   890 ;;   _RF_Set_RxMode->_soft_delay_ms
   891 ;;   _RF_Init->_RF_Write_Buff
   892 ;;   _key_scan->_soft_delay_ms
   893 ;;
   894 ;; Critical Paths under _ISR in BANK0
   895 ;;
   896 ;;   None.
   897 ;;
   898 ;; Critical Paths under _main in BANK1
   899 ;;
   900 ;;   None.
   901 ;;
   902 ;; Critical Paths under _ISR in BANK1
   903 ;;
   904 ;;   None.
   905 ;;
   906 ;; Critical Paths under _main in BANK3
   907 ;;
   908 ;;   None.
   909 ;;
   910 ;; Critical Paths under _ISR in BANK3
   911 ;;
   912 ;;   None.
   913 ;;
   914 ;; Critical Paths under _main in BANK2
   915 ;;
   916 ;;   None.
   917 ;;
   918 ;; Critical Paths under _ISR in BANK2
   919 ;;
   920 ;;   None.
   921 ;;
   922 ;;Main: autosize = 0, tempsize = 0, incstack = 0, save=0
   923 ;;
   924 ;;
   925 ;;Call Graph Tables:
   926 ;;
   927 ;; ---------------------------------------------------------------------------------
   928 ;; (Depth) Function   	        Calls       Base Space   Used Autos Params    Refs
   929 ;; ---------------------------------------------------------------------------------
   930 ;; (0) _main                                                 1     1      0    9753
   931 ;;                                             29 BANK0      1     1      0
   932 ;;           _system_set_CPU_frequency
   933 ;;                      _soft_delay_ms
   934 ;;                           _IIC_Init
   935 ;;                           _key_Init
   936 ;;                            _RF_Init
   937 ;;                      _RF_Set_RxMode
   938 ;;                        _Timer1_Init
   939 ;;                       _Timer1_start
   940 ;;                             ___bmul
   941 ;;                   _AT24C02_Read_Msg
   942 ;;                   _Enable_Interrupt
   943 ;;                        _channel_set
   944 ;;                        _recive_task
   945 ;;                     _key_value_read
   946 ;;                         _delay_task
   947 ;; ---------------------------------------------------------------------------------
   948 ;; (1) _recive_task                                         13    13      0    7268
   949 ;;                                             16 BANK0     13    13      0
   950 ;;                 _AT24C02_Write_Byte
   951 ;;                      _soft_delay_ms
   952 ;;                             ___bmul
   953 ;;                   _AT24C02_Read_Msg
   954 ;;                            _rx_data
   955 ;;                  _AT24C02_Write_Msg
   956 ;;                       _RF_ClearFIFO
   957 ;;                     _RF_ClearStatus
   958 ;; ---------------------------------------------------------------------------------
   959 ;; (2) _rx_data                                              8     8      0    1697
   960 ;;                                              8 BANK0      8     8      0
   961 ;;                          _RF_RxData
   962 ;;                          _UpdateCRC
   963 ;; ---------------------------------------------------------------------------------
   964 ;; (2) _AT24C02_Read_Msg                                     5     3      2     675
   965 ;;                                              6 BANK0      5     3      2
   966 ;;                  _AT24C02_Read_Byte
   967 ;;                      _soft_delay_ms
   968 ;;                             ___bmul (ARG)
   969 ;; ---------------------------------------------------------------------------------
   970 ;; (3) _AT24C02_Read_Byte                                    2     2      0     370
   971 ;;                                              4 BANK0      2     2      0
   972 ;;                          _IIC_START
   973 ;;                       _I2C_SendByte
   974 ;;                       _IIC_Wait_ACK
   975 ;;                       _I2C_ReadByte
   976 ;;                           _IIC_STOP
   977 ;; ---------------------------------------------------------------------------------
   978 ;; (2) _AT24C02_Write_Msg                                    5     3      2     533
   979 ;;                                              4 BANK0      5     3      2
   980 ;;                 _AT24C02_Write_Byte
   981 ;;                      _soft_delay_ms
   982 ;;                             ___bmul (ARG)
   983 ;; ---------------------------------------------------------------------------------
   984 ;; (3) _RF_RxData                                            3     2      1     956
   985 ;;                                              4 BANK0      3     2      1
   986 ;;                       _RF_GetStatus
   987 ;;                       _RF_Read_Buff
   988 ;;                       _RF_ClearFIFO
   989 ;;                     _RF_ClearStatus
   990 ;; ---------------------------------------------------------------------------------
   991 ;; (4) _I2C_ReadByte                                         6     4      2     158
   992 ;;                                              4 COMMON     2     0      2
   993 ;;                                              0 BANK0      4     4      0
   994 ;;                       _iic_delay_us
   995 ;;                           _IIC_NACK
   996 ;;                            _IIC_ACK
   997 ;; ---------------------------------------------------------------------------------
   998 ;; (3) _AT24C02_Write_Byte                                   2     1      1     228
   999 ;;                                              0 BANK0      2     1      1
  1000 ;;                          _IIC_START
  1001 ;;                       _I2C_SendByte
  1002 ;;                       _IIC_Wait_ACK
  1003 ;;                           _IIC_STOP
  1004 ;; ---------------------------------------------------------------------------------
  1005 ;; (2) _RF_ClearStatus                                       0     0      0     198
  1006 ;;                        _RF_WriteReg
  1007 ;; ---------------------------------------------------------------------------------
  1008 ;; (2) _RF_ClearFIFO                                         0     0      0     198
  1009 ;;                        _RF_WriteReg
  1010 ;; ---------------------------------------------------------------------------------
  1011 ;; (4) _RF_GetStatus                                         0     0      0     201
  1012 ;;                         _RF_ReadReg
  1013 ;; ---------------------------------------------------------------------------------
  1014 ;; (1) _key_value_read                                       0     0      0     276
  1015 ;;                           _key_scan
  1016 ;;                      _soft_delay_ms
  1017 ;; ---------------------------------------------------------------------------------
  1018 ;; (1) _RF_Set_RxMode                                        0     0      0     336
  1019 ;;                        _RF_WriteReg
  1020 ;;                      _soft_delay_ms
  1021 ;; ---------------------------------------------------------------------------------
  1022 ;; (1) _RF_Init                                              1     1      0     532
  1023 ;;                                              4 BANK0      1     1      0
  1024 ;;                           _SPI_init
  1025 ;;                        _RF_WriteReg
  1026 ;;                      _RF_Write_Buff
  1027 ;; ---------------------------------------------------------------------------------
  1028 ;; (4) _I2C_SendByte                                         2     2      0      91
  1029 ;;                                              4 COMMON     2     2      0
  1030 ;;                       _iic_delay_us
  1031 ;; ---------------------------------------------------------------------------------
  1032 ;; (5) _IIC_NACK                                             0     0      0      22
  1033 ;;                       _iic_delay_us
  1034 ;; ---------------------------------------------------------------------------------
  1035 ;; (5) _IIC_ACK                                              0     0      0      22
  1036 ;;                       _iic_delay_us
  1037 ;; ---------------------------------------------------------------------------------
  1038 ;; (4) _IIC_Wait_ACK                                         1     1      0      31
  1039 ;;                                              4 COMMON     1     1      0
  1040 ;;                       _iic_delay_us
  1041 ;; ---------------------------------------------------------------------------------
  1042 ;; (4) _IIC_STOP                                             0     0      0      22
  1043 ;;                       _iic_delay_us
  1044 ;; ---------------------------------------------------------------------------------
  1045 ;; (4) _IIC_START                                            0     0      0      22
  1046 ;;                       _iic_delay_us
  1047 ;; ---------------------------------------------------------------------------------
  1048 ;; (2) _key_scan                                             0     0      0     138
  1049 ;;                      _soft_delay_ms
  1050 ;; ---------------------------------------------------------------------------------
  1051 ;; (5) _RF_ReadReg                                           2     2      0     201
  1052 ;;                                              0 BANK0      2     2      0
  1053 ;;                             _SPI_RW
  1054 ;; ---------------------------------------------------------------------------------
  1055 ;; (4) _RF_Read_Buff                                         5     3      2     297
  1056 ;;                                              5 COMMON     1     1      0
  1057 ;;                                              0 BANK0      4     2      2
  1058 ;;                             _SPI_RW
  1059 ;; ---------------------------------------------------------------------------------
  1060 ;; (2) _RF_Write_Buff                                        4     2      2     297
  1061 ;;                                              0 BANK0      4     2      2
  1062 ;;                             _SPI_RW
  1063 ;; ---------------------------------------------------------------------------------
  1064 ;; (3) _RF_WriteReg                                          2     1      1     198
  1065 ;;                                              5 COMMON     1     0      1
  1066 ;;                                              0 BANK0      1     1      0
  1067 ;;                             _SPI_RW
  1068 ;; ---------------------------------------------------------------------------------
  1069 ;; (2) ___bmul                                               3     2      1      92
  1070 ;;                                              3 COMMON     3     2      1
  1071 ;; ---------------------------------------------------------------------------------
  1072 ;; (5) _iic_delay_us                                         1     1      0      22
  1073 ;;                                              3 COMMON     1     1      0
  1074 ;; ---------------------------------------------------------------------------------
  1075 ;; (3) _UpdateCRC                                           10     8      2     169
  1076 ;;                                              3 COMMON     2     0      2
  1077 ;;                                              0 BANK0      8     8      0
  1078 ;; ---------------------------------------------------------------------------------
  1079 ;; (4) _SPI_RW                                               2     2      0     136
  1080 ;;                                              3 COMMON     2     2      0
  1081 ;; ---------------------------------------------------------------------------------
  1082 ;; (2) _SPI_init                                             0     0      0       0
  1083 ;; ---------------------------------------------------------------------------------
  1084 ;; (1) _delay_task                                           0     0      0       0
  1085 ;; ---------------------------------------------------------------------------------
  1086 ;; (1) _channel_set                                          2     1      1      88
  1087 ;;                                              3 COMMON     2     1      1
  1088 ;; ---------------------------------------------------------------------------------
  1089 ;; (1) _Enable_Interrupt                                     0     0      0       0
  1090 ;; ---------------------------------------------------------------------------------
  1091 ;; (1) _Timer1_start                                         5     2      3      44
  1092 ;;                                              3 COMMON     3     0      3
  1093 ;;                                              0 BANK0      2     2      0
  1094 ;; ---------------------------------------------------------------------------------
  1095 ;; (1) _Timer1_Init                                          1     1      0      22
  1096 ;;                                              3 COMMON     1     1      0
  1097 ;; ---------------------------------------------------------------------------------
  1098 ;; (1) _key_Init                                             0     0      0       0
  1099 ;; ---------------------------------------------------------------------------------
  1100 ;; (1) _IIC_Init                                             0     0      0       0
  1101 ;; ---------------------------------------------------------------------------------
  1102 ;; (2) _soft_delay_ms                                        6     4      2     138
  1103 ;;                                              3 COMMON     2     0      2
  1104 ;;                                              0 BANK0      4     4      0
  1105 ;; ---------------------------------------------------------------------------------
  1106 ;; (1) _system_set_CPU_frequency                             1     1      0      22
  1107 ;;                                              3 COMMON     1     1      0
  1108 ;; ---------------------------------------------------------------------------------
  1109 ;; Estimated maximum stack depth 5
  1110 ;; ---------------------------------------------------------------------------------
  1111 ;; (Depth) Function   	        Calls       Base Space   Used Autos Params    Refs
  1112 ;; ---------------------------------------------------------------------------------
  1113 ;; (7) _ISR                                                  6     6      0      24
  1114 ;;                                              0 COMMON     3     3      0
  1115 ;;                         _TIMER1_ISR
  1116 ;; ---------------------------------------------------------------------------------
  1117 ;; (8) _TIMER1_ISR                                           0     0      0       0
  1118 ;; ---------------------------------------------------------------------------------
  1119 ;; Estimated maximum stack depth 8
  1120 ;; ---------------------------------------------------------------------------------
  1121 ;; Call Graph Graphs:
  1122 ;; _main (ROOT)
  1123 ;;   _system_set_CPU_frequency
  1124 ;;   _soft_delay_ms
  1125 ;;   _IIC_Init
  1126 ;;   _key_Init
  1127 ;;   _RF_Init
  1128 ;;     _SPI_init
  1129 ;;     _RF_WriteReg
  1130 ;;       _SPI_RW
  1131 ;;     _RF_Write_Buff
  1132 ;;       _SPI_RW
  1133 ;;   _RF_Set_RxMode
  1134 ;;     _RF_WriteReg
  1135 ;;       _SPI_RW
  1136 ;;     _soft_delay_ms
  1137 ;;   _Timer1_Init
  1138 ;;   _Timer1_start
  1139 ;;   ___bmul
  1140 ;;   _AT24C02_Read_Msg
  1141 ;;     _AT24C02_Read_Byte
  1142 ;;       _IIC_START
  1143 ;;         _iic_delay_us
  1144 ;;       _I2C_SendByte
  1145 ;;         _iic_delay_us
  1146 ;;       _IIC_Wait_ACK
  1147 ;;         _iic_delay_us
  1148 ;;       _I2C_ReadByte
  1149 ;;         _iic_delay_us
  1150 ;;         _IIC_NACK
  1151 ;;           _iic_delay_us
  1152 ;;         _IIC_ACK
  1153 ;;           _iic_delay_us
  1154 ;;       _IIC_STOP
  1155 ;;         _iic_delay_us
  1156 ;;     _soft_delay_ms
  1157 ;;     ___bmul (ARG)
  1158 ;;   _Enable_Interrupt
  1159 ;;   _channel_set
  1160 ;;   _recive_task
  1161 ;;     _AT24C02_Write_Byte
  1162 ;;       _IIC_START
  1163 ;;         _iic_delay_us
  1164 ;;       _I2C_SendByte
  1165 ;;         _iic_delay_us
  1166 ;;       _IIC_Wait_ACK
  1167 ;;         _iic_delay_us
  1168 ;;       _IIC_STOP
  1169 ;;         _iic_delay_us
  1170 ;;     _soft_delay_ms
  1171 ;;     ___bmul
  1172 ;;     _AT24C02_Read_Msg
  1173 ;;       _AT24C02_Read_Byte
  1174 ;;         _IIC_START
  1175 ;;           _iic_delay_us
  1176 ;;         _I2C_SendByte
  1177 ;;           _iic_delay_us
  1178 ;;         _IIC_Wait_ACK
  1179 ;;           _iic_delay_us
  1180 ;;         _I2C_ReadByte
  1181 ;;           _iic_delay_us
  1182 ;;           _IIC_NACK
  1183 ;;             _iic_delay_us
  1184 ;;           _IIC_ACK
  1185 ;;             _iic_delay_us
  1186 ;;         _IIC_STOP
  1187 ;;           _iic_delay_us
  1188 ;;       _soft_delay_ms
  1189 ;;       ___bmul (ARG)
  1190 ;;     _rx_data
  1191 ;;       _RF_RxData
  1192 ;;         _RF_GetStatus
  1193 ;;           _RF_ReadReg
  1194 ;;             _SPI_RW
  1195 ;;         _RF_Read_Buff
  1196 ;;           _SPI_RW
  1197 ;;         _RF_ClearFIFO
  1198 ;;           _RF_WriteReg
  1199 ;;             _SPI_RW
  1200 ;;         _RF_ClearStatus
  1201 ;;           _RF_WriteReg
  1202 ;;             _SPI_RW
  1203 ;;       _UpdateCRC
  1204 ;;     _AT24C02_Write_Msg
  1205 ;;       _AT24C02_Write_Byte
  1206 ;;         _IIC_START
  1207 ;;           _iic_delay_us
  1208 ;;         _I2C_SendByte
  1209 ;;           _iic_delay_us
  1210 ;;         _IIC_Wait_ACK
  1211 ;;           _iic_delay_us
  1212 ;;         _IIC_STOP
  1213 ;;           _iic_delay_us
  1214 ;;       _soft_delay_ms
  1215 ;;       ___bmul (ARG)
  1216 ;;     _RF_ClearFIFO
  1217 ;;       _RF_WriteReg
  1218 ;;         _SPI_RW
  1219 ;;     _RF_ClearStatus
  1220 ;;       _RF_WriteReg
  1221 ;;         _SPI_RW
  1222 ;;   _key_value_read
  1223 ;;     _key_scan
  1224 ;;       _soft_delay_ms
  1225 ;;     _soft_delay_ms
  1226 ;;   _delay_task
  1227 ;;
  1228 ;; _ISR (ROOT)
  1229 ;;   _TIMER1_ISR
  1230 ;;
  1231 ;; Address spaces:
  1232 ;;Name               Size   Autos  Total    Cost      Usage
  1233 ;;BANK3               58      0       0       9        0.0%
  1234 ;;BITBANK3            58      0       0       8        0.0%
  1235 ;;SFR3                 0      0       0       4        0.0%
  1236 ;;BITSFR3              0      0       0       4        0.0%
  1237 ;;BANK2               50      0       0      11        0.0%
  1238 ;;BITBANK2            50      0       0      10        0.0%
  1239 ;;SFR2                 0      0       0       5        0.0%
  1240 ;;BITSFR2              0      0       0       5        0.0%
  1241 ;;SFR1                 0      0       0       2        0.0%
  1242 ;;BITSFR1              0      0       0       2        0.0%
  1243 ;;BANK1               50      0      50       7      100.0%
  1244 ;;BITBANK1            50      0       0       6        0.0%
  1245 ;;CODE                 0      0       0       0        0.0%
  1246 ;;DATA                 0      0      B5      12        0.0%
  1247 ;;ABS                  0      0      AB       3        0.0%
  1248 ;;NULL                 0      0       0       0        0.0%
  1249 ;;STACK                0      0       A       2        0.0%
  1250 ;;BANK0               50     1E      50       5      100.0%
  1251 ;;BITBANK0            50      0       0       4        0.0%
  1252 ;;SFR0                 0      0       0       1        0.0%
  1253 ;;BITSFR0              0      0       0       1        0.0%
  1254 ;;COMMON               E      6       B       1       78.6%
  1255 ;;BITCOMMON            E      0       0       0        0.0%
  1256 ;;EEDATA              40      0       0       0        0.0%
  1257                           
  1258                           
  1259 ;; *************** function _main *****************
  1260 ;; Defined at:
  1261 ;;		line 53 in file "C:\Users\Andrew\Desktop\EleMatch\PAV03\FWSWES-PAV03-SWITCHES-PAN2416AV\src\main.c"
  1262 ;; Parameters:    Size  Location     Type
  1263 ;;		None
  1264 ;; Auto vars:     Size  Location     Type
  1265 ;;  i               1   29[BANK0 ] unsigned char 
  1266 ;; Return value:  Size  Location     Type
  1267 ;;		None               void
  1268 ;; Registers used:
  1269 ;;		wreg, fsr0l, fsr0h, status,2, status,0, btemp+1, pclath, cstack
  1270 ;; Tracked objects:
  1271 ;;		On entry : 17F/0
  1272 ;;		On exit  : 60/0
  1273 ;;		Unchanged: FFE00/0
  1274 ;; Data sizes:     COMMON   BANK0   BANK1   BANK3   BANK2
  1275 ;;      Params:         0       0       0       0       0
  1276 ;;      Locals:         0       1       0       0       0
  1277 ;;      Temps:          0       0       0       0       0
  1278 ;;      Totals:         0       1       0       0       0
  1279 ;;Total ram usage:        1 bytes
  1280 ;; Hardware stack levels required when called:    8
  1281 ;; This function calls:
  1282 ;;		_system_set_CPU_frequency
  1283 ;;		_soft_delay_ms
  1284 ;;		_IIC_Init
  1285 ;;		_key_Init
  1286 ;;		_RF_Init
  1287 ;;		_RF_Set_RxMode
  1288 ;;		_Timer1_Init
  1289 ;;		_Timer1_start
  1290 ;;		___bmul
  1291 ;;		_AT24C02_Read_Msg
  1292 ;;		_Enable_Interrupt
  1293 ;;		_channel_set
  1294 ;;		_recive_task
  1295 ;;		_key_value_read
  1296 ;;		_delay_task
  1297 ;; This function is called by:
  1298 ;;		Startup code after reset
  1299 ;; This function uses a non-reentrant model
  1300 ;;
  1301  066C                     _main:	
  1302                           
  1303                           ;main.c: 54: unsigned char i;
  1304                           ;main.c: 55: system_set_CPU_frequency(CPU_FREQUENCY_8M);
  1305                           
  1306                           ; Regs used in _main: [wreg-fsr0h+status,2+status,0+btemp+1+pclath+cstack]
  1307  066C  3071               	movlw	113
  1308  066D  158A  259D  118A   	fcall	_system_set_CPU_frequency
  1309                           
  1310                           ;main.c: 56: soft_delay_ms(500);
  1311  0670  30F4               	movlw	244
  1312  0671  00F3               	movwf	?_soft_delay_ms
  1313  0672  3001               	movlw	1
  1314  0673  00F4               	movwf	?_soft_delay_ms+1
  1315  0674  118A  255C  118A   	fcall	_soft_delay_ms
  1316  0677  0000               	nop	;#
  1317                           
  1318                           ;main.c: 60: TRISC = 0x00;
  1319  0678  1683               	bsf	3,5	;RP0=1, select bank1
  1320  0679  1303               	bcf	3,6	;RP1=0, select bank1
  1321  067A  0187               	clrf	7	;volatile
  1322                           
  1323                           ;main.c: 61: TRISB |= 0x70;
  1324  067B  3070               	movlw	112
  1325  067C  0486               	iorwf	6,f	;volatile
  1326                           
  1327                           ;main.c: 63: RC0 = 1;
  1328  067D  1283               	bcf	3,5	;RP0=0, select bank0
  1329  067E  1407               	bsf	7,0
  1330                           
  1331                           ;main.c: 65: IIC_Init();
  1332  067F  158A  25A2  118A   	fcall	_IIC_Init
  1333                           
  1334                           ;main.c: 66: key_Init();
  1335  0682  158A  25A8  118A   	fcall	_key_Init
  1336                           
  1337                           ;main.c: 67: RF_Init();
  1338  0685  158A  2737  118A   	fcall	_RF_Init
  1339                           
  1340                           ;main.c: 68: RF_Set_RxMode();
  1341  0688  158A  263A  118A   	fcall	_RF_Set_RxMode
  1342                           
  1343                           ;main.c: 70: Timer1_Init(TIMER1_DIV_8);
  1344  068B  3030               	movlw	48
  1345  068C  118A  26F8  118A   	fcall	_Timer1_Init
  1346                           
  1347                           ;main.c: 71: Timer1_start(10000, 0);
  1348  068F  3010               	movlw	16
  1349  0690  00F3               	movwf	?_Timer1_start
  1350  0691  3027               	movlw	39
  1351  0692  00F4               	movwf	?_Timer1_start+1
  1352  0693  01F5               	clrf	?_Timer1_start+2
  1353  0694  158A  25AE  118A   	fcall	_Timer1_start
  1354                           
  1355                           ;main.c: 74: for(i=0; i<12; i++)
  1356  0697  01ED               	clrf	main@i
  1357  0698                     l16848:	
  1358  0698  300C               	movlw	12
  1359  0699  026D               	subwf	main@i,w
  1360  069A  1803               	btfsc	3,0
  1361  069B  2EB0               	goto	l16858
  1362                           
  1363                           ;main.c: 75: {
  1364                           ;main.c: 76: AT24C02_Read_Msg(i*6, control_id[i], 6);
  1365  069C  3006               	movlw	6
  1366  069D  00F3               	movwf	?___bmul
  1367  069E  086D               	movf	main@i,w
  1368  069F  118A  2631  118A   	fcall	___bmul
  1369  06A2  3EA8               	addlw	_control_id& (0+255)
  1370  06A3  00D6               	movwf	?_AT24C02_Read_Msg
  1371  06A4  3006               	movlw	6
  1372  06A5  00D7               	movwf	?_AT24C02_Read_Msg+1
  1373  06A6  00F3               	movwf	?___bmul
  1374  06A7  086D               	movf	main@i,w
  1375  06A8  118A  2631  118A   	fcall	___bmul
  1376  06AB  118A  263F  118A   	fcall	_AT24C02_Read_Msg
  1377  06AE  0AED               	incf	main@i,f
  1378  06AF  2E98               	goto	l16848
  1379  06B0                     l16858:	
  1380                           
  1381                           ;main.c: 77: }
  1382                           ;main.c: 79: AT24C02_Read_Msg(100, channel_flag, 3);
  1383  06B0  304D               	movlw	_channel_flag& (0+255)
  1384  06B1  00D6               	movwf	?_AT24C02_Read_Msg
  1385  06B2  3003               	movlw	3
  1386  06B3  00D7               	movwf	?_AT24C02_Read_Msg+1
  1387  06B4  3064               	movlw	100
  1388  06B5  118A  263F  118A   	fcall	_AT24C02_Read_Msg
  1389                           
  1390                           ;main.c: 81: for( i=0; i<12; i++ )
  1391  06B8  01ED               	clrf	main@i
  1392  06B9                     l16862:	
  1393  06B9  300C               	movlw	12
  1394  06BA  026D               	subwf	main@i,w
  1395  06BB  1803               	btfsc	3,0
  1396  06BC  2ECB               	goto	l16874
  1397                           
  1398                           ;main.c: 82: {
  1399                           ;main.c: 83: if(channel_flag[i] >= 4)
  1400  06BD  086D               	movf	main@i,w
  1401  06BE  3E4D               	addlw	_channel_flag& (0+255)
  1402  06BF  0084               	movwf	4
  1403  06C0  3004               	movlw	4
  1404  06C1  1383               	bcf	3,7	;select IRP bank0
  1405  06C2  0200               	subwf	0,w
  1406  06C3  1C03               	skipc
  1407  06C4  2EC9               	goto	l16870
  1408                           
  1409                           ;main.c: 84: {
  1410                           ;main.c: 85: channel_flag[i] = 0;
  1411  06C5  086D               	movf	main@i,w
  1412  06C6  3E4D               	addlw	_channel_flag& (0+255)
  1413  06C7  0084               	movwf	4
  1414  06C8  0180               	clrf	0
  1415  06C9                     l16870:	
  1416  06C9  0AED               	incf	main@i,f
  1417  06CA  2EB9               	goto	l16862
  1418  06CB                     l16874:	
  1419                           
  1420                           ;main.c: 86: }
  1421                           ;main.c: 87: }
  1422                           ;main.c: 89: Enable_Interrupt();
  1423  06CB  118A  27FC  118A   	fcall	_Enable_Interrupt
  1424                           
  1425                           ;main.c: 91: (TRISC0=0,RC0=0);
  1426  06CE  1683               	bsf	3,5	;RP0=1, select bank1
  1427  06CF  1007               	bcf	7,0
  1428  06D0  1283               	bcf	3,5	;RP0=0, select bank0
  1429  06D1  3064               	movlw	100
  1430  06D2  1007               	bcf	7,0
  1431                           
  1432                           ;main.c: 92: soft_delay_ms(100);
  1433  06D3  00F3               	movwf	?_soft_delay_ms
  1434  06D4  01F4               	clrf	?_soft_delay_ms+1
  1435  06D5  118A  255C  118A   	fcall	_soft_delay_ms
  1436                           
  1437                           ;main.c: 93: (TRISC0=0,RC0=1);
  1438  06D8  1683               	bsf	3,5	;RP0=1, select bank1
  1439  06D9  1007               	bcf	7,0
  1440  06DA  1283               	bcf	3,5	;RP0=0, select bank0
  1441  06DB  1407               	bsf	7,0
  1442  06DC                     l16886:	
  1443                           
  1444                           ;main.c: 96: {
  1445                           ;main.c: 97: channel_set(0, KEY0.channel_status);
  1446  06DC  0820               	movf	_KEY0,w
  1447  06DD  00F3               	movwf	?_channel_set
  1448  06DE  3000               	movlw	0
  1449  06DF  158A  2605  118A   	fcall	_channel_set
  1450                           
  1451                           ;main.c: 98: channel_set(1, KEY1.channel_status);
  1452  06E2  0823               	movf	_KEY1,w
  1453  06E3  00F3               	movwf	?_channel_set
  1454  06E4  3001               	movlw	1
  1455  06E5  158A  2605  118A   	fcall	_channel_set
  1456                           
  1457                           ;main.c: 99: channel_set(2, KEY2.channel_status);
  1458  06E8  0826               	movf	_KEY2,w
  1459  06E9  00F3               	movwf	?_channel_set
  1460  06EA  3002               	movlw	2
  1461  06EB  158A  2605  118A   	fcall	_channel_set
  1462                           
  1463                           ;main.c: 101: recive_task();
  1464  06EE  118A  200D  118A   	fcall	_recive_task
  1465                           
  1466                           ;main.c: 103: key_value_read();
  1467  06F1  118A  2456  118A   	fcall	_key_value_read
  1468                           
  1469                           ;main.c: 105: delay_task();
  1470  06F4  118A  277F  118A   	fcall	_delay_task
  1471  06F7  2EDC               	goto	l16886
  1472  06F8                     __end_of_main:	
  1473                           
  1474                           	psect	text1100
  1475  000D                     __ptext1100:	
  1476 ;; =============== function _main ends ============
  1477                           
  1478                           
  1479 ;; *************** function _recive_task *****************
  1480 ;; Defined at:
  1481 ;;		line 112 in file "C:\Users\Andrew\Desktop\EleMatch\PAV03\FWSWES-PAV03-SWITCHES-PAN2416AV\src\recive.c"
  1482 ;; Parameters:    Size  Location     Type
  1483 ;;		None
  1484 ;; Auto vars:     Size  Location     Type
  1485 ;;  msg             6   22[BANK0 ] unsigned char [6]
  1486 ;;  i               1   28[BANK0 ] unsigned char 
  1487 ;;  match_flag      1   21[BANK0 ] unsigned char 
  1488 ;;  flag_led        1   20[BANK0 ] unsigned char 
  1489 ;; Return value:  Size  Location     Type
  1490 ;;		None               void
  1491 ;; Registers used:
  1492 ;;		wreg, fsr0l, fsr0h, status,2, status,0, btemp+1, pclath, cstack
  1493 ;; Tracked objects:
  1494 ;;		On entry : 60/0
  1495 ;;		On exit  : 60/0
  1496 ;;		Unchanged: FFE9F/0
  1497 ;; Data sizes:     COMMON   BANK0   BANK1   BANK3   BANK2
  1498 ;;      Params:         0       0       0       0       0
  1499 ;;      Locals:         0       9       0       0       0
  1500 ;;      Temps:          0       4       0       0       0
  1501 ;;      Totals:         0      13       0       0       0
  1502 ;;Total ram usage:       13 bytes
  1503 ;; Hardware stack levels used:    1
  1504 ;; Hardware stack levels required when called:    7
  1505 ;; This function calls:
  1506 ;;		_AT24C02_Write_Byte
  1507 ;;		_soft_delay_ms
  1508 ;;		___bmul
  1509 ;;		_AT24C02_Read_Msg
  1510 ;;		_rx_data
  1511 ;;		_AT24C02_Write_Msg
  1512 ;;		_RF_ClearFIFO
  1513 ;;		_RF_ClearStatus
  1514 ;; This function is called by:
  1515 ;;		_main
  1516 ;; This function uses a non-reentrant model
  1517 ;;
  1518  000D                     _recive_task:	
  1519                           
  1520                           ;recive.c: 113: unsigned char i;
  1521                           ;recive.c: 114: unsigned char match_flag = 0;
  1522                           
  1523                           ; Regs used in _recive_task: [wreg-fsr0h+status,2+status,0+btemp+1+pclath+cstack]
  1524  000D  01E5               	clrf	recive_task@match_flag
  1525                           
  1526                           ;recive.c: 115: unsigned char flag_led = 0;
  1527  000E  01E4               	clrf	recive_task@flag_led
  1528                           
  1529                           ;recive.c: 116: unsigned char msg[6];
  1530                           ;recive.c: 118: switch(sys_stute)
  1531  000F  086F               	movf	_sys_stute,w
  1532                           
  1533                           ; Switch size 1, requested type "space"
  1534                           ; Number of cases is 3, Range of values is 1 to 3
  1535                           ; switch strategies available:
  1536                           ; Name         Instructions Cycles
  1537                           ; simple_byte           10     6 (average)
  1538                           ; direct_byte           16    10 (fixed)
  1539                           ; jumptable            263     9 (fixed)
  1540                           ;	Chosen strategy is simple_byte
  1541  0010  3A01               	xorlw	1	; case 1
  1542  0011  1903               	skipnz
  1543  0012  2A6A               	goto	l16656
  1544  0013  3A03               	xorlw	3	; case 2
  1545  0014  1903               	skipnz
  1546  0015  289C               	goto	l9843
  1547  0016  3A01               	xorlw	1	; case 3
  1548  0017  1903               	skipnz
  1549  0018  281A               	goto	l9828
  1550  0019  2BCF               	goto	l9939
  1551  001A                     l9828:	
  1552                           ;recive.c: 119: {
  1553                           ;recive.c: 120: case 3:
  1554                           
  1555                           
  1556                           ;recive.c: 121: {
  1557                           ;recive.c: 122: (TRISC0=0,RC0=1);
  1558  001A  1683               	bsf	3,5	;RP0=1, select bank1
  1559  001B  1007               	bcf	7,0
  1560  001C  1283               	bcf	3,5	;RP0=0, select bank0
  1561  001D  1407               	bsf	7,0
  1562                           
  1563                           ;recive.c: 123: if(key_long_flag == 0x11)
  1564  001E  0879               	movf	_key_long_flag,w
  1565  001F  3A11               	xorlw	17
  1566  0020  1D03               	skipz
  1567  0021  2835               	goto	l16396
  1568                           
  1569                           ;recive.c: 124: {
  1570                           ;recive.c: 125: key_long_flag = 0;
  1571  0022  01F9               	clrf	_key_long_flag
  1572                           
  1573                           ;recive.c: 126: KEY0.key_flag_5s = 0;
  1574  0023  01A2               	clrf	_KEY0+2
  1575                           
  1576                           ;recive.c: 127: for(i = 0;i < 24; i++)
  1577  0024  01EC               	clrf	recive_task@i
  1578  0025                     l16386:	
  1579  0025  3018               	movlw	24
  1580  0026  026C               	subwf	recive_task@i,w
  1581  0027  1803               	btfsc	3,0
  1582  0028  2865               	goto	l16424
  1583                           
  1584                           ;recive.c: 128: {
  1585                           ;recive.c: 129: AT24C02_Write_Byte(i, 0xff);
  1586  0029  30FF               	movlw	255
  1587  002A  00D0               	movwf	?_AT24C02_Write_Byte
  1588  002B  086C               	movf	recive_task@i,w
  1589  002C  25B7  118A         	fcall	_AT24C02_Write_Byte
  1590                           
  1591                           ;recive.c: 130: soft_delay_ms(1);
  1592  002E  01F3               	clrf	?_soft_delay_ms
  1593  002F  0AF3               	incf	?_soft_delay_ms,f
  1594  0030  01F4               	clrf	?_soft_delay_ms+1
  1595  0031  255C  118A         	fcall	_soft_delay_ms
  1596  0033  0AEC               	incf	recive_task@i,f
  1597  0034  2825               	goto	l16386
  1598  0035                     l16396:	
  1599                           
  1600                           ;recive.c: 133: else if(key_long_flag == 0x21)
  1601  0035  0879               	movf	_key_long_flag,w
  1602  0036  3A21               	xorlw	33
  1603  0037  1D03               	skipz
  1604  0038  284D               	goto	l16410
  1605                           
  1606                           ;recive.c: 134: {
  1607                           ;recive.c: 135: key_long_flag = 0;
  1608  0039  01F9               	clrf	_key_long_flag
  1609                           
  1610                           ;recive.c: 136: KEY1.key_flag_5s = 0;
  1611  003A  01A5               	clrf	_KEY1+2
  1612                           
  1613                           ;recive.c: 137: for(i = 0; i < 24; i++)
  1614  003B  01EC               	clrf	recive_task@i
  1615  003C                     l16400:	
  1616  003C  3018               	movlw	24
  1617  003D  026C               	subwf	recive_task@i,w
  1618  003E  1803               	btfsc	3,0
  1619  003F  2865               	goto	l16424
  1620                           
  1621                           ;recive.c: 138: {
  1622                           ;recive.c: 139: AT24C02_Write_Byte(i + 24, 0xff);
  1623  0040  30FF               	movlw	255
  1624  0041  00D0               	movwf	?_AT24C02_Write_Byte
  1625  0042  086C               	movf	recive_task@i,w
  1626  0043  3E18               	addlw	24
  1627  0044  25B7  118A         	fcall	_AT24C02_Write_Byte
  1628                           
  1629                           ;recive.c: 140: soft_delay_ms(1);
  1630  0046  01F3               	clrf	?_soft_delay_ms
  1631  0047  0AF3               	incf	?_soft_delay_ms,f
  1632  0048  01F4               	clrf	?_soft_delay_ms+1
  1633  0049  255C  118A         	fcall	_soft_delay_ms
  1634  004B  0AEC               	incf	recive_task@i,f
  1635  004C  283C               	goto	l16400
  1636  004D                     l16410:	
  1637                           
  1638                           ;recive.c: 143: else if(key_long_flag == 0x41)
  1639  004D  0879               	movf	_key_long_flag,w
  1640  004E  3A41               	xorlw	65
  1641  004F  1D03               	skipz
  1642  0050  2865               	goto	l16424
  1643                           
  1644                           ;recive.c: 144: {
  1645                           ;recive.c: 145: key_long_flag = 0;
  1646  0051  01F9               	clrf	_key_long_flag
  1647                           
  1648                           ;recive.c: 146: KEY2.key_flag_5s = 0;
  1649  0052  01A8               	clrf	_KEY2+2
  1650                           
  1651                           ;recive.c: 147: for(i = 0; i < 24; i++)
  1652  0053  01EC               	clrf	recive_task@i
  1653  0054                     l16414:	
  1654  0054  3018               	movlw	24
  1655  0055  026C               	subwf	recive_task@i,w
  1656  0056  1803               	btfsc	3,0
  1657  0057  2865               	goto	l16424
  1658                           
  1659                           ;recive.c: 148: {
  1660                           ;recive.c: 149: AT24C02_Write_Byte(i + 48, 0xff);
  1661  0058  30FF               	movlw	255
  1662  0059  00D0               	movwf	?_AT24C02_Write_Byte
  1663  005A  086C               	movf	recive_task@i,w
  1664  005B  3E30               	addlw	48
  1665  005C  25B7  118A         	fcall	_AT24C02_Write_Byte
  1666                           
  1667                           ;recive.c: 150: soft_delay_ms(1);
  1668  005E  01F3               	clrf	?_soft_delay_ms
  1669  005F  0AF3               	incf	?_soft_delay_ms,f
  1670  0060  01F4               	clrf	?_soft_delay_ms+1
  1671  0061  255C  118A         	fcall	_soft_delay_ms
  1672  0063  0AEC               	incf	recive_task@i,f
  1673  0064  2854               	goto	l16414
  1674  0065                     l16424:	
  1675                           
  1676                           ;recive.c: 151: }
  1677                           ;recive.c: 152: }
  1678                           ;recive.c: 153: for(i = 0; i < 12; i++)
  1679  0065  01EC               	clrf	recive_task@i
  1680  0066                     l16426:	
  1681  0066  300C               	movlw	12
  1682  0067  026C               	subwf	recive_task@i,w
  1683  0068  1803               	btfsc	3,0
  1684  0069  287B               	goto	l9841
  1685                           
  1686                           ;recive.c: 154: {
  1687                           ;recive.c: 155: AT24C02_Read_Msg(i * 6, control_id[i], 6);
  1688  006A  3006               	movlw	6
  1689  006B  00F3               	movwf	?___bmul
  1690  006C  086C               	movf	recive_task@i,w
  1691  006D  2631  118A         	fcall	___bmul
  1692  006F  3EA8               	addlw	_control_id& (0+255)
  1693  0070  00D6               	movwf	?_AT24C02_Read_Msg
  1694  0071  3006               	movlw	6
  1695  0072  00D7               	movwf	?_AT24C02_Read_Msg+1
  1696  0073  00F3               	movwf	?___bmul
  1697  0074  086C               	movf	recive_task@i,w
  1698  0075  2631  118A         	fcall	___bmul
  1699  0077  263F  118A         	fcall	_AT24C02_Read_Msg
  1700  0079  0AEC               	incf	recive_task@i,f
  1701  007A  2866               	goto	l16426
  1702  007B                     l9841:	
  1703                           
  1704                           ;recive.c: 156: }
  1705                           ;recive.c: 157: (TRISC0=0,RC0=0);
  1706  007B  1683               	bsf	3,5	;RP0=1, select bank1
  1707  007C  1007               	bcf	7,0
  1708  007D  1283               	bcf	3,5	;RP0=0, select bank0
  1709  007E  3064               	movlw	100
  1710  007F  1007               	bcf	7,0
  1711                           
  1712                           ;recive.c: 158: soft_delay_ms(100);
  1713  0080  00F3               	movwf	?_soft_delay_ms
  1714  0081  01F4               	clrf	?_soft_delay_ms+1
  1715  0082  255C  118A         	fcall	_soft_delay_ms
  1716                           
  1717                           ;recive.c: 159: (TRISC0=0,RC0=1);
  1718  0084  1683               	bsf	3,5	;RP0=1, select bank1
  1719  0085  1007               	bcf	7,0
  1720  0086  1283               	bcf	3,5	;RP0=0, select bank0
  1721  0087  3064               	movlw	100
  1722  0088  1407               	bsf	7,0
  1723                           
  1724                           ;recive.c: 160: soft_delay_ms(100);
  1725  0089  00F3               	movwf	?_soft_delay_ms
  1726  008A  01F4               	clrf	?_soft_delay_ms+1
  1727  008B  255C  118A         	fcall	_soft_delay_ms
  1728                           
  1729                           ;recive.c: 161: (TRISC0=0,RC0=0);
  1730  008D  1683               	bsf	3,5	;RP0=1, select bank1
  1731  008E  1007               	bcf	7,0
  1732  008F  1283               	bcf	3,5	;RP0=0, select bank0
  1733  0090  3064               	movlw	100
  1734  0091  1007               	bcf	7,0
  1735                           
  1736                           ;recive.c: 162: soft_delay_ms(100);
  1737  0092  00F3               	movwf	?_soft_delay_ms
  1738  0093  01F4               	clrf	?_soft_delay_ms+1
  1739  0094  255C               	fcall	_soft_delay_ms
  1740                           
  1741                           ;recive.c: 163: (TRISC0=0,RC0=1);
  1742  0095  1683               	bsf	3,5	;RP0=1, select bank1
  1743  0096  1007               	bcf	7,0
  1744  0097  1283               	bcf	3,5	;RP0=0, select bank0
  1745  0098  1407               	bsf	7,0
  1746                           
  1747                           ;recive.c: 164: sys_stute=1;
  1748  0099  01EF               	clrf	_sys_stute
  1749  009A  0AEF               	incf	_sys_stute,f
  1750                           
  1751                           ;recive.c: 165: }break;
  1752  009B  0008               	return
  1753  009C                     l9843:	
  1754                           ;recive.c: 167: case 2:
  1755                           
  1756                           
  1757                           ;recive.c: 168: {
  1758                           ;recive.c: 169: match_channel_flag |= 0x01;
  1759  009C  146E               	bsf	_match_channel_flag,0
  1760                           
  1761                           ;recive.c: 170: if(key_long_flag == 0x11)
  1762  009D  0879               	movf	_key_long_flag,w
  1763  009E  3A11               	xorlw	17
  1764  009F  1D03               	skipz
  1765  00A0  28A4               	goto	l16458
  1766  00A1  3010               	movlw	16
  1767                           
  1768                           ;recive.c: 171: {
  1769                           ;recive.c: 172: KEY0.key_flag_3s = 0;
  1770  00A2  01A1               	clrf	_KEY0+1
  1771  00A3  28B1               	goto	L2
  1772  00A4                     l16458:	
  1773                           ;recive.c: 176: }
  1774                           
  1775                           ;recive.c: 175: match_channel_flag = 0x10;
  1776                           
  1777                           ;recive.c: 174: key_long_flag = 0;
  1778                           
  1779                           ;recive.c: 173: flag_5s_add = 0;
  1780                           
  1781                           
  1782                           ;recive.c: 177: else if(key_long_flag == 0x21)
  1783  00A4  0879               	movf	_key_long_flag,w
  1784  00A5  3A21               	xorlw	33
  1785  00A6  1D03               	skipz
  1786  00A7  28AB               	goto	l16464
  1787  00A8  3020               	movlw	32
  1788                           
  1789                           ;recive.c: 178: {
  1790                           ;recive.c: 179: KEY1.key_flag_3s = 0;
  1791  00A9  01A4               	clrf	_KEY1+1
  1792  00AA  28B1               	goto	L2
  1793  00AB                     l16464:	
  1794                           ;recive.c: 183: }
  1795                           
  1796                           ;recive.c: 182: match_channel_flag = 0x20;
  1797                           
  1798                           ;recive.c: 181: key_long_flag = 0;
  1799                           
  1800                           ;recive.c: 180: flag_5s_add = 0;
  1801                           
  1802                           
  1803                           ;recive.c: 184: else if(key_long_flag == 0x41)
  1804  00AB  0879               	movf	_key_long_flag,w
  1805  00AC  3A41               	xorlw	65
  1806  00AD  1D03               	skipz
  1807  00AE  28B5               	goto	l16470
  1808  00AF  3040               	movlw	64
  1809                           
  1810                           ;recive.c: 185: {
  1811                           ;recive.c: 186: KEY2.key_flag_3s = 0;
  1812  00B0  01A7               	clrf	_KEY2+1
  1813  00B1                     L2:	
  1814                           
  1815                           ;recive.c: 187: flag_5s_add = 0;
  1816  00B1  01B0               	clrf	_flag_5s_add
  1817  00B2  01B1               	clrf	_flag_5s_add+1
  1818                           
  1819                           ;recive.c: 188: key_long_flag = 0;
  1820  00B3  01F9               	clrf	_key_long_flag
  1821                           
  1822                           ;recive.c: 189: match_channel_flag = 0x40;
  1823  00B4  00EE               	movwf	_match_channel_flag
  1824  00B5                     l16470:	
  1825                           
  1826                           ;recive.c: 190: }
  1827                           ;recive.c: 199: if(rx_data())
  1828  00B5  158A  264A  118A   	fcall	_rx_data
  1829  00B8  3A00               	xorlw	0
  1830  00B9  1903               	skipnz
  1831  00BA  2A60               	goto	l16650
  1832                           
  1833                           ;recive.c: 200: {
  1834                           ;recive.c: 201: msg[0] = rf_buf[3];
  1835  00BB  083E               	movf	_rf_buf+3,w
  1836  00BC  00E6               	movwf	recive_task@msg
  1837                           
  1838                           ;recive.c: 202: msg[1] = rf_buf[4];
  1839  00BD  083F               	movf	_rf_buf+4,w
  1840  00BE  00E7               	movwf	recive_task@msg+1
  1841                           
  1842                           ;recive.c: 203: msg[2] = rf_buf[5];
  1843  00BF  0840               	movf	_rf_buf+5,w
  1844  00C0  00E8               	movwf	recive_task@msg+2
  1845                           
  1846                           ;recive.c: 204: msg[3] = rf_buf[6];
  1847  00C1  0841               	movf	_rf_buf+6,w
  1848  00C2  00E9               	movwf	recive_task@msg+3
  1849                           
  1850                           ;recive.c: 205: msg[4] = rf_buf[10];
  1851  00C3  0845               	movf	_rf_buf+10,w
  1852  00C4  00EA               	movwf	recive_task@msg+4
  1853                           
  1854                           ;recive.c: 206: msg[5] = rf_buf[2];
  1855  00C5  083D               	movf	_rf_buf+2,w
  1856  00C6  00EB               	movwf	recive_task@msg+5
  1857                           
  1858                           ;recive.c: 207: if(msg[4] != 0xff)
  1859  00C7  086A               	movf	recive_task@msg+4,w
  1860  00C8  3AFF               	xorlw	255
  1861  00C9  1903               	skipnz
  1862  00CA  0008               	return
  1863                           
  1864                           ;recive.c: 208: {
  1865                           ;recive.c: 209: if(match_channel_flag & 0x10)
  1866  00CB  1E6E               	btfss	_match_channel_flag,4
  1867  00CC  293E               	goto	l9851
  1868                           
  1869                           ;recive.c: 210: {
  1870                           ;recive.c: 211: for(i = 0; i < 4; i++)
  1871  00CD  01EC               	clrf	recive_task@i
  1872                           
  1873                           ;recive.c: 221: break;
  1874  00CE  28D1               	goto	l16478
  1875  00CF                     l16496:	
  1876                           
  1877                           ;recive.c: 223: else
  1878                           ;recive.c: 224: {
  1879                           ;recive.c: 225: match_flag = 0;
  1880  00CF  01E5               	clrf	recive_task@match_flag
  1881  00D0  0AEC               	incf	recive_task@i,f
  1882  00D1                     l16478:	
  1883  00D1  3004               	movlw	4
  1884  00D2  026C               	subwf	recive_task@i,w
  1885  00D3  1803               	btfsc	3,0
  1886  00D4  290F               	goto	l16502
  1887                           
  1888                           ;recive.c: 212: {
  1889                           ;recive.c: 213: if((msg[0] == control_id[i][0])
  1890                           ;recive.c: 214: &&(msg[1] == control_id[i][1])
  1891                           ;recive.c: 215: &&(msg[2] == control_id[i][2])
  1892                           ;recive.c: 216: &&(msg[3] == control_id[i][3])
  1893                           ;recive.c: 217: &&(msg[4] == control_id[i][4])
  1894                           ;recive.c: 218: )
  1895  00D5  3006               	movlw	6
  1896  00D6  00F3               	movwf	?___bmul
  1897  00D7  086C               	movf	recive_task@i,w
  1898  00D8  2631  118A         	fcall	___bmul
  1899  00DA  3EA8               	addlw	_control_id& (0+255)
  1900  00DB  0084               	movwf	4
  1901  00DC  1383               	bcf	3,7	;select IRP bank1
  1902  00DD  0800               	movf	0,w
  1903  00DE  0666               	xorwf	recive_task@msg,w
  1904  00DF  1D03               	skipz
  1905  00E0  28CF               	goto	l16496
  1906  00E1  3006               	movlw	6
  1907  00E2  00F3               	movwf	?___bmul
  1908  00E3  086C               	movf	recive_task@i,w
  1909  00E4  2631  118A         	fcall	___bmul
  1910  00E6  3EA9               	addlw	(_control_id+1)& (0+255)
  1911  00E7  0084               	movwf	4
  1912  00E8  0867               	movf	recive_task@msg+1,w
  1913  00E9  0600               	xorwf	0,w
  1914  00EA  1D03               	skipz
  1915  00EB  28CF               	goto	l16496
  1916  00EC  3006               	movlw	6
  1917  00ED  00F3               	movwf	?___bmul
  1918  00EE  086C               	movf	recive_task@i,w
  1919  00EF  2631  118A         	fcall	___bmul
  1920  00F1  3EAA               	addlw	(_control_id+2)& (0+255)
  1921  00F2  0084               	movwf	4
  1922  00F3  0868               	movf	recive_task@msg+2,w
  1923  00F4  0600               	xorwf	0,w
  1924  00F5  1D03               	skipz
  1925  00F6  28CF               	goto	l16496
  1926  00F7  3006               	movlw	6
  1927  00F8  00F3               	movwf	?___bmul
  1928  00F9  086C               	movf	recive_task@i,w
  1929  00FA  2631  118A         	fcall	___bmul
  1930  00FC  3EAB               	addlw	(_control_id+3)& (0+255)
  1931  00FD  0084               	movwf	4
  1932  00FE  0869               	movf	recive_task@msg+3,w
  1933  00FF  0600               	xorwf	0,w
  1934  0100  1D03               	skipz
  1935  0101  28CF               	goto	l16496
  1936  0102  3006               	movlw	6
  1937  0103  00F3               	movwf	?___bmul
  1938  0104  086C               	movf	recive_task@i,w
  1939  0105  2631  118A         	fcall	___bmul
  1940  0107  3EAC               	addlw	(_control_id+4)& (0+255)
  1941  0108  0084               	movwf	4
  1942  0109  086A               	movf	recive_task@msg+4,w
  1943  010A  0600               	xorwf	0,w
  1944  010B  1D03               	skipz
  1945  010C  28CF               	goto	l16496
  1946                           
  1947                           ;recive.c: 219: {
  1948                           ;recive.c: 220: match_flag = 1;
  1949  010D  01E5               	clrf	recive_task@match_flag
  1950  010E  0AE5               	incf	recive_task@match_flag,f
  1951  010F                     l16502:	
  1952                           
  1953                           ;recive.c: 226: }
  1954                           ;recive.c: 227: }
  1955                           ;recive.c: 228: if(match_flag == 0)
  1956  010F  08E5               	movf	recive_task@match_flag,f
  1957  0110  1D03               	skipz
  1958  0111  2A24               	goto	l9856
  1959                           
  1960                           ;recive.c: 229: {
  1961                           ;recive.c: 230: AT24C02_Write_Msg(0 + channel_flag[0] * 6, msg, 6);
  1962  0112  3066               	movlw	recive_task@msg& (0+255)
  1963  0113  00D4               	movwf	?_AT24C02_Write_Msg
  1964  0114  3006               	movlw	6
  1965  0115  00D5               	movwf	?_AT24C02_Write_Msg+1
  1966  0116  00F3               	movwf	?___bmul
  1967  0117  084D               	movf	_channel_flag,w
  1968  0118  2631  118A         	fcall	___bmul
  1969  011A  23D0  118A         	fcall	_AT24C02_Write_Msg
  1970                           
  1971                           ;recive.c: 231: for(i = 0; i < 6; i++)
  1972  011C  01EC               	clrf	recive_task@i
  1973  011D                     l16508:	
  1974  011D  3006               	movlw	6
  1975  011E  026C               	subwf	recive_task@i,w
  1976  011F  1803               	btfsc	3,0
  1977  0120  2937               	goto	l16518
  1978                           
  1979                           ;recive.c: 232: {
  1980                           ;recive.c: 233: control_id[channel_flag[0]][i] = msg[i];
  1981  0121  086C               	movf	recive_task@i,w
  1982  0122  3E66               	addlw	recive_task@msg& (0+255)
  1983  0123  0084               	movwf	4
  1984  0124  1383               	bcf	3,7	;select IRP bank0
  1985  0125  0800               	movf	0,w
  1986  0126  00E0               	movwf	??_recive_task
  1987  0127  3006               	movlw	6
  1988  0128  00F3               	movwf	?___bmul
  1989  0129  084D               	movf	_channel_flag,w
  1990  012A  2631  118A         	fcall	___bmul
  1991  012C  00E1               	movwf	??_recive_task+1
  1992  012D  3EA8               	addlw	_control_id& (0+255)
  1993  012E  00E2               	movwf	??_recive_task+2
  1994  012F  086C               	movf	recive_task@i,w
  1995  0130  0762               	addwf	??_recive_task+2,w
  1996  0131  00E3               	movwf	??_recive_task+3
  1997  0132  0084               	movwf	4
  1998  0133  0860               	movf	??_recive_task,w
  1999  0134  0080               	movwf	0
  2000  0135  0AEC               	incf	recive_task@i,f
  2001  0136  291D               	goto	l16508
  2002  0137                     l16518:	
  2003  0137  3004               	movlw	4
  2004                           
  2005                           ;recive.c: 234: }
  2006                           ;recive.c: 235: channel_flag[0]++;
  2007  0138  0ACD               	incf	_channel_flag,f
  2008                           
  2009                           ;recive.c: 236: if(channel_flag[0] >= 4)
  2010  0139  024D               	subwf	_channel_flag,w
  2011  013A  1C03               	skipc
  2012  013B  2A24               	goto	l9856
  2013                           
  2014                           ;recive.c: 237: {
  2015                           ;recive.c: 238: channel_flag[0] = 0;
  2016  013C  01CD               	clrf	_channel_flag
  2017                           
  2018                           ;recive.c: 242: }
  2019  013D  2A24               	goto	l9856
  2020  013E                     l9851:	
  2021                           
  2022                           ;recive.c: 243: else if(match_channel_flag & 0x20)
  2023  013E  1EEE               	btfss	_match_channel_flag,5
  2024  013F  29B2               	goto	l9861
  2025                           
  2026                           ;recive.c: 244: {
  2027                           ;recive.c: 245: for(i = 0; i < 4; i++)
  2028  0140  01EC               	clrf	recive_task@i
  2029                           
  2030                           ;recive.c: 255: break;
  2031  0141  2944               	goto	l16526
  2032  0142                     l16544:	
  2033                           
  2034                           ;recive.c: 257: else
  2035                           ;recive.c: 258: {
  2036                           ;recive.c: 259: match_flag = 0;
  2037  0142  01E5               	clrf	recive_task@match_flag
  2038  0143  0AEC               	incf	recive_task@i,f
  2039  0144                     l16526:	
  2040  0144  3004               	movlw	4
  2041  0145  026C               	subwf	recive_task@i,w
  2042  0146  1803               	btfsc	3,0
  2043  0147  2982               	goto	l16550
  2044                           
  2045                           ;recive.c: 246: {
  2046                           ;recive.c: 247: if((msg[0] == control_id[i+4][0])
  2047                           ;recive.c: 248: &&(msg[1] == control_id[i+4][1])
  2048                           ;recive.c: 249: &&(msg[2] == control_id[i+4][2])
  2049                           ;recive.c: 250: &&(msg[3] == control_id[i+4][3])
  2050                           ;recive.c: 251: &&(msg[4] == control_id[i+4][4])
  2051                           ;recive.c: 252: )
  2052  0148  3006               	movlw	6
  2053  0149  00F3               	movwf	?___bmul
  2054  014A  086C               	movf	recive_task@i,w
  2055  014B  2631  118A         	fcall	___bmul
  2056  014D  3EC0               	addlw	(_control_id+24)& (0+255)
  2057  014E  0084               	movwf	4
  2058  014F  1383               	bcf	3,7	;select IRP bank1
  2059  0150  0800               	movf	0,w
  2060  0151  0666               	xorwf	recive_task@msg,w
  2061  0152  1D03               	skipz
  2062  0153  2942               	goto	l16544
  2063  0154  3006               	movlw	6
  2064  0155  00F3               	movwf	?___bmul
  2065  0156  086C               	movf	recive_task@i,w
  2066  0157  2631  118A         	fcall	___bmul
  2067  0159  3EC1               	addlw	(_control_id+25)& (0+255)
  2068  015A  0084               	movwf	4
  2069  015B  0867               	movf	recive_task@msg+1,w
  2070  015C  0600               	xorwf	0,w
  2071  015D  1D03               	skipz
  2072  015E  2942               	goto	l16544
  2073  015F  3006               	movlw	6
  2074  0160  00F3               	movwf	?___bmul
  2075  0161  086C               	movf	recive_task@i,w
  2076  0162  2631  118A         	fcall	___bmul
  2077  0164  3EC2               	addlw	(_control_id+26)& (0+255)
  2078  0165  0084               	movwf	4
  2079  0166  0868               	movf	recive_task@msg+2,w
  2080  0167  0600               	xorwf	0,w
  2081  0168  1D03               	skipz
  2082  0169  2942               	goto	l16544
  2083  016A  3006               	movlw	6
  2084  016B  00F3               	movwf	?___bmul
  2085  016C  086C               	movf	recive_task@i,w
  2086  016D  2631  118A         	fcall	___bmul
  2087  016F  3EC3               	addlw	(_control_id+27)& (0+255)
  2088  0170  0084               	movwf	4
  2089  0171  0869               	movf	recive_task@msg+3,w
  2090  0172  0600               	xorwf	0,w
  2091  0173  1D03               	skipz
  2092  0174  2942               	goto	l16544
  2093  0175  3006               	movlw	6
  2094  0176  00F3               	movwf	?___bmul
  2095  0177  086C               	movf	recive_task@i,w
  2096  0178  2631  118A         	fcall	___bmul
  2097  017A  3EC4               	addlw	(_control_id+28)& (0+255)
  2098  017B  0084               	movwf	4
  2099  017C  086A               	movf	recive_task@msg+4,w
  2100  017D  0600               	xorwf	0,w
  2101  017E  1D03               	skipz
  2102  017F  2942               	goto	l16544
  2103                           
  2104                           ;recive.c: 253: {
  2105                           ;recive.c: 254: match_flag = 1;
  2106  0180  01E5               	clrf	recive_task@match_flag
  2107  0181  0AE5               	incf	recive_task@match_flag,f
  2108  0182                     l16550:	
  2109                           
  2110                           ;recive.c: 260: }
  2111                           ;recive.c: 261: }
  2112                           ;recive.c: 262: if(match_flag == 0)
  2113  0182  08E5               	movf	recive_task@match_flag,f
  2114  0183  1D03               	skipz
  2115  0184  2A24               	goto	l9856
  2116                           
  2117                           ;recive.c: 263: {
  2118                           ;recive.c: 264: AT24C02_Write_Msg(24+channel_flag[1]*6,msg,6);
  2119  0185  3066               	movlw	recive_task@msg& (0+255)
  2120  0186  00D4               	movwf	?_AT24C02_Write_Msg
  2121  0187  3006               	movlw	6
  2122  0188  00D5               	movwf	?_AT24C02_Write_Msg+1
  2123  0189  00F3               	movwf	?___bmul
  2124  018A  084E               	movf	_channel_flag+1,w
  2125  018B  2631  118A         	fcall	___bmul
  2126  018D  3E18               	addlw	24
  2127  018E  23D0  118A         	fcall	_AT24C02_Write_Msg
  2128                           
  2129                           ;recive.c: 265: for(i = 0; i < 6; i++)
  2130  0190  01EC               	clrf	recive_task@i
  2131  0191                     l16556:	
  2132  0191  3006               	movlw	6
  2133  0192  026C               	subwf	recive_task@i,w
  2134  0193  1803               	btfsc	3,0
  2135  0194  29AB               	goto	l16566
  2136                           
  2137                           ;recive.c: 266: {
  2138                           ;recive.c: 267: control_id[channel_flag[1]+4][i] = msg[i];
  2139  0195  086C               	movf	recive_task@i,w
  2140  0196  3E66               	addlw	recive_task@msg& (0+255)
  2141  0197  0084               	movwf	4
  2142  0198  1383               	bcf	3,7	;select IRP bank0
  2143  0199  0800               	movf	0,w
  2144  019A  00E0               	movwf	??_recive_task
  2145  019B  3006               	movlw	6
  2146  019C  00F3               	movwf	?___bmul
  2147  019D  084E               	movf	_channel_flag+1,w
  2148  019E  2631  118A         	fcall	___bmul
  2149  01A0  00E1               	movwf	??_recive_task+1
  2150  01A1  3EC0               	addlw	(_control_id+24)& (0+255)
  2151  01A2  00E2               	movwf	??_recive_task+2
  2152  01A3  086C               	movf	recive_task@i,w
  2153  01A4  0762               	addwf	??_recive_task+2,w
  2154  01A5  00E3               	movwf	??_recive_task+3
  2155  01A6  0084               	movwf	4
  2156  01A7  0860               	movf	??_recive_task,w
  2157  01A8  0080               	movwf	0
  2158  01A9  0AEC               	incf	recive_task@i,f
  2159  01AA  2991               	goto	l16556
  2160  01AB                     l16566:	
  2161  01AB  3004               	movlw	4
  2162                           
  2163                           ;recive.c: 268: }
  2164                           ;recive.c: 269: channel_flag[1]++;
  2165  01AC  0ACE               	incf	_channel_flag+1,f
  2166                           
  2167                           ;recive.c: 270: if(channel_flag[1] >= 4)
  2168  01AD  024E               	subwf	_channel_flag+1,w
  2169  01AE  1C03               	skipc
  2170  01AF  2A24               	goto	l9856
  2171                           
  2172                           ;recive.c: 271: {
  2173                           ;recive.c: 272: channel_flag[1] = 0;
  2174  01B0  01CE               	clrf	_channel_flag+1
  2175  01B1  2A24               	goto	l9856
  2176  01B2                     l9861:	
  2177                           
  2178                           ;recive.c: 277: else if(match_channel_flag&0x40)
  2179  01B2  1F6E               	btfss	_match_channel_flag,6
  2180  01B3  2A25               	goto	l16620
  2181                           
  2182                           ;recive.c: 278: {
  2183                           ;recive.c: 280: for(i = 0; i < 4; i++)
  2184  01B4  01EC               	clrf	recive_task@i
  2185                           
  2186                           ;recive.c: 290: break;
  2187  01B5  29B8               	goto	l16574
  2188  01B6                     l16592:	
  2189                           
  2190                           ;recive.c: 292: else
  2191                           ;recive.c: 293: {
  2192                           ;recive.c: 294: match_flag = 0;
  2193  01B6  01E5               	clrf	recive_task@match_flag
  2194  01B7  0AEC               	incf	recive_task@i,f
  2195  01B8                     l16574:	
  2196  01B8  3004               	movlw	4
  2197  01B9  026C               	subwf	recive_task@i,w
  2198  01BA  1803               	btfsc	3,0
  2199  01BB  29F6               	goto	l16598
  2200                           
  2201                           ;recive.c: 281: {
  2202                           ;recive.c: 282: if((msg[0] == control_id[i+8][0])
  2203                           ;recive.c: 283: &&(msg[1] == control_id[i+8][1])
  2204                           ;recive.c: 284: &&(msg[2] == control_id[i+8][2])
  2205                           ;recive.c: 285: &&(msg[3] == control_id[i+8][3])
  2206                           ;recive.c: 286: &&(msg[4] == control_id[i+8][4])
  2207                           ;recive.c: 287: )
  2208  01BC  3006               	movlw	6
  2209  01BD  00F3               	movwf	?___bmul
  2210  01BE  086C               	movf	recive_task@i,w
  2211  01BF  2631  118A         	fcall	___bmul
  2212  01C1  3ED8               	addlw	(_control_id+48)& (0+255)
  2213  01C2  0084               	movwf	4
  2214  01C3  1383               	bcf	3,7	;select IRP bank1
  2215  01C4  0800               	movf	0,w
  2216  01C5  0666               	xorwf	recive_task@msg,w
  2217  01C6  1D03               	skipz
  2218  01C7  29B6               	goto	l16592
  2219  01C8  3006               	movlw	6
  2220  01C9  00F3               	movwf	?___bmul
  2221  01CA  086C               	movf	recive_task@i,w
  2222  01CB  2631  118A         	fcall	___bmul
  2223  01CD  3ED9               	addlw	(_control_id+49)& (0+255)
  2224  01CE  0084               	movwf	4
  2225  01CF  0867               	movf	recive_task@msg+1,w
  2226  01D0  0600               	xorwf	0,w
  2227  01D1  1D03               	skipz
  2228  01D2  29B6               	goto	l16592
  2229  01D3  3006               	movlw	6
  2230  01D4  00F3               	movwf	?___bmul
  2231  01D5  086C               	movf	recive_task@i,w
  2232  01D6  2631  118A         	fcall	___bmul
  2233  01D8  3EDA               	addlw	(_control_id+50)& (0+255)
  2234  01D9  0084               	movwf	4
  2235  01DA  0868               	movf	recive_task@msg+2,w
  2236  01DB  0600               	xorwf	0,w
  2237  01DC  1D03               	skipz
  2238  01DD  29B6               	goto	l16592
  2239  01DE  3006               	movlw	6
  2240  01DF  00F3               	movwf	?___bmul
  2241  01E0  086C               	movf	recive_task@i,w
  2242  01E1  2631  118A         	fcall	___bmul
  2243  01E3  3EDB               	addlw	(_control_id+51)& (0+255)
  2244  01E4  0084               	movwf	4
  2245  01E5  0869               	movf	recive_task@msg+3,w
  2246  01E6  0600               	xorwf	0,w
  2247  01E7  1D03               	skipz
  2248  01E8  29B6               	goto	l16592
  2249  01E9  3006               	movlw	6
  2250  01EA  00F3               	movwf	?___bmul
  2251  01EB  086C               	movf	recive_task@i,w
  2252  01EC  2631  118A         	fcall	___bmul
  2253  01EE  3EDC               	addlw	(_control_id+52)& (0+255)
  2254  01EF  0084               	movwf	4
  2255  01F0  086A               	movf	recive_task@msg+4,w
  2256  01F1  0600               	xorwf	0,w
  2257  01F2  1D03               	skipz
  2258  01F3  29B6               	goto	l16592
  2259                           
  2260                           ;recive.c: 288: {
  2261                           ;recive.c: 289: match_flag = 1;
  2262  01F4  01E5               	clrf	recive_task@match_flag
  2263  01F5  0AE5               	incf	recive_task@match_flag,f
  2264  01F6                     l16598:	
  2265                           
  2266                           ;recive.c: 295: }
  2267                           ;recive.c: 296: }
  2268                           ;recive.c: 297: if(match_flag == 0)
  2269  01F6  08E5               	movf	recive_task@match_flag,f
  2270  01F7  1D03               	skipz
  2271  01F8  2A24               	goto	l9856
  2272                           
  2273                           ;recive.c: 298: {
  2274                           ;recive.c: 299: AT24C02_Write_Msg(48 + channel_flag[2] * 6, msg, 6);
  2275  01F9  3066               	movlw	recive_task@msg& (0+255)
  2276  01FA  00D4               	movwf	?_AT24C02_Write_Msg
  2277  01FB  3006               	movlw	6
  2278  01FC  00D5               	movwf	?_AT24C02_Write_Msg+1
  2279  01FD  00F3               	movwf	?___bmul
  2280  01FE  084F               	movf	_channel_flag+2,w
  2281  01FF  2631  118A         	fcall	___bmul
  2282  0201  3E30               	addlw	48
  2283  0202  23D0  118A         	fcall	_AT24C02_Write_Msg
  2284                           
  2285                           ;recive.c: 300: for(i = 0; i < 6; i++)
  2286  0204  01EC               	clrf	recive_task@i
  2287  0205                     l16604:	
  2288  0205  3006               	movlw	6
  2289  0206  026C               	subwf	recive_task@i,w
  2290  0207  1803               	btfsc	3,0
  2291  0208  2A1F               	goto	l16614
  2292                           
  2293                           ;recive.c: 301: {
  2294                           ;recive.c: 302: control_id[channel_flag[2]+8][i] = msg[i];
  2295  0209  086C               	movf	recive_task@i,w
  2296  020A  3E66               	addlw	recive_task@msg& (0+255)
  2297  020B  0084               	movwf	4
  2298  020C  1383               	bcf	3,7	;select IRP bank0
  2299  020D  0800               	movf	0,w
  2300  020E  00E0               	movwf	??_recive_task
  2301  020F  3006               	movlw	6
  2302  0210  00F3               	movwf	?___bmul
  2303  0211  084F               	movf	_channel_flag+2,w
  2304  0212  2631  118A         	fcall	___bmul
  2305  0214  00E1               	movwf	??_recive_task+1
  2306  0215  3ED8               	addlw	(_control_id+48)& (0+255)
  2307  0216  00E2               	movwf	??_recive_task+2
  2308  0217  086C               	movf	recive_task@i,w
  2309  0218  0762               	addwf	??_recive_task+2,w
  2310  0219  00E3               	movwf	??_recive_task+3
  2311  021A  0084               	movwf	4
  2312  021B  0860               	movf	??_recive_task,w
  2313  021C  0080               	movwf	0
  2314  021D  0AEC               	incf	recive_task@i,f
  2315  021E  2A05               	goto	l16604
  2316  021F                     l16614:	
  2317  021F  3004               	movlw	4
  2318                           
  2319                           ;recive.c: 303: }
  2320                           ;recive.c: 304: channel_flag[2]++;
  2321  0220  0ACF               	incf	_channel_flag+2,f
  2322                           
  2323                           ;recive.c: 305: if(channel_flag[2] >= 4)
  2324  0221  024F               	subwf	_channel_flag+2,w
  2325  0222  1803               	btfsc	3,0
  2326                           
  2327                           ;recive.c: 306: {
  2328                           ;recive.c: 307: channel_flag[2] = 0;
  2329  0223  01CF               	clrf	_channel_flag+2
  2330  0224                     l9856:	
  2331                           
  2332                           ;recive.c: 239: }
  2333                           ;recive.c: 240: }
  2334                           ;recive.c: 241: key_long_flag = 0;
  2335  0224  01F9               	clrf	_key_long_flag
  2336  0225                     l16620:	
  2337                           
  2338                           ;recive.c: 311: }
  2339                           ;recive.c: 313: AT24C02_Write_Msg(100, channel_flag,3);
  2340  0225  304D               	movlw	_channel_flag& (0+255)
  2341  0226  00D4               	movwf	?_AT24C02_Write_Msg
  2342  0227  3003               	movlw	3
  2343  0228  00D5               	movwf	?_AT24C02_Write_Msg+1
  2344  0229  3064               	movlw	100
  2345  022A  23D0  118A         	fcall	_AT24C02_Write_Msg
  2346                           
  2347                           ;recive.c: 314: AT24C02_Write_Msg(100, channel_flag,3);
  2348  022C  304D               	movlw	_channel_flag& (0+255)
  2349  022D  00D4               	movwf	?_AT24C02_Write_Msg
  2350  022E  3003               	movlw	3
  2351  022F  00D5               	movwf	?_AT24C02_Write_Msg+1
  2352  0230  3064               	movlw	100
  2353  0231  23D0  118A         	fcall	_AT24C02_Write_Msg
  2354                           
  2355                           ;recive.c: 316: for(i = 0; i < 12; i++)
  2356  0233  01EC               	clrf	recive_task@i
  2357  0234                     l16624:	
  2358  0234  300C               	movlw	12
  2359  0235  026C               	subwf	recive_task@i,w
  2360  0236  1803               	btfsc	3,0
  2361  0237  2A49               	goto	l16634
  2362                           
  2363                           ;recive.c: 317: {
  2364                           ;recive.c: 318: AT24C02_Read_Msg(i * 6, control_id[i], 6);
  2365  0238  3006               	movlw	6
  2366  0239  00F3               	movwf	?___bmul
  2367  023A  086C               	movf	recive_task@i,w
  2368  023B  2631  118A         	fcall	___bmul
  2369  023D  3EA8               	addlw	_control_id& (0+255)
  2370  023E  00D6               	movwf	?_AT24C02_Read_Msg
  2371  023F  3006               	movlw	6
  2372  0240  00D7               	movwf	?_AT24C02_Read_Msg+1
  2373  0241  00F3               	movwf	?___bmul
  2374  0242  086C               	movf	recive_task@i,w
  2375  0243  2631  118A         	fcall	___bmul
  2376  0245  263F  118A         	fcall	_AT24C02_Read_Msg
  2377  0247  0AEC               	incf	recive_task@i,f
  2378  0248  2A34               	goto	l16624
  2379  0249                     l16634:	
  2380                           
  2381                           ;recive.c: 319: }
  2382                           ;recive.c: 320: AT24C02_Read_Msg(100, channel_flag, 3);
  2383  0249  304D               	movlw	_channel_flag& (0+255)
  2384  024A  00D6               	movwf	?_AT24C02_Read_Msg
  2385  024B  3003               	movlw	3
  2386  024C  00D7               	movwf	?_AT24C02_Read_Msg+1
  2387  024D  3064               	movlw	100
  2388  024E  263F  118A         	fcall	_AT24C02_Read_Msg
  2389                           
  2390                           ;recive.c: 322: sys_stute = 1;
  2391  0250  01EF               	clrf	_sys_stute
  2392  0251  0AEF               	incf	_sys_stute,f
  2393                           
  2394                           ;recive.c: 324: (TRISC0=0,RC0=0);
  2395  0252  1683               	bsf	3,5	;RP0=1, select bank1
  2396  0253  1007               	bcf	7,0
  2397  0254  1283               	bcf	3,5	;RP0=0, select bank0
  2398  0255  3064               	movlw	100
  2399  0256  1007               	bcf	7,0
  2400                           
  2401                           ;recive.c: 325: soft_delay_ms(100);
  2402  0257  00F3               	movwf	?_soft_delay_ms
  2403  0258  01F4               	clrf	?_soft_delay_ms+1
  2404  0259  255C               	fcall	_soft_delay_ms
  2405                           
  2406                           ;recive.c: 326: (TRISC0=0,RC0=1);
  2407  025A  1683               	bsf	3,5	;RP0=1, select bank1
  2408  025B  1007               	bcf	7,0
  2409  025C  1283               	bcf	3,5	;RP0=0, select bank0
  2410  025D  1407               	bsf	7,0
  2411  025E                     l16648:	
  2412                           
  2413                           ;recive.c: 327: match_channel_flag = 0;
  2414  025E  01EE               	clrf	_match_channel_flag
  2415  025F  0008               	return
  2416  0260                     l16650:	
  2417                           
  2418                           ;recive.c: 330: else
  2419                           ;recive.c: 331: {
  2420                           ;recive.c: 332: if(flag_5s_add > 500)
  2421  0260  3001               	movlw	1
  2422  0261  0231               	subwf	_flag_5s_add+1,w
  2423  0262  30F5               	movlw	245
  2424  0263  1903               	skipnz
  2425  0264  0230               	subwf	_flag_5s_add,w
  2426  0265  1C03               	skipc
  2427  0266  0008               	return
  2428                           
  2429                           ;recive.c: 333: {
  2430                           ;recive.c: 334: sys_stute = 1;
  2431  0267  01EF               	clrf	_sys_stute
  2432  0268  0AEF               	incf	_sys_stute,f
  2433  0269  2A5E               	goto	l16648
  2434  026A                     l16656:	
  2435                           
  2436                           ;recive.c: 340: {
  2437                           ;recive.c: 341: if(rx_data())
  2438  026A  158A  264A  118A   	fcall	_rx_data
  2439  026D  3A00               	xorlw	0
  2440  026E  1903               	skipnz
  2441  026F  0008               	return
  2442                           
  2443                           ;recive.c: 342: {
  2444                           ;recive.c: 343: rf_buf[2] = ~rf_buf[2];
  2445  0270  30FF               	movlw	255
  2446  0271  06BD               	xorwf	_rf_buf+2,f
  2447                           
  2448                           ;recive.c: 344: if(rf_buf[10] != 0xff)
  2449  0272  0845               	movf	_rf_buf+10,w
  2450  0273  3AFF               	xorlw	255
  2451  0274  1903               	skipnz
  2452  0275  2B24               	goto	l16740
  2453                           
  2454                           ;recive.c: 345: {
  2455                           ;recive.c: 346: for(i=0; i<12; i++)
  2456  0276  01EC               	clrf	recive_task@i
  2457  0277                     l16664:	
  2458  0277  300C               	movlw	12
  2459  0278  026C               	subwf	recive_task@i,w
  2460  0279  1803               	btfsc	3,0
  2461  027A  2BC7               	goto	l16818
  2462                           
  2463                           ;recive.c: 347: {
  2464                           ;recive.c: 348: if((rf_buf[3] == control_id[i][0])
  2465                           ;recive.c: 349: &&(rf_buf[4] == control_id[i][1])
  2466                           ;recive.c: 350: &&(rf_buf[5] == control_id[i][2])
  2467                           ;recive.c: 351: &&(rf_buf[6] == control_id[i][3]))
  2468  027B  3006               	movlw	6
  2469  027C  00F3               	movwf	?___bmul
  2470  027D  086C               	movf	recive_task@i,w
  2471  027E  2631  118A         	fcall	___bmul
  2472  0280  3EA8               	addlw	_control_id& (0+255)
  2473  0281  0084               	movwf	4
  2474  0282  083E               	movf	_rf_buf+3,w
  2475  0283  1383               	bcf	3,7	;select IRP bank1
  2476  0284  0600               	xorwf	0,w
  2477  0285  1D03               	skipz
  2478  0286  2B22               	goto	l16736
  2479  0287  3006               	movlw	6
  2480  0288  00F3               	movwf	?___bmul
  2481  0289  086C               	movf	recive_task@i,w
  2482  028A  2631  118A         	fcall	___bmul
  2483  028C  3EA9               	addlw	(_control_id+1)& (0+255)
  2484  028D  0084               	movwf	4
  2485  028E  083F               	movf	_rf_buf+4,w
  2486  028F  0600               	xorwf	0,w
  2487  0290  1D03               	skipz
  2488  0291  2B22               	goto	l16736
  2489  0292  3006               	movlw	6
  2490  0293  00F3               	movwf	?___bmul
  2491  0294  086C               	movf	recive_task@i,w
  2492  0295  2631  118A         	fcall	___bmul
  2493  0297  3EAA               	addlw	(_control_id+2)& (0+255)
  2494  0298  0084               	movwf	4
  2495  0299  0840               	movf	_rf_buf+5,w
  2496  029A  0600               	xorwf	0,w
  2497  029B  1D03               	skipz
  2498  029C  2B22               	goto	l16736
  2499  029D  3006               	movlw	6
  2500  029E  00F3               	movwf	?___bmul
  2501  029F  086C               	movf	recive_task@i,w
  2502  02A0  2631  118A         	fcall	___bmul
  2503  02A2  3EAB               	addlw	(_control_id+3)& (0+255)
  2504  02A3  0084               	movwf	4
  2505  02A4  0841               	movf	_rf_buf+6,w
  2506  02A5  0600               	xorwf	0,w
  2507  02A6  1D03               	skipz
  2508  02A7  2B22               	goto	l16736
  2509                           
  2510                           ;recive.c: 352: {
  2511                           ;recive.c: 353: if(rf_buf[2] != control_id[i][5])
  2512  02A8  3006               	movlw	6
  2513  02A9  00F3               	movwf	?___bmul
  2514  02AA  086C               	movf	recive_task@i,w
  2515  02AB  2631  118A         	fcall	___bmul
  2516  02AD  3EAD               	addlw	(_control_id+5)& (0+255)
  2517  02AE  0084               	movwf	4
  2518  02AF  083D               	movf	_rf_buf+2,w
  2519  02B0  0600               	xorwf	0,w
  2520  02B1  1903               	skipnz
  2521  02B2  2B22               	goto	l16736
  2522                           
  2523                           ;recive.c: 354: {
  2524                           ;recive.c: 355: control_id[i][5] = rf_buf[2];
  2525  02B3  3006               	movlw	6
  2526  02B4  00F3               	movwf	?___bmul
  2527  02B5  086C               	movf	recive_task@i,w
  2528  02B6  2631  118A         	fcall	___bmul
  2529  02B8  3EAD               	addlw	(_control_id+5)& (0+255)
  2530  02B9  0084               	movwf	4
  2531  02BA  083D               	movf	_rf_buf+2,w
  2532  02BB  0080               	movwf	0
  2533                           
  2534                           ;recive.c: 356: if(rf_buf[10] == control_id[i][4])
  2535  02BC  3006               	movlw	6
  2536  02BD  00F3               	movwf	?___bmul
  2537  02BE  086C               	movf	recive_task@i,w
  2538  02BF  2631  118A         	fcall	___bmul
  2539  02C1  3EAC               	addlw	(_control_id+4)& (0+255)
  2540  02C2  0084               	movwf	4
  2541  02C3  0845               	movf	_rf_buf+10,w
  2542  02C4  0600               	xorwf	0,w
  2543  02C5  1D03               	skipz
  2544  02C6  2B22               	goto	l16736
  2545                           
  2546                           ;recive.c: 357: {
  2547                           ;recive.c: 358: if(flag_led == 0)
  2548  02C7  08E4               	movf	recive_task@flag_led,f
  2549  02C8  1D03               	skipz
  2550  02C9  2AD9               	goto	l16690
  2551                           
  2552                           ;recive.c: 359: {
  2553                           ;recive.c: 360: flag_led = 1;
  2554  02CA  01E4               	clrf	recive_task@flag_led
  2555  02CB  0AE4               	incf	recive_task@flag_led,f
  2556                           
  2557                           ;recive.c: 361: (TRISC0=0,RC0=0);
  2558  02CC  1683               	bsf	3,5	;RP0=1, select bank1
  2559  02CD  1007               	bcf	7,0
  2560  02CE  1283               	bcf	3,5	;RP0=0, select bank0
  2561  02CF  3064               	movlw	100
  2562  02D0  1007               	bcf	7,0
  2563                           
  2564                           ;recive.c: 362: soft_delay_ms(100);
  2565  02D1  00F3               	movwf	?_soft_delay_ms
  2566  02D2  01F4               	clrf	?_soft_delay_ms+1
  2567  02D3  255C  118A         	fcall	_soft_delay_ms
  2568                           
  2569                           ;recive.c: 363: (TRISC0=0,RC0=1);
  2570  02D5  1683               	bsf	3,5	;RP0=1, select bank1
  2571  02D6  1007               	bcf	7,0
  2572  02D7  1283               	bcf	3,5	;RP0=0, select bank0
  2573  02D8  1407               	bsf	7,0
  2574  02D9                     l16690:	
  2575                           
  2576                           ;recive.c: 364: }
  2577                           ;recive.c: 366: if(rf_buf[11] == 0)
  2578  02D9  08C6               	movf	_rf_buf+11,f
  2579  02DA  1D03               	skipz
  2580  02DB  2B0B               	goto	l16720
  2581                           
  2582                           ;recive.c: 367: {
  2583                           ;recive.c: 368: if(i < 4)
  2584  02DC  3004               	movlw	4
  2585  02DD  026C               	subwf	recive_task@i,w
  2586  02DE  1803               	skipnc
  2587  02DF  2AED               	goto	l16702
  2588                           
  2589                           ;recive.c: 369: {
  2590                           ;recive.c: 370: if((KEY0_FLAG == 0))
  2591  02E0  08F6               	movf	_KEY0_FLAG,f
  2592  02E1  1D03               	skipz
  2593  02E2  2B22               	goto	l16736
  2594                           
  2595                           ;recive.c: 371: {
  2596                           ;recive.c: 372: if(rf_buf[9] == 2)
  2597  02E3  0844               	movf	_rf_buf+9,w
  2598  02E4  3A02               	xorlw	2
  2599  02E5  1D03               	skipz
  2600  02E6  2AEA               	goto	l16700
  2601                           
  2602                           ;recive.c: 373: KEY0.channel_status ^= 1;
  2603  02E7  3001               	movlw	1
  2604  02E8  06A0               	xorwf	_KEY0,f
  2605  02E9  2B22               	goto	l16736
  2606  02EA                     l16700:	
  2607                           
  2608                           ;recive.c: 374: else
  2609                           ;recive.c: 375: KEY0.channel_status = rf_buf[9]; }
  2610  02EA  0844               	movf	_rf_buf+9,w
  2611  02EB  00A0               	movwf	_KEY0
  2612  02EC  2B22               	goto	l16736
  2613  02ED                     l16702:	
  2614                           
  2615                           ;recive.c: 377: else if(i < 8)
  2616  02ED  3008               	movlw	8
  2617  02EE  026C               	subwf	recive_task@i,w
  2618  02EF  1803               	skipnc
  2619  02F0  2AFE               	goto	l16712
  2620                           
  2621                           ;recive.c: 378: {
  2622                           ;recive.c: 379: if((KEY1_FLAG == 0))
  2623  02F1  08F7               	movf	_KEY1_FLAG,f
  2624  02F2  1D03               	skipz
  2625  02F3  2B22               	goto	l16736
  2626                           
  2627                           ;recive.c: 380: {
  2628                           ;recive.c: 381: if(rf_buf[9] == 2)
  2629  02F4  0844               	movf	_rf_buf+9,w
  2630  02F5  3A02               	xorlw	2
  2631  02F6  1D03               	skipz
  2632  02F7  2AFB               	goto	l16710
  2633                           
  2634                           ;recive.c: 382: KEY1.channel_status ^= 1;
  2635  02F8  3001               	movlw	1
  2636  02F9  06A3               	xorwf	_KEY1,f
  2637  02FA  2B22               	goto	l16736
  2638  02FB                     l16710:	
  2639                           
  2640                           ;recive.c: 383: else
  2641                           ;recive.c: 384: KEY1.channel_status = rf_buf[9];
  2642  02FB  0844               	movf	_rf_buf+9,w
  2643  02FC  00A3               	movwf	_KEY1
  2644  02FD  2B22               	goto	l16736
  2645  02FE                     l16712:	
  2646                           
  2647                           ;recive.c: 388: else
  2648                           ;recive.c: 389: {
  2649                           ;recive.c: 390: if((KEY2_FLAG == 0))
  2650  02FE  08F8               	movf	_KEY2_FLAG,f
  2651  02FF  1D03               	skipz
  2652  0300  2B22               	goto	l16736
  2653                           
  2654                           ;recive.c: 391: {
  2655                           ;recive.c: 392: if(rf_buf[9] == 2)
  2656  0301  0844               	movf	_rf_buf+9,w
  2657  0302  3A02               	xorlw	2
  2658  0303  1D03               	skipz
  2659  0304  2B08               	goto	l16718
  2660                           
  2661                           ;recive.c: 393: KEY2.channel_status ^= 1;
  2662  0305  3001               	movlw	1
  2663  0306  06A6               	xorwf	_KEY2,f
  2664  0307  2B22               	goto	l16736
  2665  0308                     l16718:	
  2666                           
  2667                           ;recive.c: 394: else
  2668                           ;recive.c: 395: KEY2.channel_status = rf_buf[9];
  2669  0308  0844               	movf	_rf_buf+9,w
  2670  0309  00A6               	movwf	_KEY2
  2671  030A  2B22               	goto	l16736
  2672  030B                     l16720:	
  2673                           
  2674                           ;recive.c: 399: else
  2675                           ;recive.c: 400: {
  2676                           ;recive.c: 401: flag_5min_add = 0;
  2677  030B  01AE               	clrf	_flag_5min_add
  2678  030C  01AF               	clrf	_flag_5min_add+1
  2679                           
  2680                           ;recive.c: 402: if(delay_flag == 1)
  2681  030D  0B39               	decfsz	_delay_flag,w
  2682  030E  2B11               	goto	l16726
  2683                           
  2684                           ;recive.c: 403: {
  2685                           ;recive.c: 404: channel_delay[0] = 0;
  2686  030F  01A9               	clrf	_channel_delay
  2687                           
  2688                           ;recive.c: 405: delay_flag = 0;
  2689  0310  01B9               	clrf	_delay_flag
  2690  0311                     l16726:	
  2691                           
  2692                           ;recive.c: 406: }
  2693                           ;recive.c: 407: if(i < 4)
  2694  0311  3004               	movlw	4
  2695  0312  026C               	subwf	recive_task@i,w
  2696  0313  1803               	skipnc
  2697  0314  2B17               	goto	l16730
  2698                           
  2699                           ;recive.c: 408: {
  2700                           ;recive.c: 409: channel_delay[0] |= 0x01;
  2701  0315  1429               	bsf	_channel_delay,0
  2702                           
  2703                           ;recive.c: 410: }
  2704  0316  2B1E               	goto	l16734
  2705  0317                     l16730:	
  2706                           
  2707                           ;recive.c: 411: else if(i < 8)
  2708  0317  3008               	movlw	8
  2709  0318  026C               	subwf	recive_task@i,w
  2710  0319  1803               	skipnc
  2711  031A  2B1D               	goto	l9911
  2712                           
  2713                           ;recive.c: 412: {
  2714                           ;recive.c: 413: channel_delay[0] |= 0x02;
  2715  031B  14A9               	bsf	_channel_delay,1
  2716                           
  2717                           ;recive.c: 414: }
  2718  031C  2B1E               	goto	l16734
  2719  031D                     l9911:	
  2720                           
  2721                           ;recive.c: 415: else
  2722                           ;recive.c: 416: {
  2723                           ;recive.c: 417: channel_delay[0] |= 0x04;
  2724  031D  1529               	bsf	_channel_delay,2
  2725  031E                     l16734:	
  2726                           
  2727                           ;recive.c: 418: }
  2728                           ;recive.c: 419: channel_delay[1] = rf_buf[9];
  2729  031E  0844               	movf	_rf_buf+9,w
  2730  031F  00AA               	movwf	_channel_delay+1
  2731                           
  2732                           ;recive.c: 420: channel_delay[2] = rf_buf[11];
  2733  0320  0846               	movf	_rf_buf+11,w
  2734  0321  00AB               	movwf	_channel_delay+2
  2735  0322                     l16736:	
  2736  0322  0AEC               	incf	recive_task@i,f
  2737  0323  2A77               	goto	l16664
  2738  0324                     l16740:	
  2739                           
  2740                           ;recive.c: 428: else
  2741                           ;recive.c: 429: {
  2742                           ;recive.c: 431: {
  2743                           ;recive.c: 432: for(i = 0; i < 12; i++)
  2744  0324  01EC               	clrf	recive_task@i
  2745  0325                     l16742:	
  2746  0325  300C               	movlw	12
  2747  0326  026C               	subwf	recive_task@i,w
  2748  0327  1803               	btfsc	3,0
  2749  0328  2BC7               	goto	l16818
  2750                           
  2751                           ;recive.c: 433: {
  2752                           ;recive.c: 434: if((rf_buf[3] == control_id[i][0])
  2753                           ;recive.c: 435: &&(rf_buf[4] == control_id[i][1])
  2754                           ;recive.c: 436: &&(rf_buf[5] == control_id[i][2])
  2755                           ;recive.c: 437: &&(rf_buf[6] == control_id[i][3]))
  2756  0329  3006               	movlw	6
  2757  032A  00F3               	movwf	?___bmul
  2758  032B  086C               	movf	recive_task@i,w
  2759  032C  2631  118A         	fcall	___bmul
  2760  032E  3EA8               	addlw	_control_id& (0+255)
  2761  032F  0084               	movwf	4
  2762  0330  083E               	movf	_rf_buf+3,w
  2763  0331  1383               	bcf	3,7	;select IRP bank1
  2764  0332  0600               	xorwf	0,w
  2765  0333  1D03               	skipz
  2766  0334  2BC5               	goto	l16814
  2767  0335  3006               	movlw	6
  2768  0336  00F3               	movwf	?___bmul
  2769  0337  086C               	movf	recive_task@i,w
  2770  0338  2631  118A         	fcall	___bmul
  2771  033A  3EA9               	addlw	(_control_id+1)& (0+255)
  2772  033B  0084               	movwf	4
  2773  033C  083F               	movf	_rf_buf+4,w
  2774  033D  0600               	xorwf	0,w
  2775  033E  1D03               	skipz
  2776  033F  2BC5               	goto	l16814
  2777  0340  3006               	movlw	6
  2778  0341  00F3               	movwf	?___bmul
  2779  0342  086C               	movf	recive_task@i,w
  2780  0343  2631  118A         	fcall	___bmul
  2781  0345  3EAA               	addlw	(_control_id+2)& (0+255)
  2782  0346  0084               	movwf	4
  2783  0347  0840               	movf	_rf_buf+5,w
  2784  0348  0600               	xorwf	0,w
  2785  0349  1D03               	skipz
  2786  034A  2BC5               	goto	l16814
  2787  034B  3006               	movlw	6
  2788  034C  00F3               	movwf	?___bmul
  2789  034D  086C               	movf	recive_task@i,w
  2790  034E  2631  118A         	fcall	___bmul
  2791  0350  3EAB               	addlw	(_control_id+3)& (0+255)
  2792  0351  0084               	movwf	4
  2793  0352  0841               	movf	_rf_buf+6,w
  2794  0353  0600               	xorwf	0,w
  2795  0354  1D03               	skipz
  2796  0355  2BC5               	goto	l16814
  2797                           
  2798                           ;recive.c: 438: {
  2799                           ;recive.c: 439: if((rf_buf[2] != control_id[i][5]))
  2800  0356  3006               	movlw	6
  2801  0357  00F3               	movwf	?___bmul
  2802  0358  086C               	movf	recive_task@i,w
  2803  0359  2631  118A         	fcall	___bmul
  2804  035B  3EAD               	addlw	(_control_id+5)& (0+255)
  2805  035C  0084               	movwf	4
  2806  035D  083D               	movf	_rf_buf+2,w
  2807  035E  0600               	xorwf	0,w
  2808  035F  1903               	skipnz
  2809  0360  2BC5               	goto	l16814
  2810                           
  2811                           ;recive.c: 440: {
  2812                           ;recive.c: 441: control_id[i][5] = rf_buf[2];
  2813  0361  3006               	movlw	6
  2814  0362  00F3               	movwf	?___bmul
  2815  0363  086C               	movf	recive_task@i,w
  2816  0364  2631  118A         	fcall	___bmul
  2817  0366  3EAD               	addlw	(_control_id+5)& (0+255)
  2818  0367  0084               	movwf	4
  2819  0368  083D               	movf	_rf_buf+2,w
  2820  0369  0080               	movwf	0
  2821                           
  2822                           ;recive.c: 442: if(flag_led == 0)
  2823  036A  08E4               	movf	recive_task@flag_led,f
  2824  036B  1D03               	skipz
  2825  036C  2B7C               	goto	l16768
  2826                           
  2827                           ;recive.c: 443: {
  2828                           ;recive.c: 444: flag_led = 1;
  2829  036D  01E4               	clrf	recive_task@flag_led
  2830  036E  0AE4               	incf	recive_task@flag_led,f
  2831                           
  2832                           ;recive.c: 445: (TRISC0=0,RC0=0);
  2833  036F  1683               	bsf	3,5	;RP0=1, select bank1
  2834  0370  1007               	bcf	7,0
  2835  0371  1283               	bcf	3,5	;RP0=0, select bank0
  2836  0372  3064               	movlw	100
  2837  0373  1007               	bcf	7,0
  2838                           
  2839                           ;recive.c: 446: soft_delay_ms(100);
  2840  0374  00F3               	movwf	?_soft_delay_ms
  2841  0375  01F4               	clrf	?_soft_delay_ms+1
  2842  0376  255C  118A         	fcall	_soft_delay_ms
  2843                           
  2844                           ;recive.c: 447: (TRISC0=0,RC0=1);
  2845  0378  1683               	bsf	3,5	;RP0=1, select bank1
  2846  0379  1007               	bcf	7,0
  2847  037A  1283               	bcf	3,5	;RP0=0, select bank0
  2848  037B  1407               	bsf	7,0
  2849  037C                     l16768:	
  2850                           
  2851                           ;recive.c: 448: }
  2852                           ;recive.c: 449: if((rf_buf[11] == 0))
  2853  037C  08C6               	movf	_rf_buf+11,f
  2854  037D  1D03               	skipz
  2855  037E  2BAE               	goto	l16798
  2856                           
  2857                           ;recive.c: 450: {
  2858                           ;recive.c: 451: if(i < 4)
  2859  037F  3004               	movlw	4
  2860  0380  026C               	subwf	recive_task@i,w
  2861  0381  1803               	skipnc
  2862  0382  2B90               	goto	l16780
  2863                           
  2864                           ;recive.c: 452: {
  2865                           ;recive.c: 453: if((KEY0_FLAG == 0))
  2866  0383  08F6               	movf	_KEY0_FLAG,f
  2867  0384  1D03               	skipz
  2868  0385  2BC5               	goto	l16814
  2869                           
  2870                           ;recive.c: 454: {
  2871                           ;recive.c: 455: if(rf_buf[9] == 2)
  2872  0386  0844               	movf	_rf_buf+9,w
  2873  0387  3A02               	xorlw	2
  2874  0388  1D03               	skipz
  2875  0389  2B8D               	goto	l16778
  2876                           
  2877                           ;recive.c: 456: KEY0.channel_status ^= 1;
  2878  038A  3001               	movlw	1
  2879  038B  06A0               	xorwf	_KEY0,f
  2880  038C  2BC5               	goto	l16814
  2881  038D                     l16778:	
  2882                           
  2883                           ;recive.c: 457: else
  2884                           ;recive.c: 458: KEY0.channel_status = rf_buf[9];
  2885  038D  0844               	movf	_rf_buf+9,w
  2886  038E  00A0               	movwf	_KEY0
  2887  038F  2BC5               	goto	l16814
  2888  0390                     l16780:	
  2889                           
  2890                           ;recive.c: 461: else if(i < 8)
  2891  0390  3008               	movlw	8
  2892  0391  026C               	subwf	recive_task@i,w
  2893  0392  1803               	skipnc
  2894  0393  2BA1               	goto	l16790
  2895                           
  2896                           ;recive.c: 462: {
  2897                           ;recive.c: 463: if((KEY1_FLAG == 0))
  2898  0394  08F7               	movf	_KEY1_FLAG,f
  2899  0395  1D03               	skipz
  2900  0396  2BC5               	goto	l16814
  2901                           
  2902                           ;recive.c: 464: {
  2903                           ;recive.c: 465: if(rf_buf[9] == 2)
  2904  0397  0844               	movf	_rf_buf+9,w
  2905  0398  3A02               	xorlw	2
  2906  0399  1D03               	skipz
  2907  039A  2B9E               	goto	l16788
  2908                           
  2909                           ;recive.c: 466: KEY1.channel_status ^= 1;
  2910  039B  3001               	movlw	1
  2911  039C  06A3               	xorwf	_KEY1,f
  2912  039D  2BC5               	goto	l16814
  2913  039E                     l16788:	
  2914                           
  2915                           ;recive.c: 467: else
  2916                           ;recive.c: 468: KEY1.channel_status = rf_buf[9];
  2917  039E  0844               	movf	_rf_buf+9,w
  2918  039F  00A3               	movwf	_KEY1
  2919  03A0  2BC5               	goto	l16814
  2920  03A1                     l16790:	
  2921                           
  2922                           ;recive.c: 471: else
  2923                           ;recive.c: 472: {
  2924                           ;recive.c: 473: if((KEY2_FLAG == 0))
  2925  03A1  08F8               	movf	_KEY2_FLAG,f
  2926  03A2  1D03               	skipz
  2927  03A3  2BC5               	goto	l16814
  2928                           
  2929                           ;recive.c: 474: {
  2930                           ;recive.c: 475: if(rf_buf[9] == 2)
  2931  03A4  0844               	movf	_rf_buf+9,w
  2932  03A5  3A02               	xorlw	2
  2933  03A6  1D03               	skipz
  2934  03A7  2BAB               	goto	l16796
  2935                           
  2936                           ;recive.c: 476: KEY2.channel_status ^= 1;
  2937  03A8  3001               	movlw	1
  2938  03A9  06A6               	xorwf	_KEY2,f
  2939  03AA  2BC5               	goto	l16814
  2940  03AB                     l16796:	
  2941                           
  2942                           ;recive.c: 477: else
  2943                           ;recive.c: 478: KEY2.channel_status = rf_buf[9];
  2944  03AB  0844               	movf	_rf_buf+9,w
  2945  03AC  00A6               	movwf	_KEY2
  2946  03AD  2BC5               	goto	l16814
  2947  03AE                     l16798:	
  2948                           
  2949                           ;recive.c: 482: else
  2950                           ;recive.c: 483: {
  2951                           ;recive.c: 484: flag_5min_add = 0;
  2952  03AE  01AE               	clrf	_flag_5min_add
  2953  03AF  01AF               	clrf	_flag_5min_add+1
  2954                           
  2955                           ;recive.c: 485: if(delay_flag == 1)
  2956  03B0  0B39               	decfsz	_delay_flag,w
  2957  03B1  2BB4               	goto	l16804
  2958                           
  2959                           ;recive.c: 486: {
  2960                           ;recive.c: 487: channel_delay[0] = 0;
  2961  03B2  01A9               	clrf	_channel_delay
  2962                           
  2963                           ;recive.c: 488: delay_flag = 0;
  2964  03B3  01B9               	clrf	_delay_flag
  2965  03B4                     l16804:	
  2966                           
  2967                           ;recive.c: 489: }
  2968                           ;recive.c: 490: if(i < 4)
  2969  03B4  3004               	movlw	4
  2970  03B5  026C               	subwf	recive_task@i,w
  2971  03B6  1803               	skipnc
  2972  03B7  2BBA               	goto	l16808
  2973                           
  2974                           ;recive.c: 491: {
  2975                           ;recive.c: 492: channel_delay[0] |= 0x01;
  2976  03B8  1429               	bsf	_channel_delay,0
  2977                           
  2978                           ;recive.c: 493: }
  2979  03B9  2BC1               	goto	l16812
  2980  03BA                     l16808:	
  2981                           
  2982                           ;recive.c: 494: else if(i<8)
  2983  03BA  3008               	movlw	8
  2984  03BB  026C               	subwf	recive_task@i,w
  2985  03BC  1803               	skipnc
  2986  03BD  2BC0               	goto	l9937
  2987                           
  2988                           ;recive.c: 495: {
  2989                           ;recive.c: 496: channel_delay[0] |= 0x02;
  2990  03BE  14A9               	bsf	_channel_delay,1
  2991                           
  2992                           ;recive.c: 497: }
  2993  03BF  2BC1               	goto	l16812
  2994  03C0                     l9937:	
  2995                           
  2996                           ;recive.c: 498: else
  2997                           ;recive.c: 499: {
  2998                           ;recive.c: 500: channel_delay[0] |= 0x04;
  2999  03C0  1529               	bsf	_channel_delay,2
  3000  03C1                     l16812:	
  3001                           
  3002                           ;recive.c: 501: }
  3003                           ;recive.c: 502: channel_delay[1] = rf_buf[9];
  3004  03C1  0844               	movf	_rf_buf+9,w
  3005  03C2  00AA               	movwf	_channel_delay+1
  3006                           
  3007                           ;recive.c: 503: channel_delay[2] = rf_buf[11];
  3008  03C3  0846               	movf	_rf_buf+11,w
  3009  03C4  00AB               	movwf	_channel_delay+2
  3010  03C5                     l16814:	
  3011  03C5  0AEC               	incf	recive_task@i,f
  3012  03C6  2B25               	goto	l16742
  3013  03C7                     l16818:	
  3014                           
  3015                           ;recive.c: 504: }
  3016                           ;recive.c: 506: }
  3017                           ;recive.c: 507: }
  3018                           ;recive.c: 508: }
  3019                           ;recive.c: 509: }
  3020                           ;recive.c: 512: }
  3021                           ;recive.c: 514: soft_delay_ms(100);
  3022  03C7  3064               	movlw	100
  3023  03C8  00F3               	movwf	?_soft_delay_ms
  3024  03C9  01F4               	clrf	?_soft_delay_ms+1
  3025  03CA  255C               	fcall	_soft_delay_ms
  3026                           
  3027                           ;recive.c: 515: RF_ClearFIFO();
  3028  03CB  158A  27EC         	fcall	_RF_ClearFIFO
  3029                           
  3030                           ;recive.c: 516: RF_ClearStatus();
  3031  03CD  158A  2FFC         	ljmp	l16270
  3032  03CF                     l9939:	
  3033  03CF  0008               	return
  3034  03D0                     __end_of_recive_task:	
  3035  03D0                     __ptext1104:	
  3036 ;; =============== function _AT24C02_Read_Byte ends ============
  3037                           
  3038                           
  3039 ;; *************** function _AT24C02_Write_Msg *****************
  3040 ;; Defined at:
  3041 ;;		line 41 in file "C:\Users\Andrew\Desktop\EleMatch\PAV03\FWSWES-PAV03-SWITCHES-PAN2416AV\src\e2prom.c"
  3042 ;; Parameters:    Size  Location     Type
  3043 ;;  addr            1    wreg     unsigned char 
  3044 ;;  data            1    4[BANK0 ] PTR unsigned char 
  3045 ;;		 -> recive_task@msg(6), channel_flag(3), 
  3046 ;;  len             1    5[BANK0 ] unsigned char 
  3047 ;; Auto vars:     Size  Location     Type
  3048 ;;  addr            1    7[BANK0 ] unsigned char 
  3049 ;;  i               1    8[BANK0 ] unsigned char 
  3050 ;; Return value:  Size  Location     Type
  3051 ;;		None               void
  3052 ;; Registers used:
  3053 ;;		wreg, fsr0l, fsr0h, status,2, status,0, pclath, cstack
  3054 ;; Tracked objects:
  3055 ;;		On entry : 60/0
  3056 ;;		On exit  : 60/0
  3057 ;;		Unchanged: FFE9F/0
  3058 ;; Data sizes:     COMMON   BANK0   BANK1   BANK3   BANK2
  3059 ;;      Params:         0       2       0       0       0
  3060 ;;      Locals:         0       2       0       0       0
  3061 ;;      Temps:          0       1       0       0       0
  3062 ;;      Totals:         0       5       0       0       0
  3063 ;;Total ram usage:        5 bytes
  3064 ;; Hardware stack levels used:    1
  3065 ;; Hardware stack levels required when called:    5
  3066 ;; This function calls:
  3067 ;;		_AT24C02_Write_Byte
  3068 ;;		_soft_delay_ms
  3069 ;; This function is called by:
  3070 ;;		_recive_task
  3071 ;; This function uses a non-reentrant model
  3072 ;;
  3073  03D0                     _AT24C02_Write_Msg:	
  3074                           
  3075                           ; Regs used in _AT24C02_Write_Msg: [wreg-fsr0h+status,2+status,0+pclath+cstack]
  3076                           ;AT24C02_Write_Msg@addr stored from wreg
  3077  03D0  00D7               	movwf	AT24C02_Write_Msg@addr
  3078                           
  3079                           ;e2prom.c: 42: unsigned char i=0;
  3080  03D1  01D8               	clrf	AT24C02_Write_Msg@i
  3081                           
  3082                           ;e2prom.c: 43: for(i=0;i<len;i++)
  3083  03D2  01D8               	clrf	AT24C02_Write_Msg@i
  3084  03D3                     l16300:	
  3085  03D3  0855               	movf	AT24C02_Write_Msg@len,w
  3086  03D4  0258               	subwf	AT24C02_Write_Msg@i,w
  3087  03D5  1803               	btfsc	3,0
  3088  03D6  0008               	return
  3089                           
  3090                           ;e2prom.c: 44: {
  3091                           ;e2prom.c: 45: AT24C02_Write_Byte(addr,data[i]);
  3092  03D7  0858               	movf	AT24C02_Write_Msg@i,w
  3093  03D8  0754               	addwf	AT24C02_Write_Msg@data,w
  3094  03D9  00D6               	movwf	??_AT24C02_Write_Msg
  3095  03DA  0084               	movwf	4
  3096  03DB  1383               	bcf	3,7	;select IRP bank0
  3097  03DC  0800               	movf	0,w
  3098  03DD  00D0               	movwf	?_AT24C02_Write_Byte
  3099  03DE  0857               	movf	AT24C02_Write_Msg@addr,w
  3100  03DF  25B7  118A         	fcall	_AT24C02_Write_Byte
  3101  03E1  3005               	movlw	5
  3102                           
  3103                           ;e2prom.c: 46: addr++;
  3104  03E2  0AD7               	incf	AT24C02_Write_Msg@addr,f
  3105                           
  3106                           ;e2prom.c: 47: soft_delay_ms(5);
  3107  03E3  00F3               	movwf	?_soft_delay_ms
  3108  03E4  01F4               	clrf	?_soft_delay_ms+1
  3109  03E5  255C  118A         	fcall	_soft_delay_ms
  3110  03E7  0AD8               	incf	AT24C02_Write_Msg@i,f
  3111  03E8  2BD3               	goto	l16300
  3112  03E9                     __end_of_AT24C02_Write_Msg:	
  3113  03E9                     __ptext1120:	
  3114 ;; =============== function _IIC_START ends ============
  3115                           
  3116                           
  3117 ;; *************** function _key_scan *****************
  3118 ;; Defined at:
  3119 ;;		line 28 in file "C:\Users\Andrew\Desktop\EleMatch\PAV03\FWSWES-PAV03-SWITCHES-PAN2416AV\src\key_scan.c"
  3120 ;; Parameters:    Size  Location     Type
  3121 ;;		None
  3122 ;; Auto vars:     Size  Location     Type
  3123 ;;		None
  3124 ;; Return value:  Size  Location     Type
  3125 ;;		None               void
  3126 ;; Registers used:
  3127 ;;		wreg, fsr0l, fsr0h, status,2, status,0, pclath, cstack
  3128 ;; Tracked objects:
  3129 ;;		On entry : 60/0
  3130 ;;		On exit  : 60/0
  3131 ;;		Unchanged: FFF9F/0
  3132 ;; Data sizes:     COMMON   BANK0   BANK1   BANK3   BANK2
  3133 ;;      Params:         0       0       0       0       0
  3134 ;;      Locals:         0       0       0       0       0
  3135 ;;      Temps:          0       0       0       0       0
  3136 ;;      Totals:         0       0       0       0       0
  3137 ;;Total ram usage:        0 bytes
  3138 ;; Hardware stack levels used:    1
  3139 ;; Hardware stack levels required when called:    3
  3140 ;; This function calls:
  3141 ;;		_soft_delay_ms
  3142 ;; This function is called by:
  3143 ;;		_key_value_read
  3144 ;; This function uses a non-reentrant model
  3145 ;;
  3146  03E9                     _key_scan:	
  3147                           
  3148                           ;key_scan.c: 29: if(RB1 == 0)
  3149                           
  3150                           ; Regs used in _key_scan: [wreg-fsr0h+status,2+status,0+pclath+cstack]
  3151  03E9  1886               	btfsc	6,1
  3152  03EA  2BFC               	goto	l7150
  3153                           
  3154                           ;key_scan.c: 30: {
  3155                           ;key_scan.c: 31: soft_delay_ms(10);
  3156  03EB  300A               	movlw	10
  3157  03EC  00F3               	movwf	?_soft_delay_ms
  3158  03ED  01F4               	clrf	?_soft_delay_ms+1
  3159  03EE  255C  118A         	fcall	_soft_delay_ms
  3160                           
  3161                           ;key_scan.c: 32: if(RB1 == 0)
  3162  03F0  1C86               	btfss	6,1
  3163                           
  3164                           ;key_scan.c: 33: if((KEY0_FLAG&0x01) == 0)
  3165  03F1  1876               	btfsc	_KEY0_FLAG,0
  3166  03F2  2C02               	goto	l14970
  3167                           
  3168                           ;key_scan.c: 34: {
  3169                           ;key_scan.c: 35: flag_time_key0_add = 0;
  3170  03F3  01B2               	clrf	_flag_time_key0_add
  3171  03F4  01B3               	clrf	_flag_time_key0_add+1
  3172                           
  3173                           ;key_scan.c: 36: KEY0_FLAG|=0X01;
  3174  03F5  1476               	bsf	_KEY0_FLAG,0
  3175                           
  3176                           ;key_scan.c: 37: if(key_long_flag_add == 0)
  3177  03F6  08FA               	movf	_key_long_flag_add,f
  3178  03F7  1D03               	skipz
  3179  03F8  2C02               	goto	l14970
  3180                           
  3181                           ;key_scan.c: 38: {
  3182                           ;key_scan.c: 39: key_long_flag_add = 1;
  3183  03F9  01FA               	clrf	_key_long_flag_add
  3184  03FA  0AFA               	incf	_key_long_flag_add,f
  3185  03FB  2C02               	goto	l14970
  3186  03FC                     l7150:	
  3187                           ;key_scan.c: 40: }
  3188                           ;key_scan.c: 41: }
  3189                           ;key_scan.c: 42: }
  3190                           
  3191                           
  3192                           ;key_scan.c: 43: else
  3193                           ;key_scan.c: 44: {
  3194                           ;key_scan.c: 45: if(KEY0_FLAG&0x01)
  3195  03FC  1C76               	btfss	_KEY0_FLAG,0
  3196  03FD  2C02               	goto	l14970
  3197                           
  3198                           ;key_scan.c: 46: {
  3199                           ;key_scan.c: 47: KEY0_FLAG |= 0X02;
  3200  03FE  14F6               	bsf	_KEY0_FLAG,1
  3201                           
  3202                           ;key_scan.c: 48: if(key_long_flag_add == 1)
  3203  03FF  0B7A               	decfsz	_key_long_flag_add,w
  3204  0400  2C02               	goto	l14970
  3205                           
  3206                           ;key_scan.c: 49: {
  3207                           ;key_scan.c: 50: key_long_flag_add = 0;
  3208  0401  01FA               	clrf	_key_long_flag_add
  3209  0402                     l14970:	
  3210                           
  3211                           ;key_scan.c: 51: }
  3212                           ;key_scan.c: 52: }
  3213                           ;key_scan.c: 53: }
  3214                           ;key_scan.c: 55: if(RB2 == 0)
  3215  0402  1906               	btfsc	6,2
  3216  0403  2C15               	goto	l7157
  3217                           
  3218                           ;key_scan.c: 56: {
  3219                           ;key_scan.c: 57: soft_delay_ms(10);
  3220  0404  300A               	movlw	10
  3221  0405  00F3               	movwf	?_soft_delay_ms
  3222  0406  01F4               	clrf	?_soft_delay_ms+1
  3223  0407  255C  118A         	fcall	_soft_delay_ms
  3224                           
  3225                           ;key_scan.c: 58: if(RB2 == 0)
  3226  0409  1D06               	btfss	6,2
  3227                           
  3228                           ;key_scan.c: 59: if((KEY1_FLAG&0x01) == 0)
  3229  040A  1877               	btfsc	_KEY1_FLAG,0
  3230  040B  2C1C               	goto	l14992
  3231                           
  3232                           ;key_scan.c: 60: {
  3233                           ;key_scan.c: 61: flag_time_key1_add = 0;
  3234  040C  01B4               	clrf	_flag_time_key1_add
  3235  040D  01B5               	clrf	_flag_time_key1_add+1
  3236                           
  3237                           ;key_scan.c: 62: KEY1_FLAG |= 0X01;
  3238  040E  1477               	bsf	_KEY1_FLAG,0
  3239                           
  3240                           ;key_scan.c: 63: if(key_long_flag_add == 0)
  3241  040F  08FA               	movf	_key_long_flag_add,f
  3242  0410  1D03               	skipz
  3243  0411  2C1C               	goto	l14992
  3244                           
  3245                           ;key_scan.c: 64: {
  3246                           ;key_scan.c: 65: key_long_flag_add = 2;
  3247  0412  3002               	movlw	2
  3248  0413  00FA               	movwf	_key_long_flag_add
  3249  0414  2C1C               	goto	l14992
  3250  0415                     l7157:	
  3251                           ;key_scan.c: 66: }
  3252                           ;key_scan.c: 67: }
  3253                           ;key_scan.c: 69: }
  3254                           
  3255                           
  3256                           ;key_scan.c: 70: else
  3257                           ;key_scan.c: 71: {
  3258                           ;key_scan.c: 72: if(KEY1_FLAG & 0x01)
  3259  0415  1C77               	btfss	_KEY1_FLAG,0
  3260  0416  2C1C               	goto	l14992
  3261                           
  3262                           ;key_scan.c: 73: {
  3263                           ;key_scan.c: 74: KEY1_FLAG |= 0X02;
  3264  0417  14F7               	bsf	_KEY1_FLAG,1
  3265                           
  3266                           ;key_scan.c: 75: if(key_long_flag_add == 2)
  3267  0418  087A               	movf	_key_long_flag_add,w
  3268  0419  3A02               	xorlw	2
  3269  041A  1903               	btfsc	3,2
  3270                           
  3271                           ;key_scan.c: 76: {
  3272                           ;key_scan.c: 77: key_long_flag_add = 0;
  3273  041B  01FA               	clrf	_key_long_flag_add
  3274  041C                     l14992:	
  3275                           
  3276                           ;key_scan.c: 78: }
  3277                           ;key_scan.c: 79: }
  3278                           ;key_scan.c: 80: }
  3279                           ;key_scan.c: 86: if(RB3 == 0)
  3280  041C  1986               	btfsc	6,3
  3281  041D  2C2F               	goto	l7164
  3282                           
  3283                           ;key_scan.c: 87: {
  3284                           ;key_scan.c: 88: soft_delay_ms(10);
  3285  041E  300A               	movlw	10
  3286  041F  00F3               	movwf	?_soft_delay_ms
  3287  0420  01F4               	clrf	?_soft_delay_ms+1
  3288  0421  255C  118A         	fcall	_soft_delay_ms
  3289                           
  3290                           ;key_scan.c: 89: if(RB3 == 0)
  3291  0423  1D86               	btfss	6,3
  3292                           
  3293                           ;key_scan.c: 90: if((KEY2_FLAG&0x01) == 0)
  3294  0424  1878               	btfsc	_KEY2_FLAG,0
  3295  0425  2C47               	goto	l15022
  3296                           
  3297                           ;key_scan.c: 91: {
  3298                           ;key_scan.c: 92: flag_time_key2_add = 0;
  3299  0426  01B6               	clrf	_flag_time_key2_add
  3300  0427  01B7               	clrf	_flag_time_key2_add+1
  3301                           
  3302                           ;key_scan.c: 93: KEY2_FLAG|=0X01;
  3303  0428  1478               	bsf	_KEY2_FLAG,0
  3304                           
  3305                           ;key_scan.c: 94: if(key_long_flag_add == 0)
  3306  0429  08FA               	movf	_key_long_flag_add,f
  3307  042A  1D03               	skipz
  3308  042B  2C47               	goto	l15022
  3309                           
  3310                           ;key_scan.c: 95: {
  3311                           ;key_scan.c: 96: key_long_flag_add = 4;
  3312  042C  3004               	movlw	4
  3313  042D  00FA               	movwf	_key_long_flag_add
  3314  042E  2C47               	goto	l15022
  3315  042F                     l7164:	
  3316                           
  3317                           ;key_scan.c: 100: else
  3318                           ;key_scan.c: 101: {
  3319                           ;key_scan.c: 102: if(KEY2_FLAG & 0x01)
  3320  042F  1C78               	btfss	_KEY2_FLAG,0
  3321  0430  2C47               	goto	l15022
  3322                           
  3323                           ;key_scan.c: 103: {
  3324                           ;key_scan.c: 104: KEY2_FLAG |= 0X02;
  3325  0431  14F8               	bsf	_KEY2_FLAG,1
  3326                           
  3327                           ;key_scan.c: 105: if(key_long_flag_add == 4)
  3328  0432  087A               	movf	_key_long_flag_add,w
  3329  0433  3A04               	xorlw	4
  3330  0434  1D03               	skipz
  3331  0435  2C47               	goto	l15022
  3332                           
  3333                           ;key_scan.c: 106: {
  3334                           ;key_scan.c: 107: key_long_flag_add = 0;
  3335  0436  01FA               	clrf	_key_long_flag_add
  3336  0437  2C47               	goto	l15022
  3337  0438                     l15014:	
  3338                           ;key_scan.c: 108: }
  3339                           ;key_scan.c: 109: }
  3340                           ;key_scan.c: 110: }
  3341                           ;key_scan.c: 113: switch(key_long_flag_add)
  3342                           
  3343                           
  3344                           ;key_scan.c: 120: {
  3345                           ;key_scan.c: 121: flag_time_key1_add = 0;
  3346  0438  01B4               	clrf	_flag_time_key1_add
  3347  0439  01B5               	clrf	_flag_time_key1_add+1
  3348                           
  3349                           ;key_scan.c: 122: flag_time_key2_add = 0;
  3350  043A  01B6               	clrf	_flag_time_key2_add
  3351  043B  01B7               	clrf	_flag_time_key2_add+1
  3352                           
  3353                           ;key_scan.c: 123: }break;
  3354  043C  0008               	return
  3355  043D                     l15016:	
  3356                           
  3357                           ;key_scan.c: 125: {
  3358                           ;key_scan.c: 126: flag_time_key0_add = 0;
  3359  043D  01B2               	clrf	_flag_time_key0_add
  3360  043E  01B3               	clrf	_flag_time_key0_add+1
  3361                           
  3362                           ;key_scan.c: 127: flag_time_key2_add = 0;
  3363  043F  01B6               	clrf	_flag_time_key2_add
  3364  0440  01B7               	clrf	_flag_time_key2_add+1
  3365                           
  3366                           ;key_scan.c: 128: }break;
  3367  0441  0008               	return
  3368  0442                     l15018:	
  3369                           
  3370                           ;key_scan.c: 130: {
  3371                           ;key_scan.c: 131: flag_time_key0_add = 0;
  3372  0442  01B2               	clrf	_flag_time_key0_add
  3373  0443  01B3               	clrf	_flag_time_key0_add+1
  3374                           
  3375                           ;key_scan.c: 132: flag_time_key1_add = 0;
  3376  0444  01B4               	clrf	_flag_time_key1_add
  3377  0445  01B5               	clrf	_flag_time_key1_add+1
  3378                           
  3379                           ;key_scan.c: 133: }break;
  3380  0446  0008               	return
  3381  0447                     l15022:	
  3382  0447  087A               	movf	_key_long_flag_add,w
  3383                           
  3384                           ; Switch size 1, requested type "space"
  3385                           ; Number of cases is 4, Range of values is 0 to 4
  3386                           ; switch strategies available:
  3387                           ; Name         Instructions Cycles
  3388                           ; simple_byte           13     7 (average)
  3389                           ; direct_byte           17     7 (fixed)
  3390                           ; jumptable            260     6 (fixed)
  3391                           ; rangetable             9     6 (fixed)
  3392                           ; spacedrange           16     9 (fixed)
  3393                           ; locatedrange           5     3 (fixed)
  3394                           ;	Chosen strategy is simple_byte
  3395  0448  3A00               	xorlw	0	; case 0
  3396  0449  1903               	skipnz
  3397  044A  2C55               	goto	l7177
  3398  044B  3A01               	xorlw	1	; case 1
  3399  044C  1903               	skipnz
  3400  044D  2C38               	goto	l15014
  3401  044E  3A03               	xorlw	3	; case 2
  3402  044F  1903               	skipnz
  3403  0450  2C3D               	goto	l15016
  3404  0451  3A06               	xorlw	6	; case 4
  3405  0452  1903               	skipnz
  3406  0453  2C42               	goto	l15018
  3407  0454  2C55               	goto	l7177
  3408  0455                     l7177:	
  3409  0455  0008               	return
  3410  0456                     __end_of_key_scan:	
  3411  0456                     __ptext1111:	
  3412 ;; =============== function _RF_GetStatus ends ============
  3413                           
  3414                           
  3415 ;; *************** function _key_value_read *****************
  3416 ;; Defined at:
  3417 ;;		line 141 in file "C:\Users\Andrew\Desktop\EleMatch\PAV03\FWSWES-PAV03-SWITCHES-PAN2416AV\src\key_scan.c"
  3418 ;; Parameters:    Size  Location     Type
  3419 ;;		None
  3420 ;; Auto vars:     Size  Location     Type
  3421 ;;		None
  3422 ;; Return value:  Size  Location     Type
  3423 ;;		None               void
  3424 ;; Registers used:
  3425 ;;		wreg, fsr0l, fsr0h, status,2, status,0, pclath, cstack
  3426 ;; Tracked objects:
  3427 ;;		On entry : 60/0
  3428 ;;		On exit  : 60/0
  3429 ;;		Unchanged: FFF9F/0
  3430 ;; Data sizes:     COMMON   BANK0   BANK1   BANK3   BANK2
  3431 ;;      Params:         0       0       0       0       0
  3432 ;;      Locals:         0       0       0       0       0
  3433 ;;      Temps:          0       0       0       0       0
  3434 ;;      Totals:         0       0       0       0       0
  3435 ;;Total ram usage:        0 bytes
  3436 ;; Hardware stack levels used:    1
  3437 ;; Hardware stack levels required when called:    4
  3438 ;; This function calls:
  3439 ;;		_key_scan
  3440 ;;		_soft_delay_ms
  3441 ;; This function is called by:
  3442 ;;		_main
  3443 ;; This function uses a non-reentrant model
  3444 ;;
  3445  0456                     _key_value_read:	
  3446                           
  3447                           ;key_scan.c: 142: key_scan();
  3448                           
  3449                           ; Regs used in _key_value_read: [wreg-fsr0h+status,2+status,0+pclath+cstack]
  3450  0456  23E9  118A         	fcall	_key_scan
  3451                           
  3452                           ;key_scan.c: 143: if(KEY0_FLAG == 0x01)
  3453  0458  0B76               	decfsz	_KEY0_FLAG,w
  3454  0459  2C81               	goto	l15200
  3455                           
  3456                           ;key_scan.c: 144: {
  3457                           ;key_scan.c: 146: if(flag_time_key0_add >= 500)
  3458  045A  3001               	movlw	1
  3459  045B  0233               	subwf	_flag_time_key0_add+1,w
  3460  045C  30F4               	movlw	244
  3461  045D  1903               	skipnz
  3462  045E  0232               	subwf	_flag_time_key0_add,w
  3463  045F  1C03               	skipc
  3464  0460  2C74               	goto	l15188
  3465                           
  3466                           ;key_scan.c: 147: {
  3467                           ;key_scan.c: 148: if(key_long_flag == 0x01)
  3468  0461  0B79               	decfsz	_key_long_flag,w
  3469  0462  2CAC               	goto	l7186
  3470                           
  3471                           ;key_scan.c: 149: {
  3472                           ;key_scan.c: 150: key_long_flag = 0x10;
  3473  0463  3010               	movlw	16
  3474  0464  00F9               	movwf	_key_long_flag
  3475                           
  3476                           ;key_scan.c: 151: (TRISC0=0,RC0=0);
  3477                           
  3478                           ;key_scan.c: 152: soft_delay_ms(100);
  3479  0465  2657  118A         	fcall	PL2	;call to abstracted procedure
  3480  0467  255C  118A         	fcall	_soft_delay_ms
  3481                           
  3482                           ;key_scan.c: 153: (TRISC0=0,RC0=1);
  3483                           
  3484                           ;key_scan.c: 154: soft_delay_ms(100);
  3485  0469  265F  118A         	fcall	PL3	;call to abstracted procedure
  3486  046B  255C  118A         	fcall	_soft_delay_ms
  3487  046D                     L3:	
  3488                           
  3489                           ;key_scan.c: 155: (TRISC0=0,RC0=0);
  3490                           
  3491                           ;key_scan.c: 156: soft_delay_ms(100);
  3492  046D  2657  118A         	fcall	PL2	;call to abstracted procedure
  3493  046F  255C  118A         	fcall	_soft_delay_ms
  3494                           
  3495                           ;key_scan.c: 157: (TRISC0=0,RC0=1);
  3496  0471  2667  118A         	fcall	PL4	;call to abstracted procedure
  3497                           
  3498                           ;key_scan.c: 158: }
  3499                           ;key_scan.c: 159: }
  3500  0473  2CAC               	goto	l7186
  3501  0474                     l15188:	
  3502                           
  3503                           ;key_scan.c: 160: else if(flag_time_key0_add >= 300)
  3504  0474  3001               	movlw	1
  3505  0475  0233               	subwf	_flag_time_key0_add+1,w
  3506  0476  302C               	movlw	44
  3507  0477  1903               	skipnz
  3508  0478  0232               	subwf	_flag_time_key0_add,w
  3509  0479  1C03               	skipc
  3510  047A  2CAC               	goto	l7186
  3511                           
  3512                           ;key_scan.c: 161: {
  3513                           ;key_scan.c: 162: if(key_long_flag == 0)
  3514  047B  08F9               	movf	_key_long_flag,f
  3515  047C  1D03               	skipz
  3516  047D  2CAC               	goto	l7186
  3517                           
  3518                           ;key_scan.c: 163: {
  3519                           ;key_scan.c: 164: key_long_flag = 0x01;
  3520  047E  01F9               	clrf	_key_long_flag
  3521  047F  0AF9               	incf	_key_long_flag,f
  3522  0480  2C6D               	goto	L3
  3523  0481                     l15200:	
  3524                           ;key_scan.c: 165: (TRISC0=0,RC0=0);
  3525                           
  3526                           
  3527                           ;key_scan.c: 173: else if(KEY0_FLAG == 0x03)
  3528  0481  0876               	movf	_KEY0_FLAG,w
  3529  0482  3A03               	xorlw	3
  3530  0483  1D03               	skipz
  3531  0484  2CAC               	goto	l7186
  3532  0485  3001               	movlw	1
  3533                           
  3534                           ;key_scan.c: 174: {
  3535                           ;key_scan.c: 175: KEY0_FLAG = 0;
  3536  0486  01F6               	clrf	_KEY0_FLAG
  3537                           
  3538                           ;key_scan.c: 177: if((flag_time_key0_add < 300))
  3539  0487  0233               	subwf	_flag_time_key0_add+1,w
  3540  0488  302C               	movlw	44
  3541  0489  1903               	skipnz
  3542  048A  0232               	subwf	_flag_time_key0_add,w
  3543                           
  3544                           ;key_scan.c: 178: {
  3545                           ;key_scan.c: 179: KEY0.channel_status ^= 1;
  3546  048B  3001               	movlw	1
  3547  048C  1803               	skipnc
  3548  048D  2C90               	goto	L7
  3549  048E  06A0               	xorwf	_KEY0,f
  3550                           
  3551                           ;key_scan.c: 180: }
  3552  048F  2CAC               	goto	l7186
  3553  0490                     L7:	
  3554                           ;key_scan.c: 181: else if(flag_time_key0_add < 500)
  3555                           
  3556  0490  0233               	subwf	_flag_time_key0_add+1,w
  3557  0491  30F4               	movlw	244
  3558  0492  1903               	skipnz
  3559  0493  0232               	subwf	_flag_time_key0_add,w
  3560  0494  1803               	skipnc
  3561  0495  2C9E               	goto	l15220
  3562                           
  3563                           ;key_scan.c: 182: {
  3564                           ;key_scan.c: 183: if(key_long_flag == 0x01)
  3565  0496  0B79               	decfsz	_key_long_flag,w
  3566  0497  2CAC               	goto	l7186
  3567  0498  3011               	movlw	17
  3568                           
  3569                           ;key_scan.c: 184: {
  3570                           ;key_scan.c: 185: KEY0.key_flag_3s = 1;
  3571  0499  01A1               	clrf	_KEY0+1
  3572  049A  0AA1               	incf	_KEY0+1,f
  3573                           
  3574                           ;key_scan.c: 186: key_long_flag = 0x11;
  3575  049B  00F9               	movwf	_key_long_flag
  3576                           
  3577                           ;key_scan.c: 187: sys_stute = 2;
  3578  049C  3002               	movlw	2
  3579  049D  2CA7               	goto	L5
  3580  049E                     l15220:	
  3581                           
  3582                           ;key_scan.c: 192: else
  3583                           ;key_scan.c: 193: {
  3584                           ;key_scan.c: 194: if(key_long_flag == 0x10)
  3585  049E  0879               	movf	_key_long_flag,w
  3586  049F  3A10               	xorlw	16
  3587  04A0  1D03               	skipz
  3588  04A1  2CAC               	goto	l7186
  3589  04A2  3011               	movlw	17
  3590                           
  3591                           ;key_scan.c: 195: {
  3592                           ;key_scan.c: 196: KEY0.key_flag_5s = 1;
  3593  04A3  01A2               	clrf	_KEY0+2
  3594  04A4  0AA2               	incf	_KEY0+2,f
  3595                           
  3596                           ;key_scan.c: 197: key_long_flag = 0x11;
  3597  04A5  00F9               	movwf	_key_long_flag
  3598                           
  3599                           ;key_scan.c: 198: sys_stute = 3;
  3600  04A6  3003               	movlw	3
  3601  04A7                     L5:	
  3602  04A7  00EF               	movwf	_sys_stute
  3603                           
  3604                           ;key_scan.c: 188: flag_time_key1_add = 0;
  3605  04A8  01B4               	clrf	_flag_time_key1_add
  3606  04A9  01B5               	clrf	_flag_time_key1_add+1
  3607                           
  3608                           ;key_scan.c: 189: flag_time_key2_add = 0;
  3609  04AA  01B6               	clrf	_flag_time_key2_add
  3610  04AB  01B7               	clrf	_flag_time_key2_add+1
  3611  04AC                     l7186:	
  3612                           
  3613                           ;key_scan.c: 201: }
  3614                           ;key_scan.c: 202: }
  3615                           ;key_scan.c: 204: }
  3616                           ;key_scan.c: 207: if(KEY1_FLAG == 0x01)
  3617  04AC  0B77               	decfsz	_KEY1_FLAG,w
  3618  04AD  2CD7               	goto	l15274
  3619                           
  3620                           ;key_scan.c: 208: {
  3621                           ;key_scan.c: 209: if(flag_time_key1_add >= 500)
  3622  04AE  3001               	movlw	1
  3623  04AF  0235               	subwf	_flag_time_key1_add+1,w
  3624  04B0  30F4               	movlw	244
  3625  04B1  1903               	skipnz
  3626  04B2  0234               	subwf	_flag_time_key1_add,w
  3627  04B3  1C03               	skipc
  3628  04B4  2CCA               	goto	l15258
  3629                           
  3630                           ;key_scan.c: 210: {
  3631                           ;key_scan.c: 211: if(key_long_flag == 0x02)
  3632  04B5  0879               	movf	_key_long_flag,w
  3633  04B6  3A02               	xorlw	2
  3634  04B7  1D03               	skipz
  3635  04B8  2D03               	goto	l7200
  3636                           
  3637                           ;key_scan.c: 212: {
  3638                           ;key_scan.c: 213: key_long_flag = 0x20;
  3639  04B9  3020               	movlw	32
  3640  04BA  00F9               	movwf	_key_long_flag
  3641                           
  3642                           ;key_scan.c: 214: (TRISC0=0,RC0=0);
  3643                           
  3644                           ;key_scan.c: 215: soft_delay_ms(100);
  3645  04BB  2657  118A         	fcall	PL2	;call to abstracted procedure
  3646  04BD  255C  118A         	fcall	_soft_delay_ms
  3647                           
  3648                           ;key_scan.c: 216: (TRISC0=0,RC0=1);
  3649                           
  3650                           ;key_scan.c: 217: soft_delay_ms(100);
  3651  04BF  265F  118A         	fcall	PL3	;call to abstracted procedure
  3652  04C1  255C  118A         	fcall	_soft_delay_ms
  3653  04C3                     l15248:	
  3654                           
  3655                           ;key_scan.c: 218: (TRISC0=0,RC0=0);
  3656                           
  3657                           ;key_scan.c: 219: soft_delay_ms(100);
  3658  04C3  2657  118A         	fcall	PL2	;call to abstracted procedure
  3659  04C5  255C  118A         	fcall	_soft_delay_ms
  3660                           
  3661                           ;key_scan.c: 220: (TRISC0=0,RC0=1);
  3662  04C7  2667  118A         	fcall	PL4	;call to abstracted procedure
  3663                           
  3664                           ;key_scan.c: 221: }
  3665                           ;key_scan.c: 222: }
  3666  04C9  2D03               	goto	l7200
  3667  04CA                     l15258:	
  3668                           
  3669                           ;key_scan.c: 223: else if(flag_time_key1_add >= 300)
  3670  04CA  3001               	movlw	1
  3671  04CB  0235               	subwf	_flag_time_key1_add+1,w
  3672  04CC  302C               	movlw	44
  3673  04CD  1903               	skipnz
  3674  04CE  0234               	subwf	_flag_time_key1_add,w
  3675  04CF  1C03               	skipc
  3676  04D0  2D03               	goto	l7200
  3677                           
  3678                           ;key_scan.c: 224: {
  3679                           ;key_scan.c: 225: if(key_long_flag == 0)
  3680  04D1  08F9               	movf	_key_long_flag,f
  3681  04D2  1D03               	skipz
  3682  04D3  2D03               	goto	l7200
  3683                           
  3684                           ;key_scan.c: 226: {
  3685                           ;key_scan.c: 227: key_long_flag = 0x02;
  3686  04D4  3002               	movlw	2
  3687  04D5  00F9               	movwf	_key_long_flag
  3688  04D6  2CC3               	goto	l15248
  3689  04D7                     l15274:	
  3690                           
  3691                           ;key_scan.c: 235: else if(KEY1_FLAG == 0x03)
  3692  04D7  0877               	movf	_KEY1_FLAG,w
  3693  04D8  3A03               	xorlw	3
  3694  04D9  1D03               	skipz
  3695  04DA  2D03               	goto	l7200
  3696  04DB  3001               	movlw	1
  3697                           
  3698                           ;key_scan.c: 236: {
  3699                           ;key_scan.c: 237: KEY1_FLAG = 0;
  3700  04DC  01F7               	clrf	_KEY1_FLAG
  3701                           
  3702                           ;key_scan.c: 238: if((flag_time_key1_add < 300))
  3703  04DD  0235               	subwf	_flag_time_key1_add+1,w
  3704  04DE  302C               	movlw	44
  3705  04DF  1903               	skipnz
  3706  04E0  0234               	subwf	_flag_time_key1_add,w
  3707                           
  3708                           ;key_scan.c: 239: {
  3709                           ;key_scan.c: 240: KEY1.channel_status ^= 1;
  3710  04E1  3001               	movlw	1
  3711  04E2  1803               	skipnc
  3712  04E3  2CE6               	goto	L8
  3713  04E4  06A3               	xorwf	_KEY1,f
  3714                           
  3715                           ;key_scan.c: 241: }
  3716  04E5  2D03               	goto	l7200
  3717  04E6                     L8:	
  3718                           ;key_scan.c: 242: else if(flag_time_key1_add < 500)
  3719                           
  3720  04E6  0235               	subwf	_flag_time_key1_add+1,w
  3721  04E7  30F4               	movlw	244
  3722  04E8  1903               	skipnz
  3723  04E9  0234               	subwf	_flag_time_key1_add,w
  3724                           
  3725                           ;key_scan.c: 243: {
  3726                           ;key_scan.c: 244: if(key_long_flag == 0x02)
  3727  04EA  0879               	movf	_key_long_flag,w
  3728  04EB  1803               	skipnc
  3729  04EC  2CF6               	goto	L9
  3730  04ED  3A02               	xorlw	2
  3731  04EE  1D03               	skipz
  3732  04EF  2D03               	goto	l7200
  3733  04F0  3021               	movlw	33
  3734                           
  3735                           ;key_scan.c: 245: {
  3736                           ;key_scan.c: 246: KEY1.key_flag_3s = 1;
  3737  04F1  01A4               	clrf	_KEY1+1
  3738  04F2  0AA4               	incf	_KEY1+1,f
  3739                           
  3740                           ;key_scan.c: 247: key_long_flag = 0x21;
  3741  04F3  00F9               	movwf	_key_long_flag
  3742                           
  3743                           ;key_scan.c: 248: sys_stute = 2;
  3744  04F4  3002               	movlw	2
  3745  04F5  2CFE               	goto	L6
  3746  04F6                     L9:	
  3747                           ;key_scan.c: 253: else
  3748                           ;key_scan.c: 254: {
  3749                           ;key_scan.c: 255: if(key_long_flag == 0x20)
  3750                           
  3751  04F6  3A20               	xorlw	32
  3752  04F7  1D03               	skipz
  3753  04F8  2D03               	goto	l7200
  3754  04F9  3021               	movlw	33
  3755                           
  3756                           ;key_scan.c: 256: {
  3757                           ;key_scan.c: 257: KEY1.key_flag_5s = 1;
  3758  04FA  01A5               	clrf	_KEY1+2
  3759  04FB  0AA5               	incf	_KEY1+2,f
  3760                           
  3761                           ;key_scan.c: 258: key_long_flag = 0x21;
  3762  04FC  00F9               	movwf	_key_long_flag
  3763                           
  3764                           ;key_scan.c: 259: sys_stute = 3;
  3765  04FD  3003               	movlw	3
  3766  04FE                     L6:	
  3767  04FE  00EF               	movwf	_sys_stute
  3768                           
  3769                           ;key_scan.c: 249: flag_time_key2_add = 0;
  3770  04FF  01B6               	clrf	_flag_time_key2_add
  3771  0500  01B7               	clrf	_flag_time_key2_add+1
  3772                           
  3773                           ;key_scan.c: 250: flag_time_key0_add = 0;
  3774  0501  01B2               	clrf	_flag_time_key0_add
  3775  0502  01B3               	clrf	_flag_time_key0_add+1
  3776  0503                     l7200:	
  3777                           
  3778                           ;key_scan.c: 262: }
  3779                           ;key_scan.c: 263: }
  3780                           ;key_scan.c: 264: }
  3781                           ;key_scan.c: 267: if(KEY2_FLAG == 0x01)
  3782  0503  0B78               	decfsz	_KEY2_FLAG,w
  3783  0504  2D2F               	goto	l15348
  3784                           
  3785                           ;key_scan.c: 268: {
  3786                           ;key_scan.c: 269: if(flag_time_key2_add >= 500)
  3787  0505  3001               	movlw	1
  3788  0506  0237               	subwf	_flag_time_key2_add+1,w
  3789  0507  30F4               	movlw	244
  3790  0508  1903               	skipnz
  3791  0509  0236               	subwf	_flag_time_key2_add,w
  3792  050A  1C03               	skipc
  3793  050B  2D22               	goto	l15332
  3794                           
  3795                           ;key_scan.c: 270: {
  3796                           ;key_scan.c: 271: if(key_long_flag == 0x04)
  3797  050C  0879               	movf	_key_long_flag,w
  3798  050D  3A04               	xorlw	4
  3799  050E  1D03               	skipz
  3800  050F  0008               	return
  3801                           
  3802                           ;key_scan.c: 272: {
  3803                           ;key_scan.c: 273: key_long_flag = 0x40;
  3804  0510  3040               	movlw	64
  3805  0511  00F9               	movwf	_key_long_flag
  3806                           
  3807                           ;key_scan.c: 274: (TRISC0=0,RC0=0);
  3808                           
  3809                           ;key_scan.c: 275: soft_delay_ms(100);
  3810  0512  2657  118A         	fcall	PL2	;call to abstracted procedure
  3811  0514  255C  118A         	fcall	_soft_delay_ms
  3812                           
  3813                           ;key_scan.c: 276: (TRISC0=0,RC0=1);
  3814                           
  3815                           ;key_scan.c: 277: soft_delay_ms(100);
  3816  0516  265F  118A         	fcall	PL3	;call to abstracted procedure
  3817  0518  255C  118A         	fcall	_soft_delay_ms
  3818  051A                     l15322:	
  3819                           
  3820                           ;key_scan.c: 278: (TRISC0=0,RC0=0);
  3821                           
  3822                           ;key_scan.c: 279: soft_delay_ms(100);
  3823  051A  2657  118A         	fcall	PL2	;call to abstracted procedure
  3824  051C  255C               	fcall	_soft_delay_ms
  3825                           
  3826                           ;key_scan.c: 280: (TRISC0=0,RC0=1);
  3827  051D  1683               	bsf	3,5	;RP0=1, select bank1
  3828  051E  1007               	bcf	7,0
  3829  051F  1283               	bcf	3,5	;RP0=0, select bank0
  3830  0520  1407               	bsf	7,0
  3831  0521  0008               	return
  3832  0522                     l15332:	
  3833                           
  3834                           ;key_scan.c: 283: else if(flag_time_key2_add >= 300)
  3835  0522  3001               	movlw	1
  3836  0523  0237               	subwf	_flag_time_key2_add+1,w
  3837  0524  302C               	movlw	44
  3838  0525  1903               	skipnz
  3839  0526  0236               	subwf	_flag_time_key2_add,w
  3840  0527  1C03               	skipc
  3841  0528  0008               	return
  3842                           
  3843                           ;key_scan.c: 284: {
  3844                           ;key_scan.c: 285: if(key_long_flag == 0)
  3845  0529  08F9               	movf	_key_long_flag,f
  3846  052A  1D03               	skipz
  3847  052B  0008               	return
  3848                           
  3849                           ;key_scan.c: 286: {
  3850                           ;key_scan.c: 287: key_long_flag = 0x04;
  3851  052C  3004               	movlw	4
  3852  052D  00F9               	movwf	_key_long_flag
  3853  052E  2D1A               	goto	l15322
  3854  052F                     l15348:	
  3855                           ;key_scan.c: 291: }
  3856                           ;key_scan.c: 292: }
  3857                           ;key_scan.c: 293: }
  3858                           
  3859                           
  3860                           ;key_scan.c: 294: else if(KEY2_FLAG == 0x03)
  3861  052F  0878               	movf	_KEY2_FLAG,w
  3862  0530  3A03               	xorlw	3
  3863  0531  1D03               	skipz
  3864  0532  0008               	return
  3865  0533  3001               	movlw	1
  3866                           
  3867                           ;key_scan.c: 295: {
  3868                           ;key_scan.c: 296: KEY2_FLAG = 0;
  3869  0534  01F8               	clrf	_KEY2_FLAG
  3870                           
  3871                           ;key_scan.c: 297: if((flag_time_key2_add < 300))
  3872  0535  0237               	subwf	_flag_time_key2_add+1,w
  3873  0536  302C               	movlw	44
  3874  0537  1903               	skipnz
  3875  0538  0236               	subwf	_flag_time_key2_add,w
  3876                           
  3877                           ;key_scan.c: 298: {
  3878                           ;key_scan.c: 299: KEY2.channel_status ^= 1;
  3879  0539  3001               	movlw	1
  3880  053A  1803               	skipnc
  3881  053B  2D3E               	goto	L10
  3882  053C  06A6               	xorwf	_KEY2,f
  3883                           
  3884                           ;key_scan.c: 300: }
  3885  053D  0008               	return
  3886  053E                     L10:	
  3887                           ;key_scan.c: 301: else if(flag_time_key2_add < 500)
  3888                           
  3889  053E  0237               	subwf	_flag_time_key2_add+1,w
  3890  053F  30F4               	movlw	244
  3891  0540  1903               	skipnz
  3892  0541  0236               	subwf	_flag_time_key2_add,w
  3893                           
  3894                           ;key_scan.c: 302: {
  3895                           ;key_scan.c: 303: if(key_long_flag == 0x04)
  3896  0542  0879               	movf	_key_long_flag,w
  3897  0543  1803               	skipnc
  3898  0544  2D53               	goto	L11
  3899  0545  3A04               	xorlw	4
  3900  0546  1D03               	skipz
  3901  0547  0008               	return
  3902  0548  3041               	movlw	65
  3903                           
  3904                           ;key_scan.c: 304: {
  3905                           ;key_scan.c: 305: KEY2.key_flag_3s = 1;
  3906  0549  01A7               	clrf	_KEY2+1
  3907  054A  0AA7               	incf	_KEY2+1,f
  3908                           
  3909                           ;key_scan.c: 306: key_long_flag = 0x41;
  3910  054B  00F9               	movwf	_key_long_flag
  3911                           
  3912                           ;key_scan.c: 307: sys_stute = 2;
  3913  054C  3002               	movlw	2
  3914  054D                     L4:	
  3915  054D  00EF               	movwf	_sys_stute
  3916                           
  3917                           ;key_scan.c: 308: flag_time_key1_add = 0;
  3918  054E  01B4               	clrf	_flag_time_key1_add
  3919  054F  01B5               	clrf	_flag_time_key1_add+1
  3920                           
  3921                           ;key_scan.c: 309: flag_time_key0_add = 0;
  3922  0550  01B2               	clrf	_flag_time_key0_add
  3923  0551  01B3               	clrf	_flag_time_key0_add+1
  3924  0552  0008               	return
  3925  0553                     L11:	
  3926                           ;key_scan.c: 313: else
  3927                           ;key_scan.c: 314: {
  3928                           ;key_scan.c: 315: if(key_long_flag == 0x40)
  3929                           
  3930  0553  3A40               	xorlw	64
  3931  0554  1D03               	skipz
  3932  0555  0008               	return
  3933  0556  3041               	movlw	65
  3934                           
  3935                           ;key_scan.c: 316: {
  3936                           ;key_scan.c: 317: KEY2.key_flag_5s = 1;
  3937  0557  01A8               	clrf	_KEY2+2
  3938  0558  0AA8               	incf	_KEY2+2,f
  3939                           
  3940                           ;key_scan.c: 318: key_long_flag = 0x41;
  3941  0559  00F9               	movwf	_key_long_flag
  3942                           
  3943                           ;key_scan.c: 319: sys_stute = 3;
  3944  055A  3003               	movlw	3
  3945  055B  2D4D               	goto	L4
  3946  055C                     __end_of_key_value_read:	
  3947  055C                     __ptext1137:	
  3948 ;; =============== function _IIC_Init ends ============
  3949                           
  3950                           
  3951 ;; *************** function _soft_delay_ms *****************
  3952 ;; Defined at:
  3953 ;;		line 10 in file "C:\Users\Andrew\Desktop\EleMatch\PAV03\FWSWES-PAV03-SWITCHES-PAN2416AV\src\delay.c"
  3954 ;; Parameters:    Size  Location     Type
  3955 ;;  ms              2    3[COMMON] unsigned int 
  3956 ;; Auto vars:     Size  Location     Type
  3957 ;;  i               2    0[BANK0 ] volatile unsigned int 
  3958 ;;  k               1    3[BANK0 ] volatile unsigned char 
  3959 ;;  j               1    2[BANK0 ] volatile unsigned char 
  3960 ;; Return value:  Size  Location     Type
  3961 ;;		None               void
  3962 ;; Registers used:
  3963 ;;		wreg, status,2, status,0
  3964 ;; Tracked objects:
  3965 ;;		On entry : 40/20
  3966 ;;		On exit  : 60/0
  3967 ;;		Unchanged: FFF9F/0
  3968 ;; Data sizes:     COMMON   BANK0   BANK1   BANK3   BANK2
  3969 ;;      Params:         2       0       0       0       0
  3970 ;;      Locals:         0       4       0       0       0
  3971 ;;      Temps:          0       0       0       0       0
  3972 ;;      Totals:         2       4       0       0       0
  3973 ;;Total ram usage:        6 bytes
  3974 ;; Hardware stack levels used:    1
  3975 ;; Hardware stack levels required when called:    2
  3976 ;; This function calls:
  3977 ;;		Nothing
  3978 ;; This function is called by:
  3979 ;;		_main
  3980 ;;		_RF_Set_RxMode
  3981 ;;		_key_scan
  3982 ;;		_key_value_read
  3983 ;;		_recive_task
  3984 ;;		_AT24C02_Write_Msg
  3985 ;;		_AT24C02_Read_Msg
  3986 ;; This function uses a non-reentrant model
  3987 ;;
  3988  055C                     _soft_delay_ms:	
  3989  055C                     l14676:	
  3990                           ; Regs used in _soft_delay_ms: [wreg+status,2+status,0]
  3991                           
  3992                           
  3993                           ;delay.c: 12: volatile unsigned int i;
  3994                           ;delay.c: 13: volatile unsigned char j,k;
  3995                           ;delay.c: 14: for(i=0;i<ms;i++){
  3996  055C  1283               	bcf	3,5	;RP0=0, select bank0
  3997  055D  01D0               	clrf	soft_delay_ms@i	;volatile
  3998  055E  01D1               	clrf	soft_delay_ms@i+1	;volatile
  3999  055F                     l14700:	
  4000  055F  0874               	movf	soft_delay_ms@ms+1,w
  4001  0560  0251               	subwf	soft_delay_ms@i+1,w	;volatile
  4002  0561  1D03               	skipz
  4003  0562  2D65               	goto	u1905
  4004  0563  0873               	movf	soft_delay_ms@ms,w
  4005  0564  0250               	subwf	soft_delay_ms@i,w	;volatile
  4006  0565                     u1905:	
  4007  0565  1803               	btfsc	3,0
  4008  0566  0008               	return
  4009                           
  4010                           ;delay.c: 15: for(j=0;j<10;j++){
  4011  0567  01D2               	clrf	soft_delay_ms@j	;volatile
  4012  0568                     l14680:	
  4013  0568  300A               	movlw	10
  4014  0569  0252               	subwf	soft_delay_ms@j,w	;volatile
  4015  056A  1803               	btfsc	3,0
  4016  056B  2D75               	goto	l14698
  4017                           
  4018                           ;delay.c: 16: for(k=0;k<32;k++);
  4019  056C  01D3               	clrf	soft_delay_ms@k	;volatile
  4020  056D                     l14686:	
  4021  056D  3020               	movlw	32
  4022  056E  0253               	subwf	soft_delay_ms@k,w	;volatile
  4023  056F  1803               	btfsc	3,0
  4024  0570  2D73               	goto	l14694
  4025  0571  0AD3               	incf	soft_delay_ms@k,f	;volatile
  4026  0572  2D6D               	goto	l14686
  4027  0573                     l14694:	
  4028  0573  0AD2               	incf	soft_delay_ms@j,f	;volatile
  4029  0574  2D68               	goto	l14680
  4030  0575                     l14698:	
  4031  0575  0AD0               	incf	soft_delay_ms@i,f	;volatile
  4032  0576  1903               	skipnz
  4033  0577  0AD1               	incf	soft_delay_ms@i+1,f	;volatile
  4034  0578  2D5F               	goto	l14700
  4035  0579                     __end_of_soft_delay_ms:	
  4036  0579                     __ptext1116:	
  4037 ;; =============== function _IIC_NACK ends ============
  4038                           
  4039                           
  4040 ;; *************** function _IIC_ACK *****************
  4041 ;; Defined at:
  4042 ;;		line 67 in file "C:\Users\Andrew\Desktop\EleMatch\PAV03\FWSWES-PAV03-SWITCHES-PAN2416AV\src\iic.c"
  4043 ;; Parameters:    Size  Location     Type
  4044 ;;		None
  4045 ;; Auto vars:     Size  Location     Type
  4046 ;;		None
  4047 ;; Return value:  Size  Location     Type
  4048 ;;		None               void
  4049 ;; Registers used:
  4050 ;;		wreg, status,2, status,0, pclath, cstack
  4051 ;; Tracked objects:
  4052 ;;		On entry : 60/0
  4053 ;;		On exit  : 60/0
  4054 ;;		Unchanged: FFF9F/0
  4055 ;; Data sizes:     COMMON   BANK0   BANK1   BANK3   BANK2
  4056 ;;      Params:         0       0       0       0       0
  4057 ;;      Locals:         0       0       0       0       0
  4058 ;;      Temps:          0       0       0       0       0
  4059 ;;      Totals:         0       0       0       0       0
  4060 ;;Total ram usage:        0 bytes
  4061 ;; Hardware stack levels used:    1
  4062 ;; Hardware stack levels required when called:    3
  4063 ;; This function calls:
  4064 ;;		_iic_delay_us
  4065 ;; This function is called by:
  4066 ;;		_I2C_ReadByte
  4067 ;; This function uses a non-reentrant model
  4068 ;;
  4069  0579                     _IIC_ACK:	
  4070                           
  4071                           ;iic.c: 68: TRISC1=0;
  4072                           
  4073                           ; Regs used in _IIC_ACK: [wreg+status,2+status,0+pclath+cstack]
  4074  0579  1683               	bsf	3,5	;RP0=1, select bank1
  4075  057A  1087               	bcf	7,1
  4076                           
  4077                           ;iic.c: 69: RC1=0;
  4078  057B  1283               	bcf	3,5	;RP0=0, select bank0
  4079  057C  3001               	movlw	1
  4080  057D  1087               	bcf	7,1
  4081                           
  4082                           ;iic.c: 70: iic_delay_us(1);
  4083  057E  2614  118A         	fcall	_iic_delay_us
  4084  0580  3001               	movlw	1
  4085                           
  4086                           ;iic.c: 71: RC2=1;
  4087  0581  1507               	bsf	7,2
  4088                           
  4089                           ;iic.c: 72: iic_delay_us(1);
  4090  0582  2614               	fcall	_iic_delay_us
  4091                           
  4092                           ;iic.c: 73: RC2=0;
  4093  0583  1107               	bcf	7,2
  4094                           
  4095                           ;iic.c: 74: RC1=1;
  4096  0584  1487               	bsf	7,1
  4097  0585  0008               	return
  4098  0586                     __end_of_IIC_ACK:	
  4099  0586                     __ptext1115:	
  4100 ;; =============== function _I2C_SendByte ends ============
  4101                           
  4102                           
  4103 ;; *************** function _IIC_NACK *****************
  4104 ;; Defined at:
  4105 ;;		line 78 in file "C:\Users\Andrew\Desktop\EleMatch\PAV03\FWSWES-PAV03-SWITCHES-PAN2416AV\src\iic.c"
  4106 ;; Parameters:    Size  Location     Type
  4107 ;;		None
  4108 ;; Auto vars:     Size  Location     Type
  4109 ;;		None
  4110 ;; Return value:  Size  Location     Type
  4111 ;;		None               void
  4112 ;; Registers used:
  4113 ;;		wreg, status,2, status,0, pclath, cstack
  4114 ;; Tracked objects:
  4115 ;;		On entry : 60/0
  4116 ;;		On exit  : 60/0
  4117 ;;		Unchanged: FFF9F/0
  4118 ;; Data sizes:     COMMON   BANK0   BANK1   BANK3   BANK2
  4119 ;;      Params:         0       0       0       0       0
  4120 ;;      Locals:         0       0       0       0       0
  4121 ;;      Temps:          0       0       0       0       0
  4122 ;;      Totals:         0       0       0       0       0
  4123 ;;Total ram usage:        0 bytes
  4124 ;; Hardware stack levels used:    1
  4125 ;; Hardware stack levels required when called:    3
  4126 ;; This function calls:
  4127 ;;		_iic_delay_us
  4128 ;; This function is called by:
  4129 ;;		_I2C_ReadByte
  4130 ;; This function uses a non-reentrant model
  4131 ;;
  4132  0586                     _IIC_NACK:	
  4133  0586  3001               	movlw	1
  4134                           
  4135                           ;iic.c: 79: RC1=1;
  4136                           
  4137                           ; Regs used in _IIC_NACK: [wreg+status,2+status,0+pclath+cstack]
  4138  0587  1487               	bsf	7,1
  4139                           
  4140                           ;iic.c: 80: iic_delay_us(1);
  4141  0588  2614  118A         	fcall	_iic_delay_us
  4142  058A  3001               	movlw	1
  4143                           
  4144                           ;iic.c: 81: RC2=1;
  4145  058B  1507               	bsf	7,2
  4146                           
  4147                           ;iic.c: 82: iic_delay_us(1);
  4148  058C  2614  118A         	fcall	_iic_delay_us
  4149  058E  3001               	movlw	1
  4150                           
  4151                           ;iic.c: 83: RC2=0;
  4152  058F  1107               	bcf	7,2
  4153                           
  4154                           ;iic.c: 84: iic_delay_us(1);
  4155  0590  2E14               	ljmp	_iic_delay_us
  4156  0591                     __end_of_IIC_NACK:	
  4157  0591                     __ptext1106:	
  4158 ;; =============== function _RF_RxData ends ============
  4159                           
  4160                           
  4161 ;; *************** function _I2C_ReadByte *****************
  4162 ;; Defined at:
  4163 ;;		line 117 in file "C:\Users\Andrew\Desktop\EleMatch\PAV03\FWSWES-PAV03-SWITCHES-PAN2416AV\src\iic.c"
  4164 ;; Parameters:    Size  Location     Type
  4165 ;;  ack             1    wreg     unsigned char 
  4166 ;; Auto vars:     Size  Location     Type
  4167 ;;  ack             1    0[BANK0 ] unsigned char 
  4168 ;;  data            2    1[BANK0 ] unsigned int 
  4169 ;;  cnt             1    3[BANK0 ] unsigned char 
  4170 ;; Return value:  Size  Location     Type
  4171 ;;                  2    4[COMMON] unsigned int 
  4172 ;; Registers used:
  4173 ;;		wreg, status,2, status,0, pclath, cstack
  4174 ;; Tracked objects:
  4175 ;;		On entry : 60/0
  4176 ;;		On exit  : 60/0
  4177 ;;		Unchanged: FFF9F/0
  4178 ;; Data sizes:     COMMON   BANK0   BANK1   BANK3   BANK2
  4179 ;;      Params:         2       0       0       0       0
  4180 ;;      Locals:         0       4       0       0       0
  4181 ;;      Temps:          0       0       0       0       0
  4182 ;;      Totals:         2       4       0       0       0
  4183 ;;Total ram usage:        6 bytes
  4184 ;; Hardware stack levels used:    1
  4185 ;; Hardware stack levels required when called:    4
  4186 ;; This function calls:
  4187 ;;		_iic_delay_us
  4188 ;;		_IIC_NACK
  4189 ;;		_IIC_ACK
  4190 ;; This function is called by:
  4191 ;;		_AT24C02_Read_Byte
  4192 ;; This function uses a non-reentrant model
  4193 ;;
  4194  0591                     _I2C_ReadByte:	
  4195                           
  4196                           ; Regs used in _I2C_ReadByte: [wreg+status,2+status,0+pclath+cstack]
  4197                           ;I2C_ReadByte@ack stored from wreg
  4198  0591  00D0               	movwf	I2C_ReadByte@ack
  4199                           
  4200                           ;iic.c: 118: unsigned char cnt;
  4201                           ;iic.c: 119: unsigned int data;
  4202                           ;iic.c: 120: {TRISC1=1,WPUC1=1;};
  4203  0592  1683               	bsf	3,5	;RP0=1, select bank1
  4204  0593  1487               	bsf	7,1
  4205  0594  1703               	bsf	3,6	;RP1=1, select bank3
  4206  0595  148F               	bsf	15,1
  4207                           
  4208                           ;iic.c: 122: for(cnt=0; cnt<8; cnt++)
  4209  0596  1283               	bcf	3,5	;RP0=0, select bank0
  4210  0597  1303               	bcf	3,6	;RP1=0, select bank0
  4211  0598  01D3               	clrf	I2C_ReadByte@cnt
  4212  0599                     l10640:	
  4213  0599  3001               	movlw	1
  4214                           
  4215                           ;iic.c: 123: {
  4216                           ;iic.c: 124: RC2=0;
  4217  059A  1107               	bcf	7,2
  4218                           
  4219                           ;iic.c: 125: iic_delay_us(1);
  4220  059B  2614  118A         	fcall	_iic_delay_us
  4221                           
  4222                           ;iic.c: 127: RC2=1;
  4223  059D  1507               	bsf	7,2
  4224                           
  4225                           ;iic.c: 128: data <<= 1;
  4226  059E  1003               	clrc
  4227  059F  0DD1               	rlf	I2C_ReadByte@data,f
  4228  05A0  0DD2               	rlf	I2C_ReadByte@data+1,f
  4229                           
  4230                           ;iic.c: 129: if(RC1)
  4231  05A1  1887               	btfsc	7,1
  4232                           
  4233                           ;iic.c: 130: {
  4234                           ;iic.c: 131: data |= 0x01;
  4235  05A2  1451               	bsf	I2C_ReadByte@data,0
  4236                           
  4237                           ;iic.c: 132: }
  4238                           ;iic.c: 133: iic_delay_us(1);
  4239  05A3  3001               	movlw	1
  4240  05A4  2614  118A         	fcall	_iic_delay_us
  4241  05A6  3008               	movlw	8
  4242  05A7  0AD3               	incf	I2C_ReadByte@cnt,f
  4243  05A8  0253               	subwf	I2C_ReadByte@cnt,w
  4244  05A9  1C03               	skipc
  4245  05AA  2D99               	goto	l10640
  4246                           
  4247                           ;iic.c: 134: }
  4248                           ;iic.c: 135: if(ack == 0)
  4249  05AB  08D0               	movf	I2C_ReadByte@ack,f
  4250  05AC  1D03               	skipz
  4251  05AD  2DB1               	goto	l15416
  4252                           
  4253                           ;iic.c: 136: {
  4254                           ;iic.c: 137: IIC_NACK();
  4255  05AE  2586  118A         	fcall	_IIC_NACK
  4256                           
  4257                           ;iic.c: 138: }
  4258  05B0  2DB2               	goto	l15418
  4259  05B1                     l15416:	
  4260                           
  4261                           ;iic.c: 139: else
  4262                           ;iic.c: 140: {
  4263                           ;iic.c: 141: IIC_ACK();
  4264  05B1  2579               	fcall	_IIC_ACK
  4265  05B2                     l15418:	
  4266                           
  4267                           ;iic.c: 142: }
  4268                           ;iic.c: 143: return data;
  4269  05B2  0852               	movf	I2C_ReadByte@data+1,w
  4270  05B3  00F5               	movwf	?_I2C_ReadByte+1
  4271  05B4  0851               	movf	I2C_ReadByte@data,w
  4272  05B5  00F4               	movwf	?_I2C_ReadByte
  4273  05B6  0008               	return
  4274  05B7                     __end_of_I2C_ReadByte:	
  4275  05B7                     __ptext1107:	
  4276 ;; =============== function _I2C_ReadByte ends ============
  4277                           
  4278                           
  4279 ;; *************** function _AT24C02_Write_Byte *****************
  4280 ;; Defined at:
  4281 ;;		line 9 in file "C:\Users\Andrew\Desktop\EleMatch\PAV03\FWSWES-PAV03-SWITCHES-PAN2416AV\src\e2prom.c"
  4282 ;; Parameters:    Size  Location     Type
  4283 ;;  addr            1    wreg     unsigned char 
  4284 ;;  data            1    0[BANK0 ] unsigned char 
  4285 ;; Auto vars:     Size  Location     Type
  4286 ;;  addr            1    1[BANK0 ] unsigned char 
  4287 ;; Return value:  Size  Location     Type
  4288 ;;		None               void
  4289 ;; Registers used:
  4290 ;;		wreg, status,2, status,0, pclath, cstack
  4291 ;; Tracked objects:
  4292 ;;		On entry : 60/0
  4293 ;;		On exit  : 60/0
  4294 ;;		Unchanged: FFF9F/0
  4295 ;; Data sizes:     COMMON   BANK0   BANK1   BANK3   BANK2
  4296 ;;      Params:         0       1       0       0       0
  4297 ;;      Locals:         0       1       0       0       0
  4298 ;;      Temps:          0       0       0       0       0
  4299 ;;      Totals:         0       2       0       0       0
  4300 ;;Total ram usage:        2 bytes
  4301 ;; Hardware stack levels used:    1
  4302 ;; Hardware stack levels required when called:    4
  4303 ;; This function calls:
  4304 ;;		_IIC_START
  4305 ;;		_I2C_SendByte
  4306 ;;		_IIC_Wait_ACK
  4307 ;;		_IIC_STOP
  4308 ;; This function is called by:
  4309 ;;		_recive_task
  4310 ;;		_AT24C02_Write_Msg
  4311 ;; This function uses a non-reentrant model
  4312 ;;
  4313  05B7                     _AT24C02_Write_Byte:	
  4314                           
  4315                           ; Regs used in _AT24C02_Write_Byte: [wreg+status,2+status,0+pclath+cstack]
  4316                           ;AT24C02_Write_Byte@addr stored from wreg
  4317  05B7  00D1               	movwf	AT24C02_Write_Byte@addr
  4318                           
  4319                           ;e2prom.c: 10: IIC_START();
  4320  05B8  261B  118A         	fcall	_IIC_START
  4321                           
  4322                           ;e2prom.c: 11: I2C_SendByte(0XA0);
  4323  05BA  30A0               	movlw	160
  4324  05BB  25F9  118A         	fcall	_I2C_SendByte
  4325                           
  4326                           ;e2prom.c: 12: IIC_Wait_ACK();
  4327  05BD  25E6  118A         	fcall	_IIC_Wait_ACK
  4328                           
  4329                           ;e2prom.c: 13: I2C_SendByte(addr);
  4330  05BF  0851               	movf	AT24C02_Write_Byte@addr,w
  4331  05C0  25F9  118A         	fcall	_I2C_SendByte
  4332                           
  4333                           ;e2prom.c: 14: IIC_Wait_ACK();
  4334  05C2  25E6  118A         	fcall	_IIC_Wait_ACK
  4335                           
  4336                           ;e2prom.c: 15: I2C_SendByte(data);
  4337  05C4  0850               	movf	AT24C02_Write_Byte@data,w
  4338  05C5  25F9  118A         	fcall	_I2C_SendByte
  4339                           
  4340                           ;e2prom.c: 16: IIC_Wait_ACK();
  4341  05C7  25E6  118A         	fcall	_IIC_Wait_ACK
  4342                           
  4343                           ;e2prom.c: 17: IIC_STOP();
  4344  05C9  2E28               	ljmp	l15032
  4345  05CA                     __end_of_AT24C02_Write_Byte:	
  4346  05CA                     __ptext1103:	
  4347 ;; =============== function _AT24C02_Read_Msg ends ============
  4348                           
  4349                           
  4350 ;; *************** function _AT24C02_Read_Byte *****************
  4351 ;; Defined at:
  4352 ;;		line 21 in file "C:\Users\Andrew\Desktop\EleMatch\PAV03\FWSWES-PAV03-SWITCHES-PAN2416AV\src\e2prom.c"
  4353 ;; Parameters:    Size  Location     Type
  4354 ;;  addr            1    wreg     unsigned char 
  4355 ;; Auto vars:     Size  Location     Type
  4356 ;;  addr            1    4[BANK0 ] unsigned char 
  4357 ;;  temp            1    5[BANK0 ] unsigned char 
  4358 ;; Return value:  Size  Location     Type
  4359 ;;                  1    wreg      unsigned char 
  4360 ;; Registers used:
  4361 ;;		wreg, status,2, status,0, pclath, cstack
  4362 ;; Tracked objects:
  4363 ;;		On entry : 60/0
  4364 ;;		On exit  : 60/0
  4365 ;;		Unchanged: FFF9F/0
  4366 ;; Data sizes:     COMMON   BANK0   BANK1   BANK3   BANK2
  4367 ;;      Params:         0       0       0       0       0
  4368 ;;      Locals:         0       2       0       0       0
  4369 ;;      Temps:          0       0       0       0       0
  4370 ;;      Totals:         0       2       0       0       0
  4371 ;;Total ram usage:        2 bytes
  4372 ;; Hardware stack levels used:    1
  4373 ;; Hardware stack levels required when called:    5
  4374 ;; This function calls:
  4375 ;;		_IIC_START
  4376 ;;		_I2C_SendByte
  4377 ;;		_IIC_Wait_ACK
  4378 ;;		_I2C_ReadByte
  4379 ;;		_IIC_STOP
  4380 ;; This function is called by:
  4381 ;;		_AT24C02_Read_Msg
  4382 ;; This function uses a non-reentrant model
  4383 ;;
  4384  05CA                     _AT24C02_Read_Byte:	
  4385                           
  4386                           ; Regs used in _AT24C02_Read_Byte: [wreg+status,2+status,0+pclath+cstack]
  4387                           ;AT24C02_Read_Byte@addr stored from wreg
  4388  05CA  00D4               	movwf	AT24C02_Read_Byte@addr
  4389                           
  4390                           ;e2prom.c: 23: IIC_START();
  4391  05CB  261B  118A         	fcall	_IIC_START
  4392                           
  4393                           ;e2prom.c: 25: I2C_SendByte(0XA0);
  4394  05CD  30A0               	movlw	160
  4395  05CE  25F9  118A         	fcall	_I2C_SendByte
  4396                           
  4397                           ;e2prom.c: 26: IIC_Wait_ACK();
  4398  05D0  25E6  118A         	fcall	_IIC_Wait_ACK
  4399                           
  4400                           ;e2prom.c: 27: I2C_SendByte(addr);
  4401  05D2  0854               	movf	AT24C02_Read_Byte@addr,w
  4402  05D3  25F9  118A         	fcall	_I2C_SendByte
  4403                           
  4404                           ;e2prom.c: 28: IIC_Wait_ACK();
  4405  05D5  25E6  118A         	fcall	_IIC_Wait_ACK
  4406                           
  4407                           ;e2prom.c: 31: IIC_START();
  4408  05D7  261B  118A         	fcall	_IIC_START
  4409                           
  4410                           ;e2prom.c: 32: I2C_SendByte(0XA1);
  4411  05D9  30A1               	movlw	161
  4412  05DA  25F9  118A         	fcall	_I2C_SendByte
  4413                           
  4414                           ;e2prom.c: 33: IIC_Wait_ACK();
  4415  05DC  25E6  118A         	fcall	_IIC_Wait_ACK
  4416                           
  4417                           ;e2prom.c: 34: temp = I2C_ReadByte(1);
  4418  05DE  3001               	movlw	1
  4419  05DF  2591  118A         	fcall	_I2C_ReadByte
  4420  05E1  0874               	movf	?_I2C_ReadByte,w
  4421  05E2  00D5               	movwf	AT24C02_Read_Byte@temp
  4422                           
  4423                           ;e2prom.c: 35: IIC_STOP();
  4424  05E3  2628               	fcall	_IIC_STOP
  4425                           
  4426                           ;e2prom.c: 37: return temp;
  4427  05E4  0855               	movf	AT24C02_Read_Byte@temp,w
  4428  05E5  0008               	return
  4429  05E6                     __end_of_AT24C02_Read_Byte:	
  4430  05E6                     __ptext1117:	
  4431 ;; =============== function _IIC_ACK ends ============
  4432                           
  4433                           
  4434 ;; *************** function _IIC_Wait_ACK *****************
  4435 ;; Defined at:
  4436 ;;		line 42 in file "C:\Users\Andrew\Desktop\EleMatch\PAV03\FWSWES-PAV03-SWITCHES-PAN2416AV\src\iic.c"
  4437 ;; Parameters:    Size  Location     Type
  4438 ;;		None
  4439 ;; Auto vars:     Size  Location     Type
  4440 ;;  RE              1    0        unsigned char 
  4441 ;; Return value:  Size  Location     Type
  4442 ;;                  1    wreg      unsigned char 
  4443 ;; Registers used:
  4444 ;;		wreg, status,2, status,0, pclath, cstack
  4445 ;; Tracked objects:
  4446 ;;		On entry : 60/0
  4447 ;;		On exit  : 60/0
  4448 ;;		Unchanged: FFF9F/0
  4449 ;; Data sizes:     COMMON   BANK0   BANK1   BANK3   BANK2
  4450 ;;      Params:         0       0       0       0       0
  4451 ;;      Locals:         1       0       0       0       0
  4452 ;;      Temps:          0       0       0       0       0
  4453 ;;      Totals:         1       0       0       0       0
  4454 ;;Total ram usage:        1 bytes
  4455 ;; Hardware stack levels used:    1
  4456 ;; Hardware stack levels required when called:    3
  4457 ;; This function calls:
  4458 ;;		_iic_delay_us
  4459 ;; This function is called by:
  4460 ;;		_AT24C02_Write_Byte
  4461 ;;		_AT24C02_Read_Byte
  4462 ;; This function uses a non-reentrant model
  4463 ;;
  4464  05E6                     _IIC_Wait_ACK:	
  4465                           
  4466                           ;iic.c: 44: TRISC1=0;
  4467                           
  4468                           ; Regs used in _IIC_Wait_ACK: [wreg+status,2+status,0+pclath+cstack]
  4469  05E6  1683               	bsf	3,5	;RP0=1, select bank1
  4470  05E7  1087               	bcf	7,1
  4471                           
  4472                           ;iic.c: 45: RC1=1;
  4473  05E8  1283               	bcf	3,5	;RP0=0, select bank0
  4474  05E9  1487               	bsf	7,1
  4475                           
  4476                           ;iic.c: 46: {TRISC1=1,WPUC1=1;};
  4477  05EA  1683               	bsf	3,5	;RP0=1, select bank1
  4478  05EB  1487               	bsf	7,1
  4479  05EC  1703               	bsf	3,6	;RP1=1, select bank3
  4480  05ED  148F               	bsf	15,1
  4481                           
  4482                           ;iic.c: 48: RC2=0;
  4483  05EE  1283               	bcf	3,5	;RP0=0, select bank0
  4484  05EF  3001               	movlw	1
  4485  05F0  1303               	bcf	3,6	;RP1=0, select bank0
  4486  05F1  1107               	bcf	7,2
  4487                           
  4488                           ;iic.c: 49: iic_delay_us(1);
  4489  05F2  2614  118A         	fcall	_iic_delay_us
  4490  05F4  3001               	movlw	1
  4491                           
  4492                           ;iic.c: 50: RC2=1;
  4493  05F5  1507               	bsf	7,2
  4494                           
  4495                           ;iic.c: 51: iic_delay_us(1);
  4496  05F6  2614               	fcall	_iic_delay_us
  4497                           
  4498                           ;iic.c: 60: }
  4499                           ;iic.c: 61: RC2=0;
  4500                           
  4501                           ;iic.c: 56: }
  4502                           
  4503                           ;iic.c: 53: if(RC1)
  4504  05F7  1107               	bcf	7,2
  4505  05F8  0008               	return
  4506  05F9                     __end_of_IIC_Wait_ACK:	
  4507  05F9                     __ptext1114:	
  4508 ;; =============== function _RF_Init ends ============
  4509                           
  4510                           
  4511 ;; *************** function _I2C_SendByte *****************
  4512 ;; Defined at:
  4513 ;;		line 91 in file "C:\Users\Andrew\Desktop\EleMatch\PAV03\FWSWES-PAV03-SWITCHES-PAN2416AV\src\iic.c"
  4514 ;; Parameters:    Size  Location     Type
  4515 ;;  Data            1    wreg     unsigned char 
  4516 ;; Auto vars:     Size  Location     Type
  4517 ;;  Data            1    4[COMMON] unsigned char 
  4518 ;;  cnt             1    5[COMMON] unsigned char 
  4519 ;; Return value:  Size  Location     Type
  4520 ;;		None               void
  4521 ;; Registers used:
  4522 ;;		wreg, status,2, status,0, pclath, cstack
  4523 ;; Tracked objects:
  4524 ;;		On entry : 60/0
  4525 ;;		On exit  : 60/0
  4526 ;;		Unchanged: FFF9F/0
  4527 ;; Data sizes:     COMMON   BANK0   BANK1   BANK3   BANK2
  4528 ;;      Params:         0       0       0       0       0
  4529 ;;      Locals:         2       0       0       0       0
  4530 ;;      Temps:          0       0       0       0       0
  4531 ;;      Totals:         2       0       0       0       0
  4532 ;;Total ram usage:        2 bytes
  4533 ;; Hardware stack levels used:    1
  4534 ;; Hardware stack levels required when called:    3
  4535 ;; This function calls:
  4536 ;;		_iic_delay_us
  4537 ;; This function is called by:
  4538 ;;		_AT24C02_Write_Byte
  4539 ;;		_AT24C02_Read_Byte
  4540 ;; This function uses a non-reentrant model
  4541 ;;
  4542  05F9                     _I2C_SendByte:	
  4543                           
  4544                           ; Regs used in _I2C_SendByte: [wreg+status,2+status,0+pclath+cstack]
  4545                           ;I2C_SendByte@Data stored from wreg
  4546  05F9  00F4               	movwf	I2C_SendByte@Data
  4547                           
  4548                           ;iic.c: 92: unsigned char cnt;
  4549                           ;iic.c: 93: TRISC1=0;
  4550  05FA  1683               	bsf	3,5	;RP0=1, select bank1
  4551  05FB  1087               	bcf	7,1
  4552                           
  4553                           ;iic.c: 94: for(cnt=0; cnt<8; cnt++)
  4554  05FC  01F5               	clrf	I2C_SendByte@cnt
  4555  05FD                     l10633:	
  4556                           
  4557                           ;iic.c: 95: {
  4558                           ;iic.c: 98: if(Data & 0x80)
  4559  05FD  1FF4               	btfss	I2C_SendByte@Data,7
  4560  05FE  2E02               	goto	l10635
  4561                           
  4562                           ;iic.c: 99: {
  4563                           ;iic.c: 100: RC1=1;
  4564  05FF  1283               	bcf	3,5	;RP0=0, select bank0
  4565  0600  1487               	bsf	7,1
  4566                           
  4567                           ;iic.c: 101: }
  4568  0601  2E04               	goto	l10636
  4569  0602                     l10635:	
  4570                           
  4571                           ;iic.c: 102: else
  4572                           ;iic.c: 103: {
  4573                           ;iic.c: 104: RC1=0;
  4574  0602  1283               	bcf	3,5	;RP0=0, select bank0
  4575  0603  1087               	bcf	7,1
  4576  0604                     l10636:	
  4577  0604  3001               	movlw	1
  4578                           
  4579                           ;iic.c: 105: }
  4580                           ;iic.c: 106: Data <<= 1;
  4581  0605  1003               	clrc
  4582  0606  0DF4               	rlf	I2C_SendByte@Data,f
  4583                           
  4584                           ;iic.c: 107: RC2=1;
  4585  0607  1507               	bsf	7,2
  4586                           
  4587                           ;iic.c: 108: iic_delay_us(1);
  4588  0608  2614  118A         	fcall	_iic_delay_us
  4589  060A  3001               	movlw	1
  4590                           
  4591                           ;iic.c: 109: RC2=0;
  4592  060B  1107               	bcf	7,2
  4593                           
  4594                           ;iic.c: 110: iic_delay_us(1);
  4595  060C  2614  118A         	fcall	_iic_delay_us
  4596  060E  3008               	movlw	8
  4597  060F  0AF5               	incf	I2C_SendByte@cnt,f
  4598  0610  0275               	subwf	I2C_SendByte@cnt,w
  4599  0611  1803               	btfsc	3,0
  4600  0612  0008               	return
  4601  0613  2DFD               	goto	l10633
  4602  0614                     __end_of_I2C_SendByte:	
  4603  0614                     __ptext1126:	
  4604 ;; =============== function ___bmul ends ============
  4605                           
  4606                           
  4607 ;; *************** function _iic_delay_us *****************
  4608 ;; Defined at:
  4609 ;;		line 6 in file "C:\Users\Andrew\Desktop\EleMatch\PAV03\FWSWES-PAV03-SWITCHES-PAN2416AV\src\iic.c"
  4610 ;; Parameters:    Size  Location     Type
  4611 ;;  delay           1    wreg     unsigned char 
  4612 ;; Auto vars:     Size  Location     Type
  4613 ;;  delay           1    3[COMMON] unsigned char 
  4614 ;; Return value:  Size  Location     Type
  4615 ;;		None               void
  4616 ;; Registers used:
  4617 ;;		wreg, status,2, status,0
  4618 ;; Tracked objects:
  4619 ;;		On entry : 60/0
  4620 ;;		On exit  : 60/0
  4621 ;;		Unchanged: FFF9F/0
  4622 ;; Data sizes:     COMMON   BANK0   BANK1   BANK3   BANK2
  4623 ;;      Params:         0       0       0       0       0
  4624 ;;      Locals:         1       0       0       0       0
  4625 ;;      Temps:          0       0       0       0       0
  4626 ;;      Totals:         1       0       0       0       0
  4627 ;;Total ram usage:        1 bytes
  4628 ;; Hardware stack levels used:    1
  4629 ;; Hardware stack levels required when called:    2
  4630 ;; This function calls:
  4631 ;;		Nothing
  4632 ;; This function is called by:
  4633 ;;		_IIC_START
  4634 ;;		_IIC_STOP
  4635 ;;		_IIC_Wait_ACK
  4636 ;;		_IIC_ACK
  4637 ;;		_IIC_NACK
  4638 ;;		_I2C_SendByte
  4639 ;;		_I2C_ReadByte
  4640 ;; This function uses a non-reentrant model
  4641 ;;
  4642  0614                     _iic_delay_us:	
  4643                           
  4644                           ; Regs used in _iic_delay_us: [wreg+status,2+status,0]
  4645                           ;iic_delay_us@delay stored from wreg
  4646  0614  00F3               	movwf	iic_delay_us@delay
  4647  0615                     l14874:	
  4648                           ;iic.c: 7: while(delay--);
  4649                           
  4650  0615  03F3               	decf	iic_delay_us@delay,f
  4651  0616  0873               	movf	iic_delay_us@delay,w
  4652  0617  3AFF               	xorlw	255
  4653  0618  1903               	btfsc	3,2
  4654  0619  0008               	return
  4655  061A  2E15               	goto	l14874
  4656  061B                     __end_of_iic_delay_us:	
  4657  061B                     __ptext1119:	
  4658 ;; =============== function _IIC_STOP ends ============
  4659                           
  4660                           
  4661 ;; *************** function _IIC_START *****************
  4662 ;; Defined at:
  4663 ;;		line 20 in file "C:\Users\Andrew\Desktop\EleMatch\PAV03\FWSWES-PAV03-SWITCHES-PAN2416AV\src\iic.c"
  4664 ;; Parameters:    Size  Location     Type
  4665 ;;		None
  4666 ;; Auto vars:     Size  Location     Type
  4667 ;;		None
  4668 ;; Return value:  Size  Location     Type
  4669 ;;		None               void
  4670 ;; Registers used:
  4671 ;;		wreg, status,2, status,0, pclath, cstack
  4672 ;; Tracked objects:
  4673 ;;		On entry : 60/0
  4674 ;;		On exit  : 60/0
  4675 ;;		Unchanged: FFF9F/0
  4676 ;; Data sizes:     COMMON   BANK0   BANK1   BANK3   BANK2
  4677 ;;      Params:         0       0       0       0       0
  4678 ;;      Locals:         0       0       0       0       0
  4679 ;;      Temps:          0       0       0       0       0
  4680 ;;      Totals:         0       0       0       0       0
  4681 ;;Total ram usage:        0 bytes
  4682 ;; Hardware stack levels used:    1
  4683 ;; Hardware stack levels required when called:    3
  4684 ;; This function calls:
  4685 ;;		_iic_delay_us
  4686 ;; This function is called by:
  4687 ;;		_AT24C02_Write_Byte
  4688 ;;		_AT24C02_Read_Byte
  4689 ;; This function uses a non-reentrant model
  4690 ;;
  4691  061B                     _IIC_START:	
  4692                           
  4693                           ;iic.c: 21: TRISC1=0;
  4694                           
  4695                           ; Regs used in _IIC_START: [wreg+status,2+status,0+pclath+cstack]
  4696  061B  1683               	bsf	3,5	;RP0=1, select bank1
  4697  061C  1087               	bcf	7,1
  4698                           
  4699                           ;iic.c: 22: RC1=1;
  4700  061D  1283               	bcf	3,5	;RP0=0, select bank0
  4701  061E  3001               	movlw	1
  4702  061F  1487               	bsf	7,1
  4703                           
  4704                           ;iic.c: 23: RC2=1;
  4705  0620  1507               	bsf	7,2
  4706                           
  4707                           ;iic.c: 24: iic_delay_us(1);
  4708  0621  2614  118A         	fcall	_iic_delay_us
  4709  0623  3001               	movlw	1
  4710                           
  4711                           ;iic.c: 25: RC1=0;
  4712  0624  1087               	bcf	7,1
  4713                           
  4714                           ;iic.c: 26: iic_delay_us(1);
  4715  0625  2614               	fcall	_iic_delay_us
  4716                           
  4717                           ;iic.c: 27: RC2=0;
  4718  0626  1107               	bcf	7,2
  4719  0627  0008               	return
  4720  0628                     __end_of_IIC_START:	
  4721  0628                     __ptext1118:	
  4722 ;; =============== function _IIC_Wait_ACK ends ============
  4723                           
  4724                           
  4725 ;; *************** function _IIC_STOP *****************
  4726 ;; Defined at:
  4727 ;;		line 32 in file "C:\Users\Andrew\Desktop\EleMatch\PAV03\FWSWES-PAV03-SWITCHES-PAN2416AV\src\iic.c"
  4728 ;; Parameters:    Size  Location     Type
  4729 ;;		None
  4730 ;; Auto vars:     Size  Location     Type
  4731 ;;		None
  4732 ;; Return value:  Size  Location     Type
  4733 ;;		None               void
  4734 ;; Registers used:
  4735 ;;		wreg, status,2, status,0, pclath, cstack
  4736 ;; Tracked objects:
  4737 ;;		On entry : 60/0
  4738 ;;		On exit  : 60/0
  4739 ;;		Unchanged: FFF9F/0
  4740 ;; Data sizes:     COMMON   BANK0   BANK1   BANK3   BANK2
  4741 ;;      Params:         0       0       0       0       0
  4742 ;;      Locals:         0       0       0       0       0
  4743 ;;      Temps:          0       0       0       0       0
  4744 ;;      Totals:         0       0       0       0       0
  4745 ;;Total ram usage:        0 bytes
  4746 ;; Hardware stack levels used:    1
  4747 ;; Hardware stack levels required when called:    3
  4748 ;; This function calls:
  4749 ;;		_iic_delay_us
  4750 ;; This function is called by:
  4751 ;;		_AT24C02_Write_Byte
  4752 ;;		_AT24C02_Read_Byte
  4753 ;; This function uses a non-reentrant model
  4754 ;;
  4755  0628                     _IIC_STOP:	
  4756  0628                     l15032:	
  4757                           ; Regs used in _IIC_STOP: [wreg+status,2+status,0+pclath+cstack]
  4758                           
  4759                           
  4760                           ;iic.c: 33: TRISC1=0;
  4761  0628  1683               	bsf	3,5	;RP0=1, select bank1
  4762  0629  1087               	bcf	7,1
  4763                           
  4764                           ;iic.c: 34: RC1=0;
  4765  062A  1283               	bcf	3,5	;RP0=0, select bank0
  4766  062B  3001               	movlw	1
  4767  062C  1087               	bcf	7,1
  4768                           
  4769                           ;iic.c: 35: RC2=1;
  4770  062D  1507               	bsf	7,2
  4771                           
  4772                           ;iic.c: 36: iic_delay_us(1);
  4773  062E  2614               	fcall	_iic_delay_us
  4774                           
  4775                           ;iic.c: 37: RC1=1;
  4776  062F  1487               	bsf	7,1
  4777  0630  0008               	return
  4778  0631                     __end_of_IIC_STOP:	
  4779  0631                     __ptext1125:	
  4780 ;; =============== function _RF_WriteReg ends ============
  4781                           
  4782                           
  4783 ;; *************** function ___bmul *****************
  4784 ;; Defined at:
  4785 ;;		line 3 in file "C:\Users\Andrew\Desktop\PAN2416\PAN2416\PAN2416\\CMS_IDE_V1.41.03_CRC_PANCHIP\data\sources\bmu
      +l.c"
  4786 ;; Parameters:    Size  Location     Type
  4787 ;;  multiplier      1    wreg     unsigned char 
  4788 ;;  multiplicand    1    3[COMMON] unsigned char 
  4789 ;; Auto vars:     Size  Location     Type
  4790 ;;  multiplier      1    5[COMMON] unsigned char 
  4791 ;;  product         1    4[COMMON] unsigned char 
  4792 ;; Return value:  Size  Location     Type
  4793 ;;                  1    wreg      unsigned char 
  4794 ;; Registers used:
  4795 ;;		wreg, status,2, status,0
  4796 ;; Tracked objects:
  4797 ;;		On entry : 60/0
  4798 ;;		On exit  : 60/0
  4799 ;;		Unchanged: FFF9F/0
  4800 ;; Data sizes:     COMMON   BANK0   BANK1   BANK3   BANK2
  4801 ;;      Params:         1       0       0       0       0
  4802 ;;      Locals:         2       0       0       0       0
  4803 ;;      Temps:          0       0       0       0       0
  4804 ;;      Totals:         3       0       0       0       0
  4805 ;;Total ram usage:        3 bytes
  4806 ;; Hardware stack levels used:    1
  4807 ;; Hardware stack levels required when called:    2
  4808 ;; This function calls:
  4809 ;;		Nothing
  4810 ;; This function is called by:
  4811 ;;		_main
  4812 ;;		_recive_task
  4813 ;; This function uses a non-reentrant model
  4814 ;;
  4815  0631                     ___bmul:	
  4816                           
  4817                           ; Regs used in ___bmul: [wreg+status,2+status,0]
  4818                           ;___bmul@multiplier stored from wreg
  4819  0631  00F5               	movwf	___bmul@multiplier
  4820  0632  01F4               	clrf	___bmul@product
  4821  0633                     l14878:	
  4822  0633  0873               	movf	___bmul@multiplicand,w
  4823  0634  1875               	btfsc	___bmul@multiplier,0
  4824  0635  07F4               	addwf	___bmul@product,f
  4825  0636  1003               	clrc
  4826  0637  0DF3               	rlf	___bmul@multiplicand,f
  4827  0638  1003               	clrc
  4828  0639  0CF5               	rrf	___bmul@multiplier,f
  4829  063A  08F5               	movf	___bmul@multiplier,f
  4830  063B  1D03               	skipz
  4831  063C  2E33               	goto	l14878
  4832  063D  0874               	movf	___bmul@product,w
  4833  063E  0008               	return
  4834  063F                     __end_of___bmul:	
  4835  063F                     __ptext1102:	
  4836 ;; =============== function _rx_data ends ============
  4837                           
  4838                           
  4839 ;; *************** function _AT24C02_Read_Msg *****************
  4840 ;; Defined at:
  4841 ;;		line 53 in file "C:\Users\Andrew\Desktop\EleMatch\PAV03\FWSWES-PAV03-SWITCHES-PAN2416AV\src\e2prom.c"
  4842 ;; Parameters:    Size  Location     Type
  4843 ;;  addr            1    wreg     unsigned char 
  4844 ;;  data            1    6[BANK0 ] PTR unsigned char 
  4845 ;;		 -> channel_flag(3), control_id(72), 
  4846 ;;  len             1    7[BANK0 ] unsigned char 
  4847 ;; Auto vars:     Size  Location     Type
  4848 ;;  addr            1    9[BANK0 ] unsigned char 
  4849 ;;  i               1   10[BANK0 ] unsigned char 
  4850 ;; Return value:  Size  Location     Type
  4851 ;;		None               void
  4852 ;; Registers used:
  4853 ;;		wreg, fsr0l, fsr0h, status,2, status,0, pclath, cstack
  4854 ;; Tracked objects:
  4855 ;;		On entry : 60/0
  4856 ;;		On exit  : 60/0
  4857 ;;		Unchanged: FFE9F/0
  4858 ;; Data sizes:     COMMON   BANK0   BANK1   BANK3   BANK2
  4859 ;;      Params:         0       2       0       0       0
  4860 ;;      Locals:         0       2       0       0       0
  4861 ;;      Temps:          0       1       0       0       0
  4862 ;;      Totals:         0       5       0       0       0
  4863 ;;Total ram usage:        5 bytes
  4864 ;; Hardware stack levels used:    1
  4865 ;; Hardware stack levels required when called:    6
  4866 ;; This function calls:
  4867 ;;		_AT24C02_Read_Byte
  4868 ;;		_soft_delay_ms
  4869 ;; This function is called by:
  4870 ;;		_main
  4871 ;;		_recive_task
  4872 ;; This function uses a non-reentrant model
  4873 ;;
  4874  063F                     _AT24C02_Read_Msg:	
  4875                           
  4876                           ; Regs used in _AT24C02_Read_Msg: [wreg-fsr0h+status,2+status,0+pclath+cstack]
  4877                           ;AT24C02_Read_Msg@addr stored from wreg
  4878  063F  00D9               	movwf	AT24C02_Read_Msg@addr
  4879                           
  4880                           ;e2prom.c: 54: unsigned char i=0;
  4881  0640  01DA               	clrf	AT24C02_Read_Msg@i
  4882                           
  4883                           ;e2prom.c: 55: for(i=0;i<len;i++)
  4884  0641  01DA               	clrf	AT24C02_Read_Msg@i
  4885  0642                     l16312:	
  4886  0642  0857               	movf	AT24C02_Read_Msg@len,w
  4887  0643  025A               	subwf	AT24C02_Read_Msg@i,w
  4888  0644  1803               	btfsc	3,0
  4889  0645  0008               	return
  4890                           
  4891                           ;e2prom.c: 56: {
  4892                           ;e2prom.c: 57: data[i]=AT24C02_Read_Byte(addr);
  4893  0646  085A               	movf	AT24C02_Read_Msg@i,w
  4894  0647  0756               	addwf	AT24C02_Read_Msg@data,w
  4895  0648  00D8               	movwf	??_AT24C02_Read_Msg
  4896  0649  0084               	movwf	4
  4897  064A  0859               	movf	AT24C02_Read_Msg@addr,w
  4898  064B  25CA  118A         	fcall	_AT24C02_Read_Byte
  4899  064D  1383               	bcf	3,7	;select IRP bank0
  4900  064E  0080               	movwf	0
  4901                           
  4902                           ;e2prom.c: 58: addr++;
  4903  064F  0AD9               	incf	AT24C02_Read_Msg@addr,f
  4904                           
  4905                           ;e2prom.c: 59: soft_delay_ms(1);
  4906  0650  01F3               	clrf	?_soft_delay_ms
  4907  0651  0AF3               	incf	?_soft_delay_ms,f
  4908  0652  01F4               	clrf	?_soft_delay_ms+1
  4909  0653  255C  118A         	fcall	_soft_delay_ms
  4910  0655  0ADA               	incf	AT24C02_Read_Msg@i,f
  4911  0656  2E42               	goto	l16312
  4912  0657                     __end_of_AT24C02_Read_Msg:	
  4913  0657                     PL2:	
  4914  0657  1683               	bsf	3,5	;RP0=1, select bank1
  4915  0658  1007               	bcf	7,0
  4916  0659  1283               	bcf	3,5	;RP0=0, select bank0
  4917  065A  3064               	movlw	100
  4918  065B  1007               	bcf	7,0
  4919  065C  00F3               	movwf	?_soft_delay_ms
  4920  065D  01F4               	clrf	?_soft_delay_ms+1
  4921  065E  0008               	return
  4922  065F                     PL3:	
  4923  065F  1683               	bsf	3,5	;RP0=1, select bank1
  4924  0660  1007               	bcf	7,0
  4925  0661  1283               	bcf	3,5	;RP0=0, select bank0
  4926  0662  3064               	movlw	100
  4927  0663  1407               	bsf	7,0
  4928  0664  00F3               	movwf	?_soft_delay_ms
  4929  0665  01F4               	clrf	?_soft_delay_ms+1
  4930  0666  0008               	return
  4931  0667                     PL4:	
  4932  0667  1683               	bsf	3,5	;RP0=1, select bank1
  4933  0668  1007               	bcf	7,0
  4934  0669  1283               	bcf	3,5	;RP0=0, select bank0
  4935  066A  1407               	bsf	7,0
  4936  066B  0008               	return
  4937                           
  4938                           	psect	text1112
  4939  0E3A                     __ptext1112:	
  4940 ;; =============== function _key_value_read ends ============
  4941                           
  4942                           
  4943 ;; *************** function _RF_Set_RxMode *****************
  4944 ;; Defined at:
  4945 ;;		line 267 in file "C:\Users\Andrew\Desktop\EleMatch\PAV03\FWSWES-PAV03-SWITCHES-PAN2416AV\src\rf297L.c"
  4946 ;; Parameters:    Size  Location     Type
  4947 ;;		None
  4948 ;; Auto vars:     Size  Location     Type
  4949 ;;		None
  4950 ;; Return value:  Size  Location     Type
  4951 ;;		None               void
  4952 ;; Registers used:
  4953 ;;		wreg, status,2, status,0, pclath, cstack
  4954 ;; Tracked objects:
  4955 ;;		On entry : 60/0
  4956 ;;		On exit  : 60/0
  4957 ;;		Unchanged: FFF9F/0
  4958 ;; Data sizes:     COMMON   BANK0   BANK1   BANK3   BANK2
  4959 ;;      Params:         0       0       0       0       0
  4960 ;;      Locals:         0       0       0       0       0
  4961 ;;      Temps:          0       0       0       0       0
  4962 ;;      Totals:         0       0       0       0       0
  4963 ;;Total ram usage:        0 bytes
  4964 ;; Hardware stack levels used:    1
  4965 ;; Hardware stack levels required when called:    4
  4966 ;; This function calls:
  4967 ;;		_RF_WriteReg
  4968 ;;		_soft_delay_ms
  4969 ;; This function is called by:
  4970 ;;		_main
  4971 ;; This function uses a non-reentrant model
  4972 ;;
  4973  0E3A                     _RF_Set_RxMode:	
  4974                           
  4975                           ;rf297L.c: 268: RF_WriteReg(0x20 + 0x00, 0X87);
  4976                           
  4977                           ; Regs used in _RF_Set_RxMode: [wreg+status,2+status,0+pclath+cstack]
  4978  0E3A  3087               	movlw	135
  4979  0E3B  00F5               	movwf	?_RF_WriteReg
  4980  0E3C  3020               	movlw	32
  4981  0E3D  27AE               	fcall	_RF_WriteReg
  4982                           
  4983                           ;rf297L.c: 269: soft_delay_ms(10);
  4984  0E3E  300A               	movlw	10
  4985  0E3F  00F3               	movwf	?_soft_delay_ms
  4986  0E40  01F4               	clrf	?_soft_delay_ms+1
  4987  0E41  118A  255C  158A   	fcall	_soft_delay_ms
  4988  0E44  300A               	movlw	10
  4989                           
  4990                           ;rf297L.c: 270: RA7=1;
  4991  0E45  1785               	bsf	5,7
  4992                           
  4993                           ;rf297L.c: 271: soft_delay_ms(10);
  4994  0E46  00F3               	movwf	?_soft_delay_ms
  4995  0E47  01F4               	clrf	?_soft_delay_ms+1
  4996  0E48  118A  2D5C         	ljmp	l14676
  4997  0E4A                     __end_of_RF_Set_RxMode:	
  4998  0E4A                     __ptext1101:	
  4999 ;; =============== function _recive_task ends ============
  5000                           
  5001                           
  5002 ;; *************** function _rx_data *****************
  5003 ;; Defined at:
  5004 ;;		line 69 in file "C:\Users\Andrew\Desktop\EleMatch\PAV03\FWSWES-PAV03-SWITCHES-PAN2416AV\src\recive.c"
  5005 ;; Parameters:    Size  Location     Type
  5006 ;;		None
  5007 ;; Auto vars:     Size  Location     Type
  5008 ;;  crc16           2   11[BANK0 ] unsigned int 
  5009 ;;  i               1   15[BANK0 ] unsigned char 
  5010 ;;  rx_flag         1   14[BANK0 ] unsigned char 
  5011 ;;  rand            1   13[BANK0 ] unsigned char 
  5012 ;; Return value:  Size  Location     Type
  5013 ;;                  1    wreg      unsigned char 
  5014 ;; Registers used:
  5015 ;;		wreg, fsr0l, fsr0h, status,2, status,0, btemp+1, pclath, cstack
  5016 ;; Tracked objects:
  5017 ;;		On entry : 60/0
  5018 ;;		On exit  : 60/0
  5019 ;;		Unchanged: FFE9F/0
  5020 ;; Data sizes:     COMMON   BANK0   BANK1   BANK3   BANK2
  5021 ;;      Params:         0       0       0       0       0
  5022 ;;      Locals:         0       5       0       0       0
  5023 ;;      Temps:          0       3       0       0       0
  5024 ;;      Totals:         0       8       0       0       0
  5025 ;;Total ram usage:        8 bytes
  5026 ;; Hardware stack levels used:    1
  5027 ;; Hardware stack levels required when called:    6
  5028 ;; This function calls:
  5029 ;;		_RF_RxData
  5030 ;;		_UpdateCRC
  5031 ;; This function is called by:
  5032 ;;		_recive_task
  5033 ;; This function uses a non-reentrant model
  5034 ;;
  5035  0E4A                     _rx_data:	
  5036  0E4A  3012               	movlw	18
  5037                           
  5038                           ;recive.c: 70: unsigned char rx_flag = 0;
  5039                           
  5040 ;; using string table level
  5041                           ; Regs used in _rx_data: [wreg-fsr0h+status,2+status,0+btemp+1+pclath+cstack]
  5042  0E4B  01DE               	clrf	rx_data@rx_flag
  5043                           
  5044                           ;recive.c: 72: unsigned char i = 0;
  5045  0E4C  01DF               	clrf	rx_data@i
  5046                           
  5047                           ;recive.c: 73: unsigned int crc16 = 0;
  5048  0E4D  01DB               	clrf	rx_data@crc16
  5049  0E4E  01DC               	clrf	rx_data@crc16+1
  5050                           
  5051                           ;recive.c: 75: if(RF_RxData(rf_buf,18))
  5052  0E4F  00D4               	movwf	?_RF_RxData
  5053  0E50  303B               	movlw	_rf_buf& (0+255)
  5054  0E51  2710  158A         	fcall	_RF_RxData
  5055  0E53  3A00               	xorlw	0
  5056  0E54  1903               	skipnz
  5057  0E55  2ED7               	goto	l16376
  5058                           
  5059                           ;recive.c: 76: {
  5060                           ;recive.c: 77: for(i = 0; i < 18; i++)
  5061  0E56  01DF               	clrf	rx_data@i
  5062  0E57                     l16324:	
  5063                           
  5064                           ;recive.c: 78: {
  5065                           ;recive.c: 79: rf_buf[i] = rf_buf[i] ^ crc_2_4G_lib[3+i] ^ ble_crc_38[21+i];
  5066  0E57  085F               	movf	rx_data@i,w
  5067  0E58  3E16               	addlw	low ((_ble_crc_38-__stringbase+21))
  5068  0E59  0084               	movwf	4
  5069  0E5A  118A  2700  158A   	fcall	stringdir
  5070  0E5D  00D8               	movwf	??_rx_data
  5071  0E5E  085F               	movf	rx_data@i,w
  5072  0E5F  3E2E               	addlw	low ((_crc_2_4G_lib-__stringbase+3))
  5073  0E60  0084               	movwf	4
  5074  0E61  118A  2700  158A   	fcall	stringdir
  5075  0E64  00D9               	movwf	??_rx_data+1
  5076  0E65  085F               	movf	rx_data@i,w
  5077  0E66  3E3B               	addlw	_rf_buf& (0+255)
  5078  0E67  0084               	movwf	4
  5079  0E68  1383               	bcf	3,7	;select IRP bank0
  5080  0E69  0800               	movf	0,w
  5081  0E6A  0659               	xorwf	??_rx_data+1,w
  5082  0E6B  0658               	xorwf	??_rx_data,w
  5083  0E6C  00DA               	movwf	??_rx_data+2
  5084  0E6D  085F               	movf	rx_data@i,w
  5085  0E6E  3E3B               	addlw	_rf_buf& (0+255)
  5086  0E6F  0084               	movwf	4
  5087  0E70  085A               	movf	??_rx_data+2,w
  5088  0E71  0080               	movwf	0
  5089  0E72  3012               	movlw	18
  5090  0E73  0ADF               	incf	rx_data@i,f
  5091  0E74  025F               	subwf	rx_data@i,w
  5092  0E75  1C03               	skipc
  5093  0E76  2E57               	goto	l16324
  5094                           
  5095                           ;recive.c: 80: }
  5096                           ;recive.c: 81: crc16 = rf_buf[16] + rf_buf[17] * 256;
  5097  0E77  084C               	movf	_rf_buf+17,w
  5098  0E78  00D8               	movwf	??_rx_data
  5099  0E79  01D9               	clrf	??_rx_data+1
  5100  0E7A  00D9               	movwf	??_rx_data+1
  5101  0E7B  01D8               	clrf	??_rx_data
  5102  0E7C  084B               	movf	_rf_buf+16,w
  5103  0E7D  0758               	addwf	??_rx_data,w
  5104  0E7E  00DB               	movwf	rx_data@crc16
  5105  0E7F  0859               	movf	??_rx_data+1,w
  5106  0E80  1803               	skipnc
  5107  0E81  0A59               	incf	??_rx_data+1,w
  5108  0E82  00DC               	movwf	rx_data@crc16+1
  5109                           
  5110                           ;recive.c: 82: for(i = 0; i < 16; i++)
  5111  0E83  01DF               	clrf	rx_data@i
  5112  0E84                     l16338:	
  5113                           
  5114                           ;recive.c: 83: {
  5115                           ;recive.c: 84: rf_buf[i] = rf_buf[i] ^ crc_lab[i];
  5116  0E84  085F               	movf	rx_data@i,w
  5117  0E85  3E40               	addlw	low (_crc_lab-__stringbase)
  5118  0E86  0084               	movwf	4
  5119  0E87  118A  2700  158A   	fcall	stringdir
  5120  0E8A  00D8               	movwf	??_rx_data
  5121  0E8B  085F               	movf	rx_data@i,w
  5122  0E8C  3E3B               	addlw	_rf_buf& (0+255)
  5123  0E8D  0084               	movwf	4
  5124  0E8E  0800               	movf	0,w
  5125  0E8F  0658               	xorwf	??_rx_data,w
  5126  0E90  00D9               	movwf	??_rx_data+1
  5127  0E91  085F               	movf	rx_data@i,w
  5128  0E92  3E3B               	addlw	_rf_buf& (0+255)
  5129  0E93  0084               	movwf	4
  5130  0E94  0859               	movf	??_rx_data+1,w
  5131  0E95  0080               	movwf	0
  5132  0E96  3010               	movlw	16
  5133  0E97  0ADF               	incf	rx_data@i,f
  5134  0E98  025F               	subwf	rx_data@i,w
  5135  0E99  1C03               	skipc
  5136  0E9A  2E84               	goto	l16338
  5137                           
  5138                           ;recive.c: 85: }
  5139                           ;recive.c: 86: rand = rf_buf[15];
  5140  0E9B  084A               	movf	_rf_buf+15,w
  5141  0E9C  00DD               	movwf	rx_data@rand
  5142                           
  5143                           ;recive.c: 87: for(i = 7; i < 15; i++)
  5144  0E9D  3007               	movlw	7
  5145  0E9E  00DF               	movwf	rx_data@i
  5146  0E9F                     l16348:	
  5147                           
  5148                           ;recive.c: 88: {
  5149                           ;recive.c: 89: rf_buf[i] ^= rand;
  5150  0E9F  085F               	movf	rx_data@i,w
  5151  0EA0  3E3B               	addlw	_rf_buf& (0+255)
  5152  0EA1  0084               	movwf	4
  5153  0EA2  085D               	movf	rx_data@rand,w
  5154  0EA3  0680               	xorwf	0,f
  5155  0EA4  300F               	movlw	15
  5156  0EA5  0ADF               	incf	rx_data@i,f
  5157  0EA6  025F               	subwf	rx_data@i,w
  5158  0EA7  1C03               	skipc
  5159  0EA8  2E9F               	goto	l16348
  5160                           
  5161                           ;recive.c: 90: }
  5162                           ;recive.c: 91: if(crc16 == UpdateCRC(rf_buf,16) )
  5163  0EA9  3010               	movlw	16
  5164  0EAA  00F3               	movwf	?_UpdateCRC
  5165  0EAB  303B               	movlw	_rf_buf& (0+255)
  5166  0EAC  01F4               	clrf	?_UpdateCRC+1
  5167  0EAD  26D9  158A         	fcall	_UpdateCRC
  5168  0EAF  085C               	movf	rx_data@crc16+1,w
  5169  0EB0  0674               	xorwf	?_UpdateCRC+1,w
  5170  0EB1  1D03               	skipz
  5171  0EB2  2EB5               	goto	u3895
  5172  0EB3  085B               	movf	rx_data@crc16,w
  5173  0EB4  0673               	xorwf	?_UpdateCRC,w
  5174  0EB5                     u3895:	
  5175  0EB5  1D03               	skipz
  5176  0EB6  2ED7               	goto	l16376
  5177                           
  5178                           ;recive.c: 92: {
  5179                           ;recive.c: 93: if((rf_buf[3] == 0) && (rf_buf[4] == 0) && (rf_buf[5] == 0) && (rf_buf[6]
      +                           == 0))
  5180  0EB7  08BE               	movf	_rf_buf+3,f
  5181  0EB8  1D03               	skipz
  5182  0EB9  2EC5               	goto	l16366
  5183  0EBA  08BF               	movf	_rf_buf+4,f
  5184  0EBB  1D03               	skipz
  5185  0EBC  2EC5               	goto	l16366
  5186  0EBD  08C0               	movf	_rf_buf+5,f
  5187  0EBE  1D03               	skipz
  5188  0EBF  2EC5               	goto	l16366
  5189  0EC0  08C1               	movf	_rf_buf+6,f
  5190  0EC1  1D03               	skipz
  5191  0EC2  2EC5               	goto	l16366
  5192  0EC3                     l16364:	
  5193                           
  5194                           ;recive.c: 94: {
  5195                           ;recive.c: 95: rx_flag=0;
  5196  0EC3  01DE               	clrf	rx_data@rx_flag
  5197                           
  5198                           ;recive.c: 96: }
  5199  0EC4  2ED7               	goto	l16376
  5200  0EC5                     l16366:	
  5201                           
  5202                           ;recive.c: 97: else if((rf_buf[3] == 0xff) && (rf_buf[4] == 0xff) && (rf_buf[5] == 0xff)
      +                           && (rf_buf[6] == 0xff))
  5203  0EC5  083E               	movf	_rf_buf+3,w
  5204  0EC6  3AFF               	xorlw	255
  5205  0EC7  1D03               	skipz
  5206  0EC8  2ED5               	goto	l9822
  5207  0EC9  083F               	movf	_rf_buf+4,w
  5208  0ECA  3AFF               	xorlw	255
  5209  0ECB  1D03               	skipz
  5210  0ECC  2ED5               	goto	l9822
  5211  0ECD  0840               	movf	_rf_buf+5,w
  5212  0ECE  3AFF               	xorlw	255
  5213  0ECF  1D03               	skipz
  5214  0ED0  2ED5               	goto	l9822
  5215  0ED1  0841               	movf	_rf_buf+6,w
  5216  0ED2  3AFF               	xorlw	255
  5217  0ED3  1903               	btfsc	3,2
  5218  0ED4  2EC3               	goto	l16364
  5219  0ED5                     l9822:	
  5220                           
  5221                           ;recive.c: 101: else
  5222                           ;recive.c: 102: rx_flag = 1;
  5223  0ED5  01DE               	clrf	rx_data@rx_flag
  5224  0ED6  0ADE               	incf	rx_data@rx_flag,f
  5225  0ED7                     l16376:	
  5226                           
  5227                           ;recive.c: 103: }
  5228                           ;recive.c: 105: }
  5229                           ;recive.c: 106: return rx_flag;
  5230  0ED7  085E               	movf	rx_data@rx_flag,w
  5231  0ED8  0008               	return
  5232  0ED9                     __end_of_rx_data:	
  5233  0ED9                     __ptext1127:	
  5234 ;; =============== function _iic_delay_us ends ============
  5235                           
  5236                           
  5237 ;; *************** function _UpdateCRC *****************
  5238 ;; Defined at:
  5239 ;;		line 42 in file "C:\Users\Andrew\Desktop\EleMatch\PAV03\FWSWES-PAV03-SWITCHES-PAN2416AV\src\recive.c"
  5240 ;; Parameters:    Size  Location     Type
  5241 ;;  CRC_input       1    wreg     PTR unsigned char 
  5242 ;;		 -> rf_buf(18), 
  5243 ;;  len             2    3[COMMON] unsigned int 
  5244 ;; Auto vars:     Size  Location     Type
  5245 ;;  CRC_input       1    3[BANK0 ] PTR unsigned char 
  5246 ;;		 -> rf_buf(18), 
  5247 ;;  CRC_acc         2    6[BANK0 ] unsigned short 
  5248 ;;  i               1    5[BANK0 ] unsigned char 
  5249 ;;  k               1    4[BANK0 ] unsigned char 
  5250 ;; Return value:  Size  Location     Type
  5251 ;;                  2    3[COMMON] unsigned short 
  5252 ;; Registers used:
  5253 ;;		wreg, fsr0l, fsr0h, status,2, status,0, btemp+1
  5254 ;; Tracked objects:
  5255 ;;		On entry : 160/0
  5256 ;;		On exit  : 160/0
  5257 ;;		Unchanged: FFE9F/0
  5258 ;; Data sizes:     COMMON   BANK0   BANK1   BANK3   BANK2
  5259 ;;      Params:         2       0       0       0       0
  5260 ;;      Locals:         0       5       0       0       0
  5261 ;;      Temps:          0       3       0       0       0
  5262 ;;      Totals:         2       8       0       0       0
  5263 ;;Total ram usage:       10 bytes
  5264 ;; Hardware stack levels used:    1
  5265 ;; Hardware stack levels required when called:    2
  5266 ;; This function calls:
  5267 ;;		Nothing
  5268 ;; This function is called by:
  5269 ;;		_rx_data
  5270 ;; This function uses a non-reentrant model
  5271 ;;
  5272  0ED9                     _UpdateCRC:	
  5273                           
  5274                           ; Regs used in _UpdateCRC: [wreg-fsr0h+status,2+status,0+btemp+1]
  5275                           ;UpdateCRC@CRC_input stored from wreg
  5276  0ED9  00D3               	movwf	UpdateCRC@CRC_input
  5277  0EDA  3055               	movlw	85
  5278                           
  5279                           ;recive.c: 43: unsigned char i,k = 0;
  5280  0EDB  01D4               	clrf	UpdateCRC@k
  5281                           
  5282                           ;recive.c: 44: unsigned short CRC_acc = 0x5555;
  5283  0EDC  00D6               	movwf	UpdateCRC@CRC_acc
  5284  0EDD  00D7               	movwf	UpdateCRC@CRC_acc+1
  5285  0EDE                     l14866:	
  5286                           ;recive.c: 46: while (len--)
  5287                           
  5288  0EDE  3001               	movlw	1
  5289  0EDF  02F3               	subwf	UpdateCRC@len,f
  5290  0EE0  3000               	movlw	0
  5291  0EE1  1C03               	skipc
  5292  0EE2  03F4               	decf	UpdateCRC@len+1,f
  5293  0EE3  02F4               	subwf	UpdateCRC@len+1,f
  5294  0EE4  0A73               	incf	UpdateCRC@len,w
  5295  0EE5  1903               	skipnz
  5296  0EE6  0A74               	incf	UpdateCRC@len+1,w
  5297  0EE7  1903               	btfsc	3,2
  5298  0EE8  2F0B               	goto	l14868
  5299                           
  5300                           ;recive.c: 47: {
  5301                           ;recive.c: 48: CRC_acc = CRC_acc ^ (CRC_input[k++] << 8);
  5302  0EE9  0854               	movf	UpdateCRC@k,w
  5303  0EEA  0753               	addwf	UpdateCRC@CRC_input,w
  5304  0EEB  00D0               	movwf	??_UpdateCRC
  5305  0EEC  0084               	movwf	4
  5306  0EED  0800               	movf	0,w
  5307  0EEE  00D1               	movwf	??_UpdateCRC+1
  5308  0EEF  01D2               	clrf	??_UpdateCRC+2
  5309  0EF0  00D2               	movwf	??_UpdateCRC+2
  5310  0EF1  01D1               	clrf	??_UpdateCRC+1
  5311  0EF2  0851               	movf	??_UpdateCRC+1,w
  5312  0EF3  06D6               	xorwf	UpdateCRC@CRC_acc,f
  5313  0EF4  0852               	movf	??_UpdateCRC+2,w
  5314  0EF5  06D7               	xorwf	UpdateCRC@CRC_acc+1,f
  5315  0EF6  0AD4               	incf	UpdateCRC@k,f
  5316                           
  5317                           ;recive.c: 50: for (i = 0; i < 8; i++)
  5318  0EF7  01D5               	clrf	UpdateCRC@i
  5319  0EF8                     l9804:	
  5320                           
  5321                           ;recive.c: 51: {
  5322                           ;recive.c: 52: if ((CRC_acc & 0x8000) == 0x8000)
  5323  0EF8  1FD7               	btfss	UpdateCRC@CRC_acc+1,7
  5324  0EF9  2F02               	goto	l14862
  5325  0EFA  3021               	movlw	33
  5326                           
  5327                           ;recive.c: 53: {
  5328                           ;recive.c: 54: CRC_acc = CRC_acc << 1;
  5329  0EFB  1003               	clrc
  5330  0EFC  0DD6               	rlf	UpdateCRC@CRC_acc,f
  5331  0EFD  0DD7               	rlf	UpdateCRC@CRC_acc+1,f
  5332                           
  5333                           ;recive.c: 55: CRC_acc ^= 0x1021;
  5334  0EFE  06D6               	xorwf	UpdateCRC@CRC_acc,f
  5335  0EFF  3010               	movlw	16
  5336  0F00  06D7               	xorwf	UpdateCRC@CRC_acc+1,f
  5337                           
  5338                           ;recive.c: 56: }
  5339  0F01  2F05               	goto	l9807
  5340  0F02                     l14862:	
  5341                           
  5342                           ;recive.c: 57: else
  5343                           ;recive.c: 58: {
  5344                           ;recive.c: 59: CRC_acc = CRC_acc << 1;
  5345  0F02  1003               	clrc
  5346  0F03  0DD6               	rlf	UpdateCRC@CRC_acc,f
  5347  0F04  0DD7               	rlf	UpdateCRC@CRC_acc+1,f
  5348  0F05                     l9807:	
  5349  0F05  3008               	movlw	8
  5350  0F06  0AD5               	incf	UpdateCRC@i,f
  5351  0F07  0255               	subwf	UpdateCRC@i,w
  5352  0F08  1803               	btfsc	3,0
  5353  0F09  2EDE               	goto	l14866
  5354  0F0A  2EF8               	goto	l9804
  5355  0F0B                     l14868:	
  5356                           
  5357                           ;recive.c: 60: }
  5358                           ;recive.c: 61: }
  5359                           ;recive.c: 62: }
  5360                           ;recive.c: 63: return CRC_acc;
  5361  0F0B  0857               	movf	UpdateCRC@CRC_acc+1,w
  5362  0F0C  00F4               	movwf	?_UpdateCRC+1
  5363  0F0D  0856               	movf	UpdateCRC@CRC_acc,w
  5364  0F0E  00F3               	movwf	?_UpdateCRC
  5365  0F0F  0008               	return
  5366  0F10                     __end_of_UpdateCRC:	
  5367  0F10                     __ptext1105:	
  5368 ;; =============== function _AT24C02_Write_Msg ends ============
  5369                           
  5370                           
  5371 ;; *************** function _RF_RxData *****************
  5372 ;; Defined at:
  5373 ;;		line 134 in file "C:\Users\Andrew\Desktop\EleMatch\PAV03\FWSWES-PAV03-SWITCHES-PAN2416AV\src\rf297L.c"
  5374 ;; Parameters:    Size  Location     Type
  5375 ;;  payload_buff    1    wreg     PTR unsigned char 
  5376 ;;		 -> rf_buf(18), 
  5377 ;;  length          1    4[BANK0 ] unsigned char 
  5378 ;; Auto vars:     Size  Location     Type
  5379 ;;  payload_buff    1    6[BANK0 ] PTR unsigned char 
  5380 ;;		 -> rf_buf(18), 
  5381 ;; Return value:  Size  Location     Type
  5382 ;;                  1    wreg      unsigned char 
  5383 ;; Registers used:
  5384 ;;		wreg, fsr0l, fsr0h, status,2, status,0, pclath, cstack
  5385 ;; Tracked objects:
  5386 ;;		On entry : 60/0
  5387 ;;		On exit  : 60/0
  5388 ;;		Unchanged: FFE9F/0
  5389 ;; Data sizes:     COMMON   BANK0   BANK1   BANK3   BANK2
  5390 ;;      Params:         0       1       0       0       0
  5391 ;;      Locals:         0       1       0       0       0
  5392 ;;      Temps:          0       1       0       0       0
  5393 ;;      Totals:         0       3       0       0       0
  5394 ;;Total ram usage:        3 bytes
  5395 ;; Hardware stack levels used:    1
  5396 ;; Hardware stack levels required when called:    5
  5397 ;; This function calls:
  5398 ;;		_RF_GetStatus
  5399 ;;		_RF_Read_Buff
  5400 ;;		_RF_ClearFIFO
  5401 ;;		_RF_ClearStatus
  5402 ;; This function is called by:
  5403 ;;		_rx_data
  5404 ;; This function uses a non-reentrant model
  5405 ;;
  5406  0F10                     _RF_RxData:	
  5407                           
  5408                           ; Regs used in _RF_RxData: [wreg-fsr0h+status,2+status,0+pclath+cstack]
  5409                           ;RF_RxData@payload_buff stored from wreg
  5410  0F10  00D6               	movwf	RF_RxData@payload_buff
  5411                           
  5412                           ;rf297L.c: 135: if(!(RF_GetStatus() & 0X40))
  5413  0F11  27E8  158A         	fcall	_RF_GetStatus
  5414  0F13  00D5               	movwf	??_RF_RxData
  5415  0F14  1F55               	btfss	??_RF_RxData,6
  5416                           
  5417                           ;rf297L.c: 136: {
  5418                           ;rf297L.c: 137: return 0;
  5419  0F15  3400               	retlw	0
  5420                           
  5421                           ;rf297L.c: 138: }
  5422                           ;rf297L.c: 139: RF_Read_Buff(0x61, payload_buff, length);
  5423  0F16  0856               	movf	RF_RxData@payload_buff,w
  5424  0F17  00D0               	movwf	?_RF_Read_Buff
  5425  0F18  0854               	movf	RF_RxData@length,w
  5426  0F19  00D1               	movwf	?_RF_Read_Buff+1
  5427  0F1A  3061               	movlw	97
  5428  0F1B  2721  158A         	fcall	_RF_Read_Buff
  5429                           
  5430                           ;rf297L.c: 141: RF_ClearFIFO();
  5431  0F1D  27EC  158A         	fcall	_RF_ClearFIFO
  5432                           
  5433                           ;rf297L.c: 142: RF_ClearStatus();
  5434  0F1F  27FC               	fcall	_RF_ClearStatus
  5435                           
  5436                           ;rf297L.c: 143: return 1;
  5437  0F20  3401               	retlw	1
  5438  0F21                     __end_of_RF_RxData:	
  5439  0F21                     __ptext1122:	
  5440 ;; =============== function _RF_ReadReg ends ============
  5441                           
  5442                           
  5443 ;; *************** function _RF_Read_Buff *****************
  5444 ;; Defined at:
  5445 ;;		line 275 in file "C:\Users\Andrew\Desktop\EleMatch\PAV03\FWSWES-PAV03-SWITCHES-PAN2416AV\src\rf297L.c"
  5446 ;; Parameters:    Size  Location     Type
  5447 ;;  reg_addr        1    wreg     unsigned char 
  5448 ;;  pBuff           1    0[BANK0 ] PTR unsigned char 
  5449 ;;		 -> rf_buf(18), 
  5450 ;;  length          1    1[BANK0 ] unsigned char 
  5451 ;; Auto vars:     Size  Location     Type
  5452 ;;  reg_addr        1    2[BANK0 ] unsigned char 
  5453 ;;  byte_ctr        1    3[BANK0 ] unsigned char 
  5454 ;; Return value:  Size  Location     Type
  5455 ;;		None               void
  5456 ;; Registers used:
  5457 ;;		wreg, fsr0l, fsr0h, status,2, status,0, pclath, cstack
  5458 ;; Tracked objects:
  5459 ;;		On entry : 60/0
  5460 ;;		On exit  : 60/0
  5461 ;;		Unchanged: FFE9F/0
  5462 ;; Data sizes:     COMMON   BANK0   BANK1   BANK3   BANK2
  5463 ;;      Params:         0       2       0       0       0
  5464 ;;      Locals:         0       2       0       0       0
  5465 ;;      Temps:          1       0       0       0       0
  5466 ;;      Totals:         1       4       0       0       0
  5467 ;;Total ram usage:        5 bytes
  5468 ;; Hardware stack levels used:    1
  5469 ;; Hardware stack levels required when called:    3
  5470 ;; This function calls:
  5471 ;;		_SPI_RW
  5472 ;; This function is called by:
  5473 ;;		_RF_RxData
  5474 ;; This function uses a non-reentrant model
  5475 ;;
  5476  0F21                     _RF_Read_Buff:	
  5477                           
  5478                           ; Regs used in _RF_Read_Buff: [wreg-fsr0h+status,2+status,0+pclath+cstack]
  5479                           ;RF_Read_Buff@reg_addr stored from wreg
  5480  0F21  00D2               	movwf	RF_Read_Buff@reg_addr
  5481                           
  5482                           ;rf297L.c: 276: unsigned char byte_ctr;
  5483                           ;rf297L.c: 277: RE2=0;
  5484  0F22  1109               	bcf	9,2
  5485                           
  5486                           ;rf297L.c: 278: SPI_RW(reg_addr);
  5487  0F23  27CC  158A         	fcall	_SPI_RW
  5488                           
  5489                           ;rf297L.c: 279: for(byte_ctr=0;byte_ctr<length;byte_ctr++){
  5490  0F25  01D3               	clrf	RF_Read_Buff@byte_ctr
  5491  0F26                     l16198:	
  5492  0F26  0851               	movf	RF_Read_Buff@length,w
  5493  0F27  0253               	subwf	RF_Read_Buff@byte_ctr,w
  5494  0F28  1803               	btfsc	3,0
  5495  0F29  2F35               	goto	l5197
  5496                           
  5497                           ;rf297L.c: 280: pBuff[byte_ctr] = SPI_RW(0);
  5498  0F2A  0853               	movf	RF_Read_Buff@byte_ctr,w
  5499  0F2B  0750               	addwf	RF_Read_Buff@pBuff,w
  5500  0F2C  00F5               	movwf	??_RF_Read_Buff
  5501  0F2D  0084               	movwf	4
  5502  0F2E  3000               	movlw	0
  5503  0F2F  27CC  158A         	fcall	_SPI_RW
  5504  0F31  1383               	bcf	3,7	;select IRP bank0
  5505  0F32  0080               	movwf	0
  5506  0F33  0AD3               	incf	RF_Read_Buff@byte_ctr,f
  5507  0F34  2F26               	goto	l16198
  5508  0F35                     l5197:	
  5509                           
  5510                           ;rf297L.c: 281: }
  5511                           ;rf297L.c: 282: RE2=1;
  5512  0F35  1509               	bsf	9,2
  5513  0F36  0008               	return
  5514  0F37                     __end_of_RF_Read_Buff:	
  5515  0F37                     __ptext1113:	
  5516 ;; =============== function _RF_Set_RxMode ends ============
  5517                           
  5518                           
  5519 ;; *************** function _RF_Init *****************
  5520 ;; Defined at:
  5521 ;;		line 45 in file "C:\Users\Andrew\Desktop\EleMatch\PAV03\FWSWES-PAV03-SWITCHES-PAN2416AV\src\rf297L.c"
  5522 ;; Parameters:    Size  Location     Type
  5523 ;;		None
  5524 ;; Auto vars:     Size  Location     Type
  5525 ;;  feature         1    0        unsigned char 
  5526 ;; Return value:  Size  Location     Type
  5527 ;;		None               void
  5528 ;; Registers used:
  5529 ;;		wreg, fsr0l, fsr0h, status,2, status,0, pclath, cstack
  5530 ;; Tracked objects:
  5531 ;;		On entry : 60/20
  5532 ;;		On exit  : 60/0
  5533 ;;		Unchanged: FFF9F/0
  5534 ;; Data sizes:     COMMON   BANK0   BANK1   BANK3   BANK2
  5535 ;;      Params:         0       0       0       0       0
  5536 ;;      Locals:         0       1       0       0       0
  5537 ;;      Temps:          0       0       0       0       0
  5538 ;;      Totals:         0       1       0       0       0
  5539 ;;Total ram usage:        1 bytes
  5540 ;; Hardware stack levels used:    1
  5541 ;; Hardware stack levels required when called:    4
  5542 ;; This function calls:
  5543 ;;		_SPI_init
  5544 ;;		_RF_WriteReg
  5545 ;;		_RF_Write_Buff
  5546 ;; This function is called by:
  5547 ;;		_main
  5548 ;; This function uses a non-reentrant model
  5549 ;;
  5550  0F37                     _RF_Init:	
  5551                           
  5552                           ;rf297L.c: 76: SPI_init();
  5553                           
  5554                           ; Regs used in _RF_Init: [wreg-fsr0h+status,2+status,0+pclath+cstack]
  5555  0F37  27E1  158A         	fcall	_SPI_init
  5556                           
  5557                           ;rf297L.c: 77: RF_WriteReg(0x53, 0x5A);
  5558  0F39  305A               	movlw	90
  5559  0F3A  00F5               	movwf	?_RF_WriteReg
  5560  0F3B  3053               	movlw	83
  5561  0F3C  27AE  158A         	fcall	_RF_WriteReg
  5562                           
  5563                           ;rf297L.c: 78: RF_WriteReg(0x53, 0XA5);
  5564  0F3E  30A5               	movlw	165
  5565  0F3F  00F5               	movwf	?_RF_WriteReg
  5566  0F40  3053               	movlw	83
  5567  0F41  27AE  158A         	fcall	_RF_WriteReg
  5568  0F43  30E1               	movlw	225
  5569                           
  5570                           ;rf297L.c: 79: RF_WriteReg(0xE1, 0);
  5571  0F44  01F5               	clrf	?_RF_WriteReg
  5572  0F45  27AE  158A         	fcall	_RF_WriteReg
  5573  0F47  30E2               	movlw	226
  5574                           
  5575                           ;rf297L.c: 80: RF_WriteReg(0xE2, 0);
  5576  0F48  01F5               	clrf	?_RF_WriteReg
  5577  0F49  27AE  158A         	fcall	_RF_WriteReg
  5578                           
  5579                           ;rf297L.c: 81: RF_WriteReg(0x20 + 0x07, 0x70);
  5580  0F4B  3070               	movlw	112
  5581  0F4C  00F5               	movwf	?_RF_WriteReg
  5582  0F4D  3027               	movlw	39
  5583  0F4E  27AE  158A         	fcall	_RF_WriteReg
  5584  0F50  3022               	movlw	34
  5585                           
  5586                           ;rf297L.c: 82: RF_WriteReg(0x20 + 0x02, 0x01);
  5587  0F51  01F5               	clrf	?_RF_WriteReg
  5588  0F52  0AF5               	incf	?_RF_WriteReg,f
  5589  0F53  27AE  158A         	fcall	_RF_WriteReg
  5590  0F55  3023               	movlw	35
  5591                           
  5592                           ;rf297L.c: 83: RF_WriteReg(0x20 + 0x03, 0x01);
  5593  0F56  01F5               	clrf	?_RF_WriteReg
  5594  0F57  0AF5               	incf	?_RF_WriteReg,f
  5595  0F58  27AE  158A         	fcall	_RF_WriteReg
  5596                           
  5597                           ;rf297L.c: 84: RF_WriteReg(0x20 + 0x05, 26);
  5598  0F5A  301A               	movlw	26
  5599  0F5B  00F5               	movwf	?_RF_WriteReg
  5600  0F5C  3025               	movlw	37
  5601  0F5D  27AE  158A         	fcall	_RF_WriteReg
  5602                           
  5603                           ;rf297L.c: 85: RF_WriteReg(0x20 + 0x11, 18);
  5604  0F5F  3012               	movlw	18
  5605  0F60  00F5               	movwf	?_RF_WriteReg
  5606  0F61  3031               	movlw	49
  5607  0F62  27AE  158A         	fcall	_RF_WriteReg
  5608                           
  5609                           ;rf297L.c: 86: RF_Write_Buff(0x20 + 0x10, TX_ADDRESS_DEF, sizeof(TX_ADDRESS_DEF));
  5610  0F64  3075               	movlw	(_TX_ADDRESS_DEF-__stringbase)& (0+255)
  5611  0F65  00D0               	movwf	?_RF_Write_Buff
  5612  0F66  3003               	movlw	3
  5613  0F67  00D1               	movwf	?_RF_Write_Buff+1
  5614  0F68  3030               	movlw	48
  5615  0F69  27B7  158A         	fcall	_RF_Write_Buff
  5616                           
  5617                           ;rf297L.c: 87: RF_Write_Buff(0x20 + 0x0A,RX_ADDRESS_DEF, sizeof(RX_ADDRESS_DEF));
  5618  0F6B  3072               	movlw	(_RX_ADDRESS_DEF-__stringbase)& (0+255)
  5619  0F6C  00D0               	movwf	?_RF_Write_Buff
  5620  0F6D  3003               	movlw	3
  5621  0F6E  00D1               	movwf	?_RF_Write_Buff+1
  5622  0F6F  302A               	movlw	42
  5623  0F70  27B7  158A         	fcall	_RF_Write_Buff
  5624                           
  5625                           ;rf297L.c: 88: RF_Write_Buff(0x20 + 0x1F, BB_cal_data, sizeof(BB_cal_data));
  5626  0F72  3061               	movlw	(RF_Init@BB_cal_data-__stringbase)& (0+255)
  5627  0F73  00D0               	movwf	?_RF_Write_Buff
  5628  0F74  3005               	movlw	5
  5629  0F75  00D1               	movwf	?_RF_Write_Buff+1
  5630  0F76  303F               	movlw	63
  5631  0F77  27B7  158A         	fcall	_RF_Write_Buff
  5632                           
  5633                           ;rf297L.c: 89: RF_Write_Buff(0x20 + 0x1A, RF_cal2_data, sizeof(RF_cal2_data));
  5634  0F79  3056               	movlw	(RF_Init@RF_cal2_data-__stringbase)& (0+255)
  5635  0F7A  00D0               	movwf	?_RF_Write_Buff
  5636  0F7B  3006               	movlw	6
  5637  0F7C  00D1               	movwf	?_RF_Write_Buff+1
  5638  0F7D  303A               	movlw	58
  5639  0F7E  27B7  158A         	fcall	_RF_Write_Buff
  5640                           
  5641                           ;rf297L.c: 90: RF_Write_Buff(0x20 + 0x19, Dem_cal_data, sizeof(Dem_cal_data));
  5642  0F80  3079               	movlw	(RF_Init@Dem_cal_data-__stringbase)& (0+255)
  5643  0F81  00D0               	movwf	?_RF_Write_Buff
  5644  0F82  3039               	movlw	57
  5645  0F83  01D1               	clrf	?_RF_Write_Buff+1
  5646  0F84  0AD1               	incf	?_RF_Write_Buff+1,f
  5647  0F85  27B7  158A         	fcall	_RF_Write_Buff
  5648                           
  5649                           ;rf297L.c: 91: RF_Write_Buff(0x20 + 0x1E, RF_cal_data, sizeof(RF_cal_data));
  5650  0F87  306F               	movlw	(RF_Init@RF_cal_data-__stringbase)& (0+255)
  5651  0F88  00D0               	movwf	?_RF_Write_Buff
  5652  0F89  3003               	movlw	3
  5653  0F8A  00D1               	movwf	?_RF_Write_Buff+1
  5654  0F8B  303E               	movlw	62
  5655  0F8C  27B7  158A         	fcall	_RF_Write_Buff
  5656                           
  5657                           ;rf297L.c: 92: RF_Write_Buff(0x20 + 0x1B, Dem_cal2_data,sizeof(Dem_cal2_data));
  5658  0F8E  306C               	movlw	(RF_Init@Dem_cal2_data-__stringbase)& (0+255)
  5659  0F8F  00D0               	movwf	?_RF_Write_Buff
  5660  0F90  3003               	movlw	3
  5661  0F91  00D1               	movwf	?_RF_Write_Buff+1
  5662  0F92  303B               	movlw	59
  5663  0F93  27B7  158A         	fcall	_RF_Write_Buff
  5664  0F95  303C               	movlw	60
  5665                           
  5666                           ;rf297L.c: 93: RF_WriteReg(0x20 + 0x1C, 0x00);
  5667  0F96  01F5               	clrf	?_RF_WriteReg
  5668  0F97  27AE  158A         	fcall	_RF_WriteReg
  5669                           
  5670                           ;rf297L.c: 94: RF_WriteReg(0x20 + 0x06, (0x0e |0X00));
  5671  0F99  300E               	movlw	14
  5672  0F9A  00F5               	movwf	?_RF_WriteReg
  5673  0F9B  3026               	movlw	38
  5674  0F9C  27AE  158A         	fcall	_RF_WriteReg
  5675                           
  5676                           ;rf297L.c: 95: RF_WriteReg(0x50, 0x73);
  5677  0F9E  3073               	movlw	115
  5678  0F9F  00F5               	movwf	?_RF_WriteReg
  5679  0FA0  3050               	movlw	80
  5680  0FA1  27AE  158A         	fcall	_RF_WriteReg
  5681  0FA3  3024               	movlw	36
  5682                           
  5683                           ;rf297L.c: 101: RF_WriteReg(0x20 + 0x04,0x00);
  5684  0FA4  01F5               	clrf	?_RF_WriteReg
  5685  0FA5  27AE  158A         	fcall	_RF_WriteReg
  5686  0FA7  3021               	movlw	33
  5687                           
  5688                           ;rf297L.c: 102: RF_WriteReg(0x20 + 0x01, 0x00);
  5689  0FA8  01F5               	clrf	?_RF_WriteReg
  5690  0FA9  27AE  158A         	fcall	_RF_WriteReg
  5691                           
  5692                           ;rf297L.c: 113: if(18 >32){
  5693  0FAB  303D               	movlw	61
  5694                           
  5695                           ;rf297L.c: 115: }
  5696                           ;rf297L.c: 117: RF_WriteReg(0x20 + 0x1D, feature);
  5697  0FAC  01F5               	clrf	?_RF_WriteReg
  5698  0FAD  2FAE               	ljmp	_RF_WriteReg
  5699  0FAE                     __end_of_RF_Init:	
  5700  0FAE                     __ptext1124:	
  5701 ;; =============== function _RF_Write_Buff ends ============
  5702                           
  5703                           
  5704 ;; *************** function _RF_WriteReg *****************
  5705 ;; Defined at:
  5706 ;;		line 298 in file "C:\Users\Andrew\Desktop\EleMatch\PAV03\FWSWES-PAV03-SWITCHES-PAN2416AV\src\rf297L.c"
  5707 ;; Parameters:    Size  Location     Type
  5708 ;;  reg_addr        1    wreg     unsigned char 
  5709 ;;  write_data      1    5[COMMON] unsigned char 
  5710 ;; Auto vars:     Size  Location     Type
  5711 ;;  reg_addr        1    0[BANK0 ] unsigned char 
  5712 ;; Return value:  Size  Location     Type
  5713 ;;		None               void
  5714 ;; Registers used:
  5715 ;;		wreg, status,2, status,0, pclath, cstack
  5716 ;; Tracked objects:
  5717 ;;		On entry : 40/0
  5718 ;;		On exit  : 60/0
  5719 ;;		Unchanged: FFF9F/0
  5720 ;; Data sizes:     COMMON   BANK0   BANK1   BANK3   BANK2
  5721 ;;      Params:         1       0       0       0       0
  5722 ;;      Locals:         0       1       0       0       0
  5723 ;;      Temps:          0       0       0       0       0
  5724 ;;      Totals:         1       1       0       0       0
  5725 ;;Total ram usage:        2 bytes
  5726 ;; Hardware stack levels used:    1
  5727 ;; Hardware stack levels required when called:    3
  5728 ;; This function calls:
  5729 ;;		_SPI_RW
  5730 ;; This function is called by:
  5731 ;;		_RF_Init
  5732 ;;		_RF_ClearFIFO
  5733 ;;		_RF_ClearStatus
  5734 ;;		_RF_Set_RxMode
  5735 ;; This function uses a non-reentrant model
  5736 ;;
  5737  0FAE                     _RF_WriteReg:	
  5738                           
  5739                           ; Regs used in _RF_WriteReg: [wreg+status,2+status,0+pclath+cstack]
  5740                           ;RF_WriteReg@reg_addr stored from wreg
  5741  0FAE  1283               	bcf	3,5	;RP0=0, select bank0
  5742  0FAF  00D0               	movwf	RF_WriteReg@reg_addr
  5743                           
  5744                           ;rf297L.c: 299: RE2=0;
  5745  0FB0  1109               	bcf	9,2
  5746                           
  5747                           ;rf297L.c: 300: SPI_RW(reg_addr);
  5748  0FB1  27CC  158A         	fcall	_SPI_RW
  5749                           
  5750                           ;rf297L.c: 301: SPI_RW(write_data);
  5751  0FB3  0875               	movf	RF_WriteReg@write_data,w
  5752  0FB4  27CC               	fcall	_SPI_RW
  5753                           
  5754                           ;rf297L.c: 302: RE2=1;
  5755  0FB5  1509               	bsf	9,2
  5756  0FB6  0008               	return
  5757  0FB7                     __end_of_RF_WriteReg:	
  5758  0FB7                     __ptext1123:	
  5759 ;; =============== function _RF_Read_Buff ends ============
  5760                           
  5761                           
  5762 ;; *************** function _RF_Write_Buff *****************
  5763 ;; Defined at:
  5764 ;;		line 286 in file "C:\Users\Andrew\Desktop\EleMatch\PAV03\FWSWES-PAV03-SWITCHES-PAN2416AV\src\rf297L.c"
  5765 ;; Parameters:    Size  Location     Type
  5766 ;;  reg_addr        1    wreg     unsigned char 
  5767 ;;  pBuff           1    0[BANK0 ] PTR unsigned char 
  5768 ;;		 -> RF_Carrier@Dem_cal2_data(3), RF_Carrier@RF_cal_data(3), RF_Carrier@Dem_cal_data(1), RF_Carrier@RF_cal2_data(6), 
  5769 ;;		 -> RF_Carrier@BB_cal_data(5), RF_Init@Dem_cal2_data(3), RF_Init@RF_cal_data(3), RF_Init@Dem_cal_data(1), 
  5770 ;;		 -> RF_Init@RF_cal2_data(6), RF_Init@BB_cal_data(5), RX_ADDRESS_DEF(3), TX_ADDRESS_DEF(3), 
  5771 ;;  length          1    1[BANK0 ] unsigned char 
  5772 ;; Auto vars:     Size  Location     Type
  5773 ;;  reg_addr        1    2[BANK0 ] unsigned char 
  5774 ;;  i               1    3[BANK0 ] unsigned char 
  5775 ;; Return value:  Size  Location     Type
  5776 ;;		None               void
  5777 ;; Registers used:
  5778 ;;		wreg, fsr0l, fsr0h, status,2, status,0, pclath, cstack
  5779 ;; Tracked objects:
  5780 ;;		On entry : 60/0
  5781 ;;		On exit  : 60/0
  5782 ;;		Unchanged: FFF9F/0
  5783 ;; Data sizes:     COMMON   BANK0   BANK1   BANK3   BANK2
  5784 ;;      Params:         0       2       0       0       0
  5785 ;;      Locals:         0       2       0       0       0
  5786 ;;      Temps:          0       0       0       0       0
  5787 ;;      Totals:         0       4       0       0       0
  5788 ;;Total ram usage:        4 bytes
  5789 ;; Hardware stack levels used:    1
  5790 ;; Hardware stack levels required when called:    3
  5791 ;; This function calls:
  5792 ;;		_SPI_RW
  5793 ;; This function is called by:
  5794 ;;		_RF_Init
  5795 ;; This function uses a non-reentrant model
  5796 ;;
  5797  0FB7                     _RF_Write_Buff:	
  5798                           
  5799                           ; Regs used in _RF_Write_Buff: [wreg-fsr0h+status,2+status,0+pclath+cstack]
  5800                           ;RF_Write_Buff@reg_addr stored from wreg
  5801  0FB7  00D2               	movwf	RF_Write_Buff@reg_addr
  5802                           
  5803                           ;rf297L.c: 287: unsigned char i;
  5804                           ;rf297L.c: 288: RE2=0;
  5805  0FB8  1109               	bcf	9,2
  5806                           
  5807                           ;rf297L.c: 289: SPI_RW(reg_addr);
  5808  0FB9  27CC  158A         	fcall	_SPI_RW
  5809                           
  5810                           ;rf297L.c: 290: for(i=0;i<length;i++)
  5811  0FBB  01D3               	clrf	RF_Write_Buff@i
  5812  0FBC                     l16186:	
  5813  0FBC  0851               	movf	RF_Write_Buff@length,w
  5814  0FBD  0253               	subwf	RF_Write_Buff@i,w
  5815  0FBE  1803               	btfsc	3,0
  5816  0FBF  2FCA               	goto	l5203
  5817                           
  5818                           ;rf297L.c: 291: {
  5819                           ;rf297L.c: 292: SPI_RW(pBuff[i]);
  5820  0FC0  0853               	movf	RF_Write_Buff@i,w
  5821  0FC1  0750               	addwf	RF_Write_Buff@pBuff,w
  5822  0FC2  0084               	movwf	4
  5823  0FC3  118A  2700  158A   	fcall	stringdir
  5824  0FC6  27CC  158A         	fcall	_SPI_RW
  5825  0FC8  0AD3               	incf	RF_Write_Buff@i,f
  5826  0FC9  2FBC               	goto	l16186
  5827  0FCA                     l5203:	
  5828                           
  5829                           ;rf297L.c: 293: }
  5830                           ;rf297L.c: 294: RE2=1;
  5831  0FCA  1509               	bsf	9,2
  5832  0FCB  0008               	return
  5833  0FCC                     __end_of_RF_Write_Buff:	
  5834  0FCC                     __ptext1128:	
  5835 ;; =============== function _UpdateCRC ends ============
  5836                           
  5837                           
  5838 ;; *************** function _SPI_RW *****************
  5839 ;; Defined at:
  5840 ;;		line 331 in file "C:\Users\Andrew\Desktop\EleMatch\PAV03\FWSWES-PAV03-SWITCHES-PAN2416AV\src\rf297L.c"
  5841 ;; Parameters:    Size  Location     Type
  5842 ;;  read_reg_add    1    wreg     unsigned char 
  5843 ;; Auto vars:     Size  Location     Type
  5844 ;;  read_reg_add    1    3[COMMON] unsigned char 
  5845 ;;  i               1    4[COMMON] unsigned char 
  5846 ;; Return value:  Size  Location     Type
  5847 ;;                  1    wreg      unsigned char 
  5848 ;; Registers used:
  5849 ;;		wreg, status,2, status,0
  5850 ;; Tracked objects:
  5851 ;;		On entry : 60/0
  5852 ;;		On exit  : 60/0
  5853 ;;		Unchanged: FFF9F/0
  5854 ;; Data sizes:     COMMON   BANK0   BANK1   BANK3   BANK2
  5855 ;;      Params:         0       0       0       0       0
  5856 ;;      Locals:         2       0       0       0       0
  5857 ;;      Temps:          0       0       0       0       0
  5858 ;;      Totals:         2       0       0       0       0
  5859 ;;Total ram usage:        2 bytes
  5860 ;; Hardware stack levels used:    1
  5861 ;; Hardware stack levels required when called:    2
  5862 ;; This function calls:
  5863 ;;		Nothing
  5864 ;; This function is called by:
  5865 ;;		_RF_Read_Buff
  5866 ;;		_RF_Write_Buff
  5867 ;;		_RF_WriteReg
  5868 ;;		_RF_ReadReg
  5869 ;; This function uses a non-reentrant model
  5870 ;;
  5871  0FCC                     _SPI_RW:	
  5872                           
  5873                           ; Regs used in _SPI_RW: [wreg+status,2+status,0]
  5874                           ;SPI_RW@read_reg_addr stored from wreg
  5875  0FCC  00F3               	movwf	SPI_RW@read_reg_addr
  5876                           
  5877                           ;rf297L.c: 332: unsigned char i;
  5878                           ;rf297L.c: 333: for(i = 0; i < 8; i++)
  5879  0FCD  01F4               	clrf	SPI_RW@i
  5880                           
  5881                           ;rf297L.c: 334: {
  5882                           ;rf297L.c: 335: RE1=0;
  5883  0FCE  1089               	bcf	9,1
  5884  0FCF                     L12:	
  5885                           
  5886                           ;rf297L.c: 336: if(read_reg_addr & 0x80)
  5887  0FCF  1FF3               	btfss	SPI_RW@read_reg_addr,7
  5888  0FD0  2FD3               	goto	l5218
  5889                           
  5890                           ;rf297L.c: 337: {
  5891                           ;rf297L.c: 338: RA5=1;
  5892  0FD1  1685               	bsf	5,5
  5893                           
  5894                           ;rf297L.c: 339: }
  5895  0FD2  2FD4               	goto	l5219
  5896  0FD3                     l5218:	
  5897                           
  5898                           ;rf297L.c: 340: else
  5899                           ;rf297L.c: 341: {
  5900                           ;rf297L.c: 342: RA5=0;
  5901  0FD3  1285               	bcf	5,5
  5902  0FD4                     l5219:	
  5903                           
  5904                           ;rf297L.c: 343: }
  5905                           ;rf297L.c: 344: read_reg_addr = read_reg_addr << 1;
  5906  0FD4  1003               	clrc
  5907  0FD5  0DF3               	rlf	SPI_RW@read_reg_addr,f
  5908                           
  5909                           ;rf297L.c: 345: RE1=1;
  5910  0FD6  1489               	bsf	9,1
  5911                           
  5912                           ;rf297L.c: 346: if( RA4 )
  5913  0FD7  1A05               	btfsc	5,4
  5914                           
  5915                           ;rf297L.c: 347: {
  5916                           ;rf297L.c: 348: read_reg_addr = read_reg_addr | 0x01;
  5917  0FD8  1473               	bsf	SPI_RW@read_reg_addr,0
  5918  0FD9  3008               	movlw	8
  5919  0FDA  0AF4               	incf	SPI_RW@i,f
  5920  0FDB  0274               	subwf	SPI_RW@i,w
  5921                           
  5922                           ;rf297L.c: 349: }
  5923                           ;rf297L.c: 350: }
  5924                           ;rf297L.c: 351: RE1=0;
  5925  0FDC  1089               	bcf	9,1
  5926  0FDD  1C03               	skipc
  5927  0FDE  2FCF               	goto	L12
  5928                           
  5929                           ;rf297L.c: 352: return read_reg_addr;
  5930  0FDF  0873               	movf	SPI_RW@read_reg_addr,w
  5931  0FE0  0008               	return
  5932  0FE1                     __end_of_SPI_RW:	
  5933  0FE1                     __ptext1129:	
  5934 ;; =============== function _SPI_RW ends ============
  5935                           
  5936                           
  5937 ;; *************** function _SPI_init *****************
  5938 ;; Defined at:
  5939 ;;		line 316 in file "C:\Users\Andrew\Desktop\EleMatch\PAV03\FWSWES-PAV03-SWITCHES-PAN2416AV\src\rf297L.c"
  5940 ;; Parameters:    Size  Location     Type
  5941 ;;		None
  5942 ;; Auto vars:     Size  Location     Type
  5943 ;;		None
  5944 ;; Return value:  Size  Location     Type
  5945 ;;		None               void
  5946 ;; Registers used:
  5947 ;;		None
  5948 ;; Tracked objects:
  5949 ;;		On entry : 60/20
  5950 ;;		On exit  : 60/20
  5951 ;;		Unchanged: FFF9F/0
  5952 ;; Data sizes:     COMMON   BANK0   BANK1   BANK3   BANK2
  5953 ;;      Params:         0       0       0       0       0
  5954 ;;      Locals:         0       0       0       0       0
  5955 ;;      Temps:          0       0       0       0       0
  5956 ;;      Totals:         0       0       0       0       0
  5957 ;;Total ram usage:        0 bytes
  5958 ;; Hardware stack levels used:    1
  5959 ;; Hardware stack levels required when called:    2
  5960 ;; This function calls:
  5961 ;;		Nothing
  5962 ;; This function is called by:
  5963 ;;		_RF_Init
  5964 ;; This function uses a non-reentrant model
  5965 ;;
  5966  0FE1                     _SPI_init:	
  5967                           
  5968                           ;rf297L.c: 318: TRISE2 =0;
  5969                           
  5970                           ; Regs used in _SPI_init: []
  5971  0FE1  1109               	bcf	9,2
  5972                           
  5973                           ;rf297L.c: 319: TRISE1=0;
  5974  0FE2  1089               	bcf	9,1
  5975                           
  5976                           ;rf297L.c: 320: TRISA5=0;
  5977  0FE3  1285               	bcf	5,5
  5978                           
  5979                           ;rf297L.c: 321: TRISA7 = 0;
  5980  0FE4  1385               	bcf	5,7
  5981                           
  5982                           ;rf297L.c: 323: TRISA3 = 1;
  5983  0FE5  1585               	bsf	5,3
  5984                           
  5985                           ;rf297L.c: 324: TRISA4=1;
  5986  0FE6  1605               	bsf	5,4
  5987  0FE7  0008               	return
  5988  0FE8                     __end_of_SPI_init:	
  5989  0FE8                     __ptext1110:	
  5990 ;; =============== function _RF_ClearFIFO ends ============
  5991                           
  5992                           
  5993 ;; *************** function _RF_GetStatus *****************
  5994 ;; Defined at:
  5995 ;;		line 254 in file "C:\Users\Andrew\Desktop\EleMatch\PAV03\FWSWES-PAV03-SWITCHES-PAN2416AV\src\rf297L.c"
  5996 ;; Parameters:    Size  Location     Type
  5997 ;;		None
  5998 ;; Auto vars:     Size  Location     Type
  5999 ;;		None
  6000 ;; Return value:  Size  Location     Type
  6001 ;;                  1    wreg      unsigned char 
  6002 ;; Registers used:
  6003 ;;		wreg, status,2, status,0, pclath, cstack
  6004 ;; Tracked objects:
  6005 ;;		On entry : 60/0
  6006 ;;		On exit  : 60/0
  6007 ;;		Unchanged: FFF9F/0
  6008 ;; Data sizes:     COMMON   BANK0   BANK1   BANK3   BANK2
  6009 ;;      Params:         0       0       0       0       0
  6010 ;;      Locals:         0       0       0       0       0
  6011 ;;      Temps:          0       0       0       0       0
  6012 ;;      Totals:         0       0       0       0       0
  6013 ;;Total ram usage:        0 bytes
  6014 ;; Hardware stack levels used:    1
  6015 ;; Hardware stack levels required when called:    4
  6016 ;; This function calls:
  6017 ;;		_RF_ReadReg
  6018 ;; This function is called by:
  6019 ;;		_RF_RxData
  6020 ;; This function uses a non-reentrant model
  6021 ;;
  6022  0FE8                     _RF_GetStatus:	
  6023                           
  6024                           ;rf297L.c: 255: return RF_ReadReg(0x07)&0x70;
  6025                           
  6026                           ; Regs used in _RF_GetStatus: [wreg+status,2+status,0+pclath+cstack]
  6027  0FE8  3007               	movlw	7
  6028  0FE9  27F3               	fcall	_RF_ReadReg
  6029  0FEA  3970               	andlw	112
  6030  0FEB  0008               	return
  6031  0FEC                     __end_of_RF_GetStatus:	
  6032  0FEC                     __ptext1109:	
  6033 ;; =============== function _RF_ClearStatus ends ============
  6034                           
  6035                           
  6036 ;; *************** function _RF_ClearFIFO *****************
  6037 ;; Defined at:
  6038 ;;		line 243 in file "C:\Users\Andrew\Desktop\EleMatch\PAV03\FWSWES-PAV03-SWITCHES-PAN2416AV\src\rf297L.c"
  6039 ;; Parameters:    Size  Location     Type
  6040 ;;		None
  6041 ;; Auto vars:     Size  Location     Type
  6042 ;;		None
  6043 ;; Return value:  Size  Location     Type
  6044 ;;		None               void
  6045 ;; Registers used:
  6046 ;;		wreg, status,2, status,0, pclath, cstack
  6047 ;; Tracked objects:
  6048 ;;		On entry : 60/0
  6049 ;;		On exit  : 60/0
  6050 ;;		Unchanged: FFF9F/0
  6051 ;; Data sizes:     COMMON   BANK0   BANK1   BANK3   BANK2
  6052 ;;      Params:         0       0       0       0       0
  6053 ;;      Locals:         0       0       0       0       0
  6054 ;;      Temps:          0       0       0       0       0
  6055 ;;      Totals:         0       0       0       0       0
  6056 ;;Total ram usage:        0 bytes
  6057 ;; Hardware stack levels used:    1
  6058 ;; Hardware stack levels required when called:    4
  6059 ;; This function calls:
  6060 ;;		_RF_WriteReg
  6061 ;; This function is called by:
  6062 ;;		_RF_RxData
  6063 ;;		_recive_task
  6064 ;; This function uses a non-reentrant model
  6065 ;;
  6066  0FEC                     _RF_ClearFIFO:	
  6067                           
  6068                           ; Regs used in _RF_ClearFIFO: [wreg+status,2+status,0+pclath+cstack]
  6069  0FEC  30E1               	movlw	225
  6070                           
  6071                           ;rf297L.c: 244: RF_WriteReg(0xE1, 0);
  6072  0FED  01F5               	clrf	?_RF_WriteReg
  6073  0FEE  27AE  158A         	fcall	_RF_WriteReg
  6074  0FF0  30E2               	movlw	226
  6075                           
  6076                           ;rf297L.c: 245: RF_WriteReg(0xE2, 0);
  6077  0FF1  01F5               	clrf	?_RF_WriteReg
  6078  0FF2  2FAE               	ljmp	_RF_WriteReg
  6079  0FF3                     __end_of_RF_ClearFIFO:	
  6080  0FF3                     __ptext1121:	
  6081 ;; =============== function _key_scan ends ============
  6082                           
  6083                           
  6084 ;; *************** function _RF_ReadReg *****************
  6085 ;; Defined at:
  6086 ;;		line 306 in file "C:\Users\Andrew\Desktop\EleMatch\PAV03\FWSWES-PAV03-SWITCHES-PAN2416AV\src\rf297L.c"
  6087 ;; Parameters:    Size  Location     Type
  6088 ;;  reg_addr        1    wreg     unsigned char 
  6089 ;; Auto vars:     Size  Location     Type
  6090 ;;  reg_addr        1    0[BANK0 ] unsigned char 
  6091 ;;  tmp             1    1[BANK0 ] unsigned char 
  6092 ;; Return value:  Size  Location     Type
  6093 ;;                  1    wreg      unsigned char 
  6094 ;; Registers used:
  6095 ;;		wreg, status,2, status,0, pclath, cstack
  6096 ;; Tracked objects:
  6097 ;;		On entry : 60/0
  6098 ;;		On exit  : 60/0
  6099 ;;		Unchanged: FFF9F/0
  6100 ;; Data sizes:     COMMON   BANK0   BANK1   BANK3   BANK2
  6101 ;;      Params:         0       0       0       0       0
  6102 ;;      Locals:         0       2       0       0       0
  6103 ;;      Temps:          0       0       0       0       0
  6104 ;;      Totals:         0       2       0       0       0
  6105 ;;Total ram usage:        2 bytes
  6106 ;; Hardware stack levels used:    1
  6107 ;; Hardware stack levels required when called:    3
  6108 ;; This function calls:
  6109 ;;		_SPI_RW
  6110 ;; This function is called by:
  6111 ;;		_RF_GetStatus
  6112 ;; This function uses a non-reentrant model
  6113 ;;
  6114  0FF3                     _RF_ReadReg:	
  6115                           
  6116                           ; Regs used in _RF_ReadReg: [wreg+status,2+status,0+pclath+cstack]
  6117                           ;RF_ReadReg@reg_addr stored from wreg
  6118  0FF3  00D0               	movwf	RF_ReadReg@reg_addr
  6119                           
  6120                           ;rf297L.c: 307: unsigned char tmp;
  6121                           ;rf297L.c: 308: RE2=0;
  6122  0FF4  1109               	bcf	9,2
  6123                           
  6124                           ;rf297L.c: 309: SPI_RW(reg_addr);
  6125  0FF5  27CC  158A         	fcall	_SPI_RW
  6126                           
  6127                           ;rf297L.c: 310: tmp = SPI_RW(0);
  6128  0FF7  3000               	movlw	0
  6129  0FF8  27CC               	fcall	_SPI_RW
  6130  0FF9  00D1               	movwf	RF_ReadReg@tmp
  6131                           
  6132                           ;rf297L.c: 311: RE2=1;
  6133  0FFA  1509               	bsf	9,2
  6134                           
  6135                           ;rf297L.c: 312: return tmp;
  6136  0FFB  0008               	return
  6137  0FFC                     __end_of_RF_ReadReg:	
  6138  0FFC                     __ptext1108:	
  6139 ;; =============== function _AT24C02_Write_Byte ends ============
  6140                           
  6141                           
  6142 ;; *************** function _RF_ClearStatus *****************
  6143 ;; Defined at:
  6144 ;;		line 249 in file "C:\Users\Andrew\Desktop\EleMatch\PAV03\FWSWES-PAV03-SWITCHES-PAN2416AV\src\rf297L.c"
  6145 ;; Parameters:    Size  Location     Type
  6146 ;;		None
  6147 ;; Auto vars:     Size  Location     Type
  6148 ;;		None
  6149 ;; Return value:  Size  Location     Type
  6150 ;;		None               void
  6151 ;; Registers used:
  6152 ;;		wreg, status,2, status,0, pclath, cstack
  6153 ;; Tracked objects:
  6154 ;;		On entry : 60/0
  6155 ;;		On exit  : 60/0
  6156 ;;		Unchanged: FFF9F/0
  6157 ;; Data sizes:     COMMON   BANK0   BANK1   BANK3   BANK2
  6158 ;;      Params:         0       0       0       0       0
  6159 ;;      Locals:         0       0       0       0       0
  6160 ;;      Temps:          0       0       0       0       0
  6161 ;;      Totals:         0       0       0       0       0
  6162 ;;Total ram usage:        0 bytes
  6163 ;; Hardware stack levels used:    1
  6164 ;; Hardware stack levels required when called:    4
  6165 ;; This function calls:
  6166 ;;		_RF_WriteReg
  6167 ;; This function is called by:
  6168 ;;		_RF_RxData
  6169 ;;		_recive_task
  6170 ;; This function uses a non-reentrant model
  6171 ;;
  6172  0FFC                     _RF_ClearStatus:	
  6173  0FFC                     l16270:	
  6174                           ; Regs used in _RF_ClearStatus: [wreg+status,2+status,0+pclath+cstack]
  6175                           
  6176                           
  6177                           ;rf297L.c: 250: RF_WriteReg(0x20 + 0x07,0x70);
  6178  0FFC  3070               	movlw	112
  6179  0FFD  00F5               	movwf	?_RF_WriteReg
  6180  0FFE  3027               	movlw	39
  6181  0FFF  2FAE               	ljmp	_RF_WriteReg
  6182  1000                     __end_of_RF_ClearStatus:	
  6183                           
  6184                           	psect	text1130
  6185  077F                     __ptext1130:	
  6186 ;; =============== function _SPI_init ends ============
  6187                           
  6188                           
  6189 ;; *************** function _delay_task *****************
  6190 ;; Defined at:
  6191 ;;		line 572 in file "C:\Users\Andrew\Desktop\EleMatch\PAV03\FWSWES-PAV03-SWITCHES-PAN2416AV\src\recive.c"
  6192 ;; Parameters:    Size  Location     Type
  6193 ;;		None
  6194 ;; Auto vars:     Size  Location     Type
  6195 ;;		None
  6196 ;; Return value:  Size  Location     Type
  6197 ;;		None               void
  6198 ;; Registers used:
  6199 ;;		wreg, fsr0l, fsr0h, status,2, status,0
  6200 ;; Tracked objects:
  6201 ;;		On entry : 60/0
  6202 ;;		On exit  : 60/0
  6203 ;;		Unchanged: FFF9F/0
  6204 ;; Data sizes:     COMMON   BANK0   BANK1   BANK3   BANK2
  6205 ;;      Params:         0       0       0       0       0
  6206 ;;      Locals:         0       0       0       0       0
  6207 ;;      Temps:          0       0       0       0       0
  6208 ;;      Totals:         0       0       0       0       0
  6209 ;;Total ram usage:        0 bytes
  6210 ;; Hardware stack levels used:    1
  6211 ;; Hardware stack levels required when called:    2
  6212 ;; This function calls:
  6213 ;;		Nothing
  6214 ;; This function is called by:
  6215 ;;		_main
  6216 ;; This function uses a non-reentrant model
  6217 ;;
  6218  077F                     _delay_task:	
  6219                           
  6220                           ;recive.c: 574: if(channel_delay[0] != 0)
  6221                           
  6222                           ; Regs used in _delay_task: [wreg-fsr0h+status,2+status,0]
  6223  077F  0829               	movf	_channel_delay,w
  6224  0780  1903               	btfsc	3,2
  6225  0781  0008               	return
  6226                           
  6227                           ;recive.c: 575: {
  6228                           ;recive.c: 576: if(delay_flag == 0)delay_flag = 1;
  6229  0782  08B9               	movf	_delay_flag,f
  6230  0783  1D03               	skipz
  6231  0784  2F87               	goto	l14742
  6232  0785  01B9               	clrf	_delay_flag
  6233  0786  0AB9               	incf	_delay_flag,f
  6234  0787                     l14742:	
  6235                           
  6236                           ;recive.c: 577: if(channel_delay[2] > 0)
  6237  0787  082B               	movf	_channel_delay+2,w
  6238  0788  1903               	btfsc	3,2
  6239  0789  2FD8               	goto	l14794
  6240                           
  6241                           ;recive.c: 578: {
  6242                           ;recive.c: 579: if(flag_5min_add >= 30000)
  6243  078A  3075               	movlw	117
  6244  078B  022F               	subwf	_flag_5min_add+1,w
  6245  078C  3030               	movlw	48
  6246  078D  1903               	skipnz
  6247  078E  022E               	subwf	_flag_5min_add,w
  6248  078F  1C03               	skipc
  6249  0790  0008               	return
  6250                           
  6251                           ;recive.c: 580: {
  6252                           ;recive.c: 581: flag_5min_add = 0;
  6253  0791  01AE               	clrf	_flag_5min_add
  6254  0792  01AF               	clrf	_flag_5min_add+1
  6255                           
  6256                           ;recive.c: 582: channel_delay[2]--;
  6257  0793  03AB               	decf	_channel_delay+2,f
  6258  0794  0008               	return
  6259  0795                     l14750:	
  6260                           
  6261                           ;recive.c: 590: {
  6262                           ;recive.c: 591: if(channel_delay[1] != 2)
  6263  0795  082A               	movf	_channel_delay+1,w
  6264  0796  3A02               	xorlw	2
  6265  0797  1903               	skipnz
  6266  0798  2F9C               	goto	l14754
  6267                           
  6268                           ;recive.c: 592: KEY0.channel_status = channel_delay[1];
  6269  0799  082A               	movf	_channel_delay+1,w
  6270  079A  00A0               	movwf	_KEY0
  6271  079B  2FEF               	goto	l14796
  6272  079C                     l14754:	
  6273                           
  6274                           ;recive.c: 593: else
  6275                           ;recive.c: 594: KEY0.channel_status ^= 1;
  6276  079C  3001               	movlw	1
  6277  079D  06A0               	xorwf	_KEY0,f
  6278  079E  2FEF               	goto	l14796
  6279  079F                     l14756:	
  6280                           
  6281                           ;recive.c: 597: {
  6282                           ;recive.c: 598: if(channel_delay[1] != 2)
  6283  079F  082A               	movf	_channel_delay+1,w
  6284  07A0  3A02               	xorlw	2
  6285  07A1  1D03               	btfss	3,2
  6286  07A2  2FB1               	goto	L13
  6287                           
  6288                           ;recive.c: 600: else
  6289                           ;recive.c: 601: KEY1.channel_status ^= 1;
  6290                           
  6291                           ;recive.c: 599: KEY1.channel_status = channel_delay[1];
  6292  07A3  3001               	movlw	1
  6293  07A4  2FB6               	goto	L14
  6294  07A5                     l14762:	
  6295                           
  6296                           ;recive.c: 604: {
  6297                           ;recive.c: 605: if(channel_delay[1] != 2)
  6298  07A5  082A               	movf	_channel_delay+1,w
  6299  07A6  3A02               	xorlw	2
  6300  07A7  1D03               	btfss	3,2
  6301  07A8  2FD0               	goto	L19
  6302                           
  6303                           ;recive.c: 607: else
  6304                           ;recive.c: 608: KEY2.channel_status ^= 1;
  6305                           
  6306                           ;recive.c: 606: KEY2.channel_status = channel_delay[1];
  6307  07A9  3001               	movlw	1
  6308  07AA  2FD6               	goto	L20
  6309  07AB                     l14768:	
  6310                           
  6311                           ;recive.c: 611: {
  6312                           ;recive.c: 612: if(channel_delay[1] != 2)
  6313  07AB  082A               	movf	_channel_delay+1,w
  6314  07AC  3A02               	xorlw	2
  6315  07AD  1903               	skipnz
  6316  07AE  2FB4               	goto	l14772
  6317                           
  6318                           ;recive.c: 613: {
  6319                           ;recive.c: 614: KEY0.channel_status = channel_delay[1];
  6320  07AF  082A               	movf	_channel_delay+1,w
  6321  07B0  00A0               	movwf	_KEY0
  6322  07B1                     L13:	
  6323                           
  6324                           ;recive.c: 615: KEY1.channel_status = channel_delay[1];
  6325  07B1  082A               	movf	_channel_delay+1,w
  6326  07B2  00A3               	movwf	_KEY1
  6327                           
  6328                           ;recive.c: 616: }
  6329  07B3  2FEF               	goto	l14796
  6330  07B4                     l14772:	
  6331                           
  6332                           ;recive.c: 617: else
  6333                           ;recive.c: 618: {
  6334                           ;recive.c: 619: KEY0.channel_status ^= 1;
  6335  07B4  3001               	movlw	1
  6336  07B5  06A0               	xorwf	_KEY0,f
  6337  07B6                     L14:	
  6338                           
  6339                           ;recive.c: 620: KEY1.channel_status ^= 1;
  6340  07B6  06A3               	xorwf	_KEY1,f
  6341  07B7  2FEF               	goto	l14796
  6342  07B8                     l14774:	
  6343                           
  6344                           ;recive.c: 624: {
  6345                           ;recive.c: 625: if(channel_delay[1] != 2)
  6346  07B8  082A               	movf	_channel_delay+1,w
  6347  07B9  3A02               	xorlw	2
  6348  07BA  1903               	skipnz
  6349  07BB  2FBF               	goto	l14778
  6350                           
  6351                           ;recive.c: 626: {
  6352                           ;recive.c: 627: KEY0.channel_status = channel_delay[1];
  6353  07BC  082A               	movf	_channel_delay+1,w
  6354  07BD  00A0               	movwf	_KEY0
  6355  07BE  2FD0               	goto	L19
  6356  07BF                     l14778:	
  6357                           ;recive.c: 629: }
  6358                           
  6359                           ;recive.c: 628: KEY2.channel_status = channel_delay[1];
  6360                           
  6361                           
  6362                           ;recive.c: 630: else
  6363                           ;recive.c: 631: {
  6364                           ;recive.c: 632: KEY0.channel_status ^= 1;
  6365  07BF  3001               	movlw	1
  6366  07C0  06A0               	xorwf	_KEY0,f
  6367  07C1  2FD6               	goto	L20
  6368  07C2                     l14780:	
  6369                           ;recive.c: 633: KEY2.channel_status ^= 1;
  6370                           
  6371                           
  6372                           ;recive.c: 637: {
  6373                           ;recive.c: 638: if(channel_delay[1] != 2)
  6374  07C2  082A               	movf	_channel_delay+1,w
  6375  07C3  3A02               	xorlw	2
  6376  07C4  1D03               	btfss	3,2
  6377  07C5  2FCE               	goto	L21
  6378                           
  6379                           ;recive.c: 643: else
  6380                           ;recive.c: 644: {
  6381                           ;recive.c: 645: KEY1.channel_status ^= 1;
  6382                           
  6383                           ;recive.c: 642: }
  6384                           
  6385                           ;recive.c: 641: KEY2.channel_status = channel_delay[1];
  6386                           
  6387                           ;recive.c: 639: {
  6388                           ;recive.c: 640: KEY1.channel_status = channel_delay[1];
  6389  07C6  3001               	movlw	1
  6390  07C7  2FD5               	goto	L22
  6391  07C8                     l14786:	
  6392                           ;recive.c: 646: KEY2.channel_status ^= 1;
  6393                           
  6394                           
  6395                           ;recive.c: 650: {
  6396                           ;recive.c: 651: if(channel_delay[1] != 2)
  6397  07C8  082A               	movf	_channel_delay+1,w
  6398  07C9  3A02               	xorlw	2
  6399  07CA  1903               	skipnz
  6400  07CB  2FD3               	goto	l14790
  6401                           
  6402                           ;recive.c: 652: {
  6403                           ;recive.c: 653: KEY0.channel_status = channel_delay[1];
  6404  07CC  082A               	movf	_channel_delay+1,w
  6405  07CD  00A0               	movwf	_KEY0
  6406  07CE                     L21:	
  6407                           
  6408                           ;recive.c: 654: KEY1.channel_status = channel_delay[1];
  6409  07CE  082A               	movf	_channel_delay+1,w
  6410  07CF  00A3               	movwf	_KEY1
  6411  07D0                     L19:	
  6412                           
  6413                           ;recive.c: 655: KEY2.channel_status = channel_delay[1];
  6414  07D0  082A               	movf	_channel_delay+1,w
  6415  07D1  00A6               	movwf	_KEY2
  6416                           
  6417                           ;recive.c: 656: }
  6418  07D2  2FEF               	goto	l14796
  6419  07D3                     l14790:	
  6420                           
  6421                           ;recive.c: 657: else
  6422                           ;recive.c: 658: {
  6423                           ;recive.c: 659: KEY0.channel_status ^= 1;
  6424  07D3  3001               	movlw	1
  6425  07D4  06A0               	xorwf	_KEY0,f
  6426  07D5                     L22:	
  6427                           
  6428                           ;recive.c: 660: KEY1.channel_status ^= 1;
  6429  07D5  06A3               	xorwf	_KEY1,f
  6430  07D6                     L20:	
  6431                           
  6432                           ;recive.c: 661: KEY2.channel_status ^= 1;
  6433  07D6  06A6               	xorwf	_KEY2,f
  6434  07D7  2FEF               	goto	l14796
  6435  07D8                     l14794:	
  6436  07D8  0829               	movf	_channel_delay,w
  6437                           
  6438                           ; Switch size 1, requested type "space"
  6439                           ; Number of cases is 7, Range of values is 1 to 7
  6440                           ; switch strategies available:
  6441                           ; Name         Instructions Cycles
  6442                           ; simple_byte           22    12 (average)
  6443                           ; direct_byte           24    10 (fixed)
  6444                           ; jumptable            263     9 (fixed)
  6445                           ;	Chosen strategy is simple_byte
  6446  07D9  3A01               	xorlw	1	; case 1
  6447  07DA  1903               	skipnz
  6448  07DB  2F95               	goto	l14750
  6449  07DC  3A03               	xorlw	3	; case 2
  6450  07DD  1903               	skipnz
  6451  07DE  2F9F               	goto	l14756
  6452  07DF  3A01               	xorlw	1	; case 3
  6453  07E0  1903               	skipnz
  6454  07E1  2FAB               	goto	l14768
  6455  07E2  3A07               	xorlw	7	; case 4
  6456  07E3  1903               	skipnz
  6457  07E4  2FA5               	goto	l14762
  6458  07E5  3A01               	xorlw	1	; case 5
  6459  07E6  1903               	skipnz
  6460  07E7  2FB8               	goto	l14774
  6461  07E8  3A03               	xorlw	3	; case 6
  6462  07E9  1903               	skipnz
  6463  07EA  2FC2               	goto	l14780
  6464  07EB  3A01               	xorlw	1	; case 7
  6465  07EC  1903               	skipnz
  6466  07ED  2FC8               	goto	l14786
  6467  07EE  2FEF               	goto	l14796
  6468  07EF                     l14796:	
  6469                           
  6470                           ;recive.c: 667: channel_delay[0] = 0;
  6471  07EF  01A9               	clrf	_channel_delay
  6472                           
  6473                           ;recive.c: 668: channel_delay[1] = 0;
  6474  07F0  01AA               	clrf	_channel_delay+1
  6475                           
  6476                           ;recive.c: 669: channel_delay[2] = 0;
  6477  07F1  01AB               	clrf	_channel_delay+2
  6478                           
  6479                           ;recive.c: 670: delay_flag=0;
  6480  07F2  01B9               	clrf	_delay_flag
  6481  07F3  0008               	return
  6482  07F4                     __end_of_delay_task:	
  6483                           
  6484                           	psect	text1131
  6485  0E05                     __ptext1131:	
  6486 ;; =============== function _delay_task ends ============
  6487                           
  6488                           
  6489 ;; *************** function _channel_set *****************
  6490 ;; Defined at:
  6491 ;;		line 526 in file "C:\Users\Andrew\Desktop\EleMatch\PAV03\FWSWES-PAV03-SWITCHES-PAN2416AV\src\recive.c"
  6492 ;; Parameters:    Size  Location     Type
  6493 ;;  channel_num     1    wreg     unsigned char 
  6494 ;;  status          1    3[COMMON] unsigned char 
  6495 ;; Auto vars:     Size  Location     Type
  6496 ;;  channel_num     1    4[COMMON] unsigned char 
  6497 ;; Return value:  Size  Location     Type
  6498 ;;		None               void
  6499 ;; Registers used:
  6500 ;;		wreg, fsr0l, fsr0h, status,2, status,0
  6501 ;; Tracked objects:
  6502 ;;		On entry : 60/0
  6503 ;;		On exit  : 60/0
  6504 ;;		Unchanged: FFF9F/0
  6505 ;; Data sizes:     COMMON   BANK0   BANK1   BANK3   BANK2
  6506 ;;      Params:         1       0       0       0       0
  6507 ;;      Locals:         1       0       0       0       0
  6508 ;;      Temps:          0       0       0       0       0
  6509 ;;      Totals:         2       0       0       0       0
  6510 ;;Total ram usage:        2 bytes
  6511 ;; Hardware stack levels used:    1
  6512 ;; Hardware stack levels required when called:    2
  6513 ;; This function calls:
  6514 ;;		Nothing
  6515 ;; This function is called by:
  6516 ;;		_main
  6517 ;; This function uses a non-reentrant model
  6518 ;;
  6519  0E05                     _channel_set:	
  6520                           
  6521                           ; Regs used in _channel_set: [wreg-fsr0h+status,2+status,0]
  6522                           ;channel_set@channel_num stored from wreg
  6523  0E05  00F4               	movwf	channel_set@channel_num
  6524                           
  6525                           ;recive.c: 527: switch(channel_num)
  6526  0E06  2E2E               	goto	l14734
  6527  0E07                     l9943:	
  6528                           ;recive.c: 528: {
  6529                           ;recive.c: 529: case 0 :
  6530                           
  6531                           
  6532                           ;recive.c: 530: {
  6533                           ;recive.c: 531: if(status)
  6534  0E07  0873               	movf	channel_set@status,w
  6535  0E08  1903               	btfsc	3,2
  6536  0E09  2E0F               	goto	l9944
  6537                           
  6538                           ;recive.c: 532: {
  6539                           ;recive.c: 533: TRISB6 = 0;
  6540  0E0A  1683               	bsf	3,5	;RP0=1, select bank1
  6541  0E0B  1306               	bcf	6,6
  6542                           
  6543                           ;recive.c: 534: RB6 = 1;
  6544  0E0C  1283               	bcf	3,5	;RP0=0, select bank0
  6545  0E0D  1706               	bsf	6,6
  6546                           
  6547                           ;recive.c: 535: }
  6548  0E0E  0008               	return
  6549  0E0F                     l9944:	
  6550                           
  6551                           ;recive.c: 536: else
  6552                           ;recive.c: 537: {
  6553                           ;recive.c: 538: TRISB6 = 0;
  6554  0E0F  1683               	bsf	3,5	;RP0=1, select bank1
  6555  0E10  1306               	bcf	6,6
  6556                           
  6557                           ;recive.c: 539: RB6 = 0;
  6558  0E11  1283               	bcf	3,5	;RP0=0, select bank0
  6559  0E12  1306               	bcf	6,6
  6560  0E13  0008               	return
  6561  0E14                     l9947:	
  6562                           ;recive.c: 542: case 1:
  6563                           
  6564                           
  6565                           ;recive.c: 543: {
  6566                           ;recive.c: 544: if(status)
  6567  0E14  0873               	movf	channel_set@status,w
  6568  0E15  1903               	btfsc	3,2
  6569  0E16  2E1C               	goto	l9948
  6570                           
  6571                           ;recive.c: 545: {
  6572                           ;recive.c: 546: TRISB5 = 0;
  6573  0E17  1683               	bsf	3,5	;RP0=1, select bank1
  6574  0E18  1286               	bcf	6,5
  6575                           
  6576                           ;recive.c: 547: RB5 = 1;
  6577  0E19  1283               	bcf	3,5	;RP0=0, select bank0
  6578  0E1A  1686               	bsf	6,5
  6579                           
  6580                           ;recive.c: 548: }
  6581  0E1B  0008               	return
  6582  0E1C                     l9948:	
  6583                           
  6584                           ;recive.c: 549: else
  6585                           ;recive.c: 550: {
  6586                           ;recive.c: 551: TRISB5 = 0;
  6587  0E1C  1683               	bsf	3,5	;RP0=1, select bank1
  6588  0E1D  1286               	bcf	6,5
  6589                           
  6590                           ;recive.c: 552: RB5 = 0;
  6591  0E1E  1283               	bcf	3,5	;RP0=0, select bank0
  6592  0E1F  1286               	bcf	6,5
  6593  0E20  0008               	return
  6594  0E21                     l9950:	
  6595                           ;recive.c: 555: case 2:
  6596                           
  6597                           
  6598                           ;recive.c: 556: {
  6599                           ;recive.c: 557: if(status)
  6600  0E21  0873               	movf	channel_set@status,w
  6601  0E22  1903               	btfsc	3,2
  6602  0E23  2E29               	goto	l9951
  6603                           
  6604                           ;recive.c: 558: {
  6605                           ;recive.c: 559: TRISB4 = 0;
  6606  0E24  1683               	bsf	3,5	;RP0=1, select bank1
  6607  0E25  1206               	bcf	6,4
  6608                           
  6609                           ;recive.c: 560: RB4 = 1;
  6610  0E26  1283               	bcf	3,5	;RP0=0, select bank0
  6611  0E27  1606               	bsf	6,4
  6612                           
  6613                           ;recive.c: 561: }
  6614  0E28  0008               	return
  6615  0E29                     l9951:	
  6616                           
  6617                           ;recive.c: 562: else
  6618                           ;recive.c: 563: {
  6619                           ;recive.c: 564: TRISB4 = 0;
  6620  0E29  1683               	bsf	3,5	;RP0=1, select bank1
  6621  0E2A  1206               	bcf	6,4
  6622                           
  6623                           ;recive.c: 565: RB4 = 0;
  6624  0E2B  1283               	bcf	3,5	;RP0=0, select bank0
  6625  0E2C  1206               	bcf	6,4
  6626  0E2D  0008               	return
  6627  0E2E                     l14734:	
  6628  0E2E  0874               	movf	channel_set@channel_num,w
  6629                           
  6630                           ; Switch size 1, requested type "space"
  6631                           ; Number of cases is 3, Range of values is 0 to 2
  6632                           ; switch strategies available:
  6633                           ; Name         Instructions Cycles
  6634                           ; simple_byte           10     6 (average)
  6635                           ; direct_byte           13     7 (fixed)
  6636                           ; jumptable            260     6 (fixed)
  6637                           ; rangetable             7     6 (fixed)
  6638                           ; spacedrange           12     9 (fixed)
  6639                           ; locatedrange           3     3 (fixed)
  6640                           ;	Chosen strategy is simple_byte
  6641  0E2F  3A00               	xorlw	0	; case 0
  6642  0E30  1903               	skipnz
  6643  0E31  2E07               	goto	l9943
  6644  0E32  3A01               	xorlw	1	; case 1
  6645  0E33  1903               	skipnz
  6646  0E34  2E14               	goto	l9947
  6647  0E35  3A03               	xorlw	3	; case 2
  6648  0E36  1903               	skipnz
  6649  0E37  2E21               	goto	l9950
  6650  0E38  2E39               	goto	l9953
  6651  0E39                     l9953:	
  6652  0E39  0008               	return
  6653  0E3A                     __end_of_channel_set:	
  6654                           
  6655                           	psect	text1132
  6656  07FC                     __ptext1132:	
  6657 ;; =============== function _channel_set ends ============
  6658                           
  6659                           
  6660 ;; *************** function _Enable_Interrupt *****************
  6661 ;; Defined at:
  6662 ;;		line 38 in file "C:\Users\Andrew\Desktop\EleMatch\PAV03\FWSWES-PAV03-SWITCHES-PAN2416AV\src\system.c"
  6663 ;; Parameters:    Size  Location     Type
  6664 ;;		None
  6665 ;; Auto vars:     Size  Location     Type
  6666 ;;		None
  6667 ;; Return value:  Size  Location     Type
  6668 ;;		None               void
  6669 ;; Registers used:
  6670 ;;		None
  6671 ;; Tracked objects:
  6672 ;;		On entry : 60/0
  6673 ;;		On exit  : 60/0
  6674 ;;		Unchanged: FFF9F/0
  6675 ;; Data sizes:     COMMON   BANK0   BANK1   BANK3   BANK2
  6676 ;;      Params:         0       0       0       0       0
  6677 ;;      Locals:         0       0       0       0       0
  6678 ;;      Temps:          0       0       0       0       0
  6679 ;;      Totals:         0       0       0       0       0
  6680 ;;Total ram usage:        0 bytes
  6681 ;; Hardware stack levels used:    1
  6682 ;; Hardware stack levels required when called:    2
  6683 ;; This function calls:
  6684 ;;		Nothing
  6685 ;; This function is called by:
  6686 ;;		_main
  6687 ;; This function uses a non-reentrant model
  6688 ;;
  6689  07FC                     _Enable_Interrupt:	
  6690                           
  6691                           ;system.c: 39: INTCON |= 0x80;
  6692                           
  6693                           ; Regs used in _Enable_Interrupt: []
  6694  07FC  178B               	bsf	11,7	;volatile
  6695  07FD  0008               	return
  6696  07FE                     __end_of_Enable_Interrupt:	
  6697                           
  6698                           	psect	text1133
  6699  0DAE                     __ptext1133:	
  6700 ;; =============== function _Enable_Interrupt ends ============
  6701                           
  6702                           
  6703 ;; *************** function _Timer1_start *****************
  6704 ;; Defined at:
  6705 ;;		line 43 in file "C:\Users\Andrew\Desktop\EleMatch\PAV03\FWSWES-PAV03-SWITCHES-PAN2416AV\src\timer1.c"
  6706 ;; Parameters:    Size  Location     Type
  6707 ;;  T_nums          2    3[COMMON] unsigned int 
  6708 ;;  Timer1_ISR_e    1    5[COMMON] unsigned char 
  6709 ;; Auto vars:     Size  Location     Type
  6710 ;;		None
  6711 ;; Return value:  Size  Location     Type
  6712 ;;		None               void
  6713 ;; Registers used:
  6714 ;;		wreg
  6715 ;; Tracked objects:
  6716 ;;		On entry : 60/20
  6717 ;;		On exit  : 60/0
  6718 ;;		Unchanged: FFF9F/0
  6719 ;; Data sizes:     COMMON   BANK0   BANK1   BANK3   BANK2
  6720 ;;      Params:         3       0       0       0       0
  6721 ;;      Locals:         0       0       0       0       0
  6722 ;;      Temps:          0       2       0       0       0
  6723 ;;      Totals:         3       2       0       0       0
  6724 ;;Total ram usage:        5 bytes
  6725 ;; Hardware stack levels used:    1
  6726 ;; Hardware stack levels required when called:    2
  6727 ;; This function calls:
  6728 ;;		Nothing
  6729 ;; This function is called by:
  6730 ;;		_main
  6731 ;; This function uses a non-reentrant model
  6732 ;;
  6733  0DAE                     _Timer1_start:	
  6734                           
  6735                           ;timer1.c: 44: Timer1_set_time = 0xffff - T_nums + Timer1_ISR_execution_total_time;
  6736                           
  6737                           ; Regs used in _Timer1_start: [wreg]
  6738  0DAE  0875               	movf	Timer1_start@Timer1_ISR_execution_total_time,w
  6739  0DAF  1283               	bcf	3,5	;RP0=0, select bank0
  6740  0DB0  00AC               	movwf	_Timer1_set_time	;volatile
  6741  0DB1  01AD               	clrf	_Timer1_set_time+1	;volatile
  6742  0DB2  0874               	movf	Timer1_start@T_nums+1,w
  6743  0DB3  00D1               	movwf	??_Timer1_start+1
  6744  0DB4  0873               	movf	Timer1_start@T_nums,w
  6745  0DB5  00D0               	movwf	??_Timer1_start
  6746  0DB6  09D0               	comf	??_Timer1_start,f
  6747  0DB7  09D1               	comf	??_Timer1_start+1,f
  6748  0DB8  0850               	movf	??_Timer1_start,w
  6749  0DB9  07AC               	addwf	_Timer1_set_time,f	;volatile
  6750  0DBA  1803               	skipnc
  6751  0DBB  0AAD               	incf	_Timer1_set_time+1,f	;volatile
  6752  0DBC  0851               	movf	??_Timer1_start+1,w
  6753  0DBD  07AD               	addwf	_Timer1_set_time+1,f	;volatile
  6754                           
  6755                           ;timer1.c: 45: TMR1L = (unsigned char)(Timer1_set_time);
  6756  0DBE  082C               	movf	_Timer1_set_time,w	;volatile
  6757  0DBF  008E               	movwf	14	;volatile
  6758                           
  6759                           ;timer1.c: 46: TMR1H = (unsigned char)(Timer1_set_time>>8);
  6760  0DC0  082D               	movf	_Timer1_set_time+1,w	;volatile
  6761  0DC1  008F               	movwf	15	;volatile
  6762                           
  6763                           ;timer1.c: 47: PIR1 &= ~(0x01);
  6764  0DC2  100C               	bcf	12,0	;volatile
  6765                           
  6766                           ;timer1.c: 48: T1CON |= 0x01;
  6767  0DC3  1410               	bsf	16,0	;volatile
  6768  0DC4  0008               	return
  6769  0DC5                     __end_of_Timer1_start:	
  6770                           
  6771                           	psect	text1134
  6772  06F8                     __ptext1134:	
  6773 ;; =============== function _Timer1_start ends ============
  6774                           
  6775                           
  6776 ;; *************** function _Timer1_Init *****************
  6777 ;; Defined at:
  6778 ;;		line 29 in file "C:\Users\Andrew\Desktop\EleMatch\PAV03\FWSWES-PAV03-SWITCHES-PAN2416AV\src\timer1.c"
  6779 ;; Parameters:    Size  Location     Type
  6780 ;;  TIMER1_DIVID    1    wreg     enum E573
  6781 ;; Auto vars:     Size  Location     Type
  6782 ;;  TIMER1_DIVID    1    3[COMMON] enum E573
  6783 ;; Return value:  Size  Location     Type
  6784 ;;		None               void
  6785 ;; Registers used:
  6786 ;;		wreg, status,2, status,0
  6787 ;; Tracked objects:
  6788 ;;		On entry : 60/0
  6789 ;;		On exit  : 60/20
  6790 ;;		Unchanged: FFF9F/0
  6791 ;; Data sizes:     COMMON   BANK0   BANK1   BANK3   BANK2
  6792 ;;      Params:         0       0       0       0       0
  6793 ;;      Locals:         1       0       0       0       0
  6794 ;;      Temps:          0       0       0       0       0
  6795 ;;      Totals:         1       0       0       0       0
  6796 ;;Total ram usage:        1 bytes
  6797 ;; Hardware stack levels used:    1
  6798 ;; Hardware stack levels required when called:    2
  6799 ;; This function calls:
  6800 ;;		Nothing
  6801 ;; This function is called by:
  6802 ;;		_main
  6803 ;; This function uses a non-reentrant model
  6804 ;;
  6805  06F8                     _Timer1_Init:	
  6806                           
  6807                           ; Regs used in _Timer1_Init: [wreg+status,2+status,0]
  6808                           ;Timer1_Init@TIMER1_DIVIDER stored from wreg
  6809  06F8  00F3               	movwf	Timer1_Init@TIMER1_DIVIDER
  6810                           
  6811                           ;timer1.c: 30: T1CON = 0x00;
  6812  06F9  0190               	clrf	16	;volatile
  6813                           
  6814                           ;timer1.c: 31: T1CON |= TIMER1_DIVIDER;
  6815  06FA  0490               	iorwf	16,f	;volatile
  6816                           
  6817                           ;timer1.c: 32: INTCON |= (0x40);
  6818  06FB  170B               	bsf	11,6	;volatile
  6819                           
  6820                           ;timer1.c: 33: PIE1 |= 0x01;
  6821  06FC  1683               	bsf	3,5	;RP0=1, select bank1
  6822  06FD  140C               	bsf	12,0	;volatile
  6823  06FE  0008               	return
  6824  06FF                     __end_of_Timer1_Init:	
  6825                           
  6826                           	psect	text1135
  6827  0DA8                     __ptext1135:	
  6828 ;; =============== function _Timer1_Init ends ============
  6829                           
  6830                           
  6831 ;; *************** function _key_Init *****************
  6832 ;; Defined at:
  6833 ;;		line 335 in file "C:\Users\Andrew\Desktop\EleMatch\PAV03\FWSWES-PAV03-SWITCHES-PAN2416AV\src\key_scan.c"
  6834 ;; Parameters:    Size  Location     Type
  6835 ;;		None
  6836 ;; Auto vars:     Size  Location     Type
  6837 ;;		None
  6838 ;; Return value:  Size  Location     Type
  6839 ;;		None               void
  6840 ;; Registers used:
  6841 ;;		wreg, status,2, status,0
  6842 ;; Tracked objects:
  6843 ;;		On entry : 60/0
  6844 ;;		On exit  : 60/20
  6845 ;;		Unchanged: FFF9F/0
  6846 ;; Data sizes:     COMMON   BANK0   BANK1   BANK3   BANK2
  6847 ;;      Params:         0       0       0       0       0
  6848 ;;      Locals:         0       0       0       0       0
  6849 ;;      Temps:          0       0       0       0       0
  6850 ;;      Totals:         0       0       0       0       0
  6851 ;;Total ram usage:        0 bytes
  6852 ;; Hardware stack levels used:    1
  6853 ;; Hardware stack levels required when called:    2
  6854 ;; This function calls:
  6855 ;;		Nothing
  6856 ;; This function is called by:
  6857 ;;		_main
  6858 ;; This function uses a non-reentrant model
  6859 ;;
  6860  0DA8                     _key_Init:	
  6861                           
  6862                           ;key_scan.c: 336: OPTION_REG &= ~0x80;
  6863                           
  6864                           ; Regs used in _key_Init: [wreg+status,2+status,0]
  6865  0DA8  1683               	bsf	3,5	;RP0=1, select bank1
  6866  0DA9  1381               	bcf	1,7	;volatile
  6867                           
  6868                           ;key_scan.c: 337: TRISB |= 0x0e;
  6869  0DAA  300E               	movlw	14
  6870  0DAB  0486               	iorwf	6,f	;volatile
  6871                           
  6872                           ;key_scan.c: 338: WPUB |= 0x0e;
  6873  0DAC  0495               	iorwf	21,f	;volatile
  6874  0DAD  0008               	return
  6875  0DAE                     __end_of_key_Init:	
  6876                           
  6877                           	psect	text1136
  6878  0DA2                     __ptext1136:	
  6879 ;; =============== function _key_Init ends ============
  6880                           
  6881                           
  6882 ;; *************** function _IIC_Init *****************
  6883 ;; Defined at:
  6884 ;;		line 11 in file "C:\Users\Andrew\Desktop\EleMatch\PAV03\FWSWES-PAV03-SWITCHES-PAN2416AV\src\iic.c"
  6885 ;; Parameters:    Size  Location     Type
  6886 ;;		None
  6887 ;; Auto vars:     Size  Location     Type
  6888 ;;		None
  6889 ;; Return value:  Size  Location     Type
  6890 ;;		None               void
  6891 ;; Registers used:
  6892 ;;		None
  6893 ;; Tracked objects:
  6894 ;;		On entry : 60/0
  6895 ;;		On exit  : 60/0
  6896 ;;		Unchanged: FFF9F/0
  6897 ;; Data sizes:     COMMON   BANK0   BANK1   BANK3   BANK2
  6898 ;;      Params:         0       0       0       0       0
  6899 ;;      Locals:         0       0       0       0       0
  6900 ;;      Temps:          0       0       0       0       0
  6901 ;;      Totals:         0       0       0       0       0
  6902 ;;Total ram usage:        0 bytes
  6903 ;; Hardware stack levels used:    1
  6904 ;; Hardware stack levels required when called:    2
  6905 ;; This function calls:
  6906 ;;		Nothing
  6907 ;; This function is called by:
  6908 ;;		_main
  6909 ;; This function uses a non-reentrant model
  6910 ;;
  6911  0DA2                     _IIC_Init:	
  6912                           
  6913                           ;iic.c: 12: OPTION_REG &= ~0x80;
  6914                           
  6915                           ; Regs used in _IIC_Init: []
  6916  0DA2  1683               	bsf	3,5	;RP0=1, select bank1
  6917  0DA3  1381               	bcf	1,7	;volatile
  6918                           
  6919                           ;iic.c: 14: RC1=1;
  6920  0DA4  1283               	bcf	3,5	;RP0=0, select bank0
  6921  0DA5  1487               	bsf	7,1
  6922                           
  6923                           ;iic.c: 15: RC2=1;
  6924  0DA6  1507               	bsf	7,2
  6925  0DA7  0008               	return
  6926  0DA8                     __end_of_IIC_Init:	
  6927                           
  6928                           	psect	text1138
  6929  0D9D                     __ptext1138:	
  6930 ;; =============== function _soft_delay_ms ends ============
  6931                           
  6932                           
  6933 ;; *************** function _system_set_CPU_frequency *****************
  6934 ;; Defined at:
  6935 ;;		line 19 in file "C:\Users\Andrew\Desktop\EleMatch\PAV03\FWSWES-PAV03-SWITCHES-PAN2416AV\src\system.c"
  6936 ;; Parameters:    Size  Location     Type
  6937 ;;  CPU_Frequenc    1    wreg     enum E564
  6938 ;; Auto vars:     Size  Location     Type
  6939 ;;  CPU_Frequenc    1    3[COMMON] enum E564
  6940 ;; Return value:  Size  Location     Type
  6941 ;;		None               void
  6942 ;; Registers used:
  6943 ;;		wreg, status,2
  6944 ;; Tracked objects:
  6945 ;;		On entry : 17F/0
  6946 ;;		On exit  : 17F/20
  6947 ;;		Unchanged: FFE80/0
  6948 ;; Data sizes:     COMMON   BANK0   BANK1   BANK3   BANK2
  6949 ;;      Params:         0       0       0       0       0
  6950 ;;      Locals:         1       0       0       0       0
  6951 ;;      Temps:          0       0       0       0       0
  6952 ;;      Totals:         1       0       0       0       0
  6953 ;;Total ram usage:        1 bytes
  6954 ;; Hardware stack levels used:    1
  6955 ;; Hardware stack levels required when called:    2
  6956 ;; This function calls:
  6957 ;;		Nothing
  6958 ;; This function is called by:
  6959 ;;		_main
  6960 ;; This function uses a non-reentrant model
  6961 ;;
  6962  0D9D                     _system_set_CPU_frequency:	
  6963                           
  6964                           ; Regs used in _system_set_CPU_frequency: [wreg+status,2]
  6965                           ;system_set_CPU_frequency@CPU_Frequency stored from wreg
  6966  0D9D  00F3               	movwf	system_set_CPU_frequency@CPU_Frequency
  6967                           
  6968                           ;system.c: 20: OSCCON = CPU_Frequency;
  6969  0D9E  1683               	bsf	3,5	;RP0=1, select bank1
  6970  0D9F  008F               	movwf	15
  6971                           
  6972                           ;system.c: 21: OSCTUNE = 0X00;
  6973  0DA0  0190               	clrf	16	;volatile
  6974  0DA1  0008               	return
  6975  0DA2                     __end_of_system_set_CPU_frequency:	
  6976                           
  6977                           	psect	text1139
  6978  0DDD                     __ptext1139:	
  6979 ;; =============== function _system_set_CPU_frequency ends ============
  6980                           
  6981                           
  6982 ;; *************** function _ISR *****************
  6983 ;; Defined at:
  6984 ;;		line 48 in file "C:\Users\Andrew\Desktop\EleMatch\PAV03\FWSWES-PAV03-SWITCHES-PAN2416AV\src\system.c"
  6985 ;; Parameters:    Size  Location     Type
  6986 ;;		None
  6987 ;; Auto vars:     Size  Location     Type
  6988 ;;  peripheral_i    1    2[COMMON] unsigned char 
  6989 ;;  inside_intte    1    0        unsigned char 
  6990 ;;  peripheral_i    1    0        unsigned char 
  6991 ;;  inside_intte    1    0        unsigned char 
  6992 ;; Return value:  Size  Location     Type
  6993 ;;		None               void
  6994 ;; Registers used:
  6995 ;;		wreg, status,2, status,0, pclath, cstack
  6996 ;; Tracked objects:
  6997 ;;		On entry : 0/0
  6998 ;;		On exit  : 60/0
  6999 ;;		Unchanged: FFF9F/0
  7000 ;; Data sizes:     COMMON   BANK0   BANK1   BANK3   BANK2
  7001 ;;      Params:         0       0       0       0       0
  7002 ;;      Locals:         1       0       0       0       0
  7003 ;;      Temps:          2       0       0       0       0
  7004 ;;      Totals:         3       0       0       0       0
  7005 ;;Total ram usage:        3 bytes
  7006 ;; Hardware stack levels used:    1
  7007 ;; Hardware stack levels required when called:    1
  7008 ;; This function calls:
  7009 ;;		_TIMER1_ISR
  7010 ;; This function is called by:
  7011 ;;		Interrupt level 1
  7012 ;; This function uses a non-reentrant model
  7013 ;;
  7014  0DDD                     _ISR:	
  7015                           
  7016                           ;system.c: 54: peripheral_intterrupt_enable = PIE1 & 0x43;
  7017                           
  7018                           ;system.c: 49: unsigned char inside_intterrupt_enable,peripheral_intterrupt_enable;
  7019                           ;system.c: 50: unsigned char inside_intterrupt_touch,peripheral_intterrupt_touch;
  7020                           ;system.c: 53: inside_intterrupt_enable = INTCON & 0x38;
  7021  0DDD  1683               	bsf	3,5	;RP0=1, select bank1
  7022  0DDE  1303               	bcf	3,6	;RP1=0, select bank1
  7023                           
  7024                           ;system.c: 56: peripheral_intterrupt_touch = PIR1 & 0x43;
  7025                           
  7026                           ;system.c: 55: inside_intterrupt_touch = INTCON & 0x07;
  7027  0DDF  1283               	bcf	3,5	;RP0=0, select bank0
  7028  0DE0  080C               	movf	12,w
  7029  0DE1  00F2               	movwf	ISR@peripheral_intterrupt_touch
  7030  0DE2  3043               	movlw	67
  7031  0DE3  05F2               	andwf	ISR@peripheral_intterrupt_touch,f
  7032                           
  7033                           ;system.c: 71: if(peripheral_intterrupt_touch & TIMER1_ISR_TOUCH) {
  7034  0DE4  1C72               	btfss	ISR@peripheral_intterrupt_touch,0
  7035  0DE5  2DE7               	goto	i1l1316
  7036                           
  7037                           ;system.c: 72: TIMER1_ISR();
  7038  0DE6  25EE               	fcall	_TIMER1_ISR
  7039  0DE7                     i1l1316:	
  7040  0DE7  0871               	movf	??_ISR+1,w
  7041  0DE8  008A               	movwf	10
  7042  0DE9  0E70               	swapf	??_ISR^(0+-128),w
  7043  0DEA  0083               	movwf	3
  7044  0DEB  0EFE               	swapf	126,f
  7045  0DEC  0E7E               	swapf	126,w
  7046  0DED  0009               	retfie
  7047  0DEE                     __end_of_ISR:	
  7048  0DEE                     __ptext1140:	
  7049 ;; =============== function _ISR ends ============
  7050                           
  7051                           
  7052 ;; *************** function _TIMER1_ISR *****************
  7053 ;; Defined at:
  7054 ;;		line 60 in file "C:\Users\Andrew\Desktop\EleMatch\PAV03\FWSWES-PAV03-SWITCHES-PAN2416AV\src\timer1.c"
  7055 ;; Parameters:    Size  Location     Type
  7056 ;;		None
  7057 ;; Auto vars:     Size  Location     Type
  7058 ;;		None
  7059 ;; Return value:  Size  Location     Type
  7060 ;;		None               void
  7061 ;; Registers used:
  7062 ;;		wreg, status,2, status,0
  7063 ;; Tracked objects:
  7064 ;;		On entry : 60/0
  7065 ;;		On exit  : 60/0
  7066 ;;		Unchanged: FFF9F/0
  7067 ;; Data sizes:     COMMON   BANK0   BANK1   BANK3   BANK2
  7068 ;;      Params:         0       0       0       0       0
  7069 ;;      Locals:         0       0       0       0       0
  7070 ;;      Temps:          0       0       0       0       0
  7071 ;;      Totals:         0       0       0       0       0
  7072 ;;Total ram usage:        0 bytes
  7073 ;; Hardware stack levels used:    1
  7074 ;; This function calls:
  7075 ;;		Nothing
  7076 ;; This function is called by:
  7077 ;;		_ISR
  7078 ;; This function uses a non-reentrant model
  7079 ;;
  7080  0DEE                     _TIMER1_ISR:	
  7081                           
  7082                           ;timer1.c: 61: static unsigned int flag_1s_add=0;
  7083                           ;timer1.c: 62: static unsigned int flag_1min_add=0;
  7084                           ;timer1.c: 63: T1CON &= ~(0x01);
  7085                           
  7086                           ; Regs used in _TIMER1_ISR: [wreg+status,2+status,0]
  7087  0DEE  1010               	bcf	16,0	;volatile
  7088                           
  7089                           ;timer1.c: 64: TMR1L = (unsigned char)(Timer1_set_time);
  7090  0DEF  082C               	movf	_Timer1_set_time,w	;volatile
  7091  0DF0  008E               	movwf	14	;volatile
  7092                           
  7093                           ;timer1.c: 65: TMR1H = (unsigned char)(Timer1_set_time>>8);
  7094  0DF1  082D               	movf	_Timer1_set_time+1,w	;volatile
  7095  0DF2  008F               	movwf	15	;volatile
  7096                           
  7097                           ;timer1.c: 67: flag_time_key0_add++;
  7098  0DF3  0AB2               	incf	_flag_time_key0_add,f
  7099  0DF4  1903               	skipnz
  7100  0DF5  0AB3               	incf	_flag_time_key0_add+1,f
  7101                           
  7102                           ;timer1.c: 68: flag_time_key1_add++;
  7103  0DF6  0AB4               	incf	_flag_time_key1_add,f
  7104  0DF7  1903               	skipnz
  7105  0DF8  0AB5               	incf	_flag_time_key1_add+1,f
  7106                           
  7107                           ;timer1.c: 69: flag_time_key2_add++;
  7108  0DF9  0AB6               	incf	_flag_time_key2_add,f
  7109  0DFA  1903               	skipnz
  7110  0DFB  0AB7               	incf	_flag_time_key2_add+1,f
  7111                           
  7112                           ;timer1.c: 70: flag_5s_add++;
  7113  0DFC  0AB0               	incf	_flag_5s_add,f
  7114  0DFD  1903               	skipnz
  7115  0DFE  0AB1               	incf	_flag_5s_add+1,f
  7116                           
  7117                           ;timer1.c: 72: flag_1s_add++;
  7118  0DFF  0AAE               	incf	_flag_5min_add,f
  7119  0E00  1903               	skipnz
  7120  0E01  0AAF               	incf	_flag_5min_add+1,f
  7121                           
  7122                           ;timer1.c: 74: PIR1 &= ~(0x01);
  7123  0E02  100C               	bcf	12,0	;volatile
  7124                           
  7125                           ;timer1.c: 75: T1CON |= 0x01;
  7126  0E03  1410               	bsf	16,0	;volatile
  7127  0E04  0008               	return
  7128  0E05                     __end_of_TIMER1_ISR:	
  7129                           
  7130                           	psect	intentry
  7131  0004                     __pintentry:	
  7132                           ; Regs used in _ISR: [wreg+status,2+status,0+pclath+cstack]
  7133                           
  7134  0004                     interrupt_function:	
  7135  007E                     saved_w	set	btemp
  7136  0004  00FE               	movwf	btemp
  7137  0005  0E03               	swapf	3,w
  7138  0006  00F0               	movwf	??_ISR
  7139  0007  080A               	movf	10,w
  7140  0008  00F1               	movwf	??_ISR+1
  7141  0009  158A  2DDD         	ljmp	_ISR
  7142                           
  7143                           	psect	text1141
  7144  0000                     __ptext1141:	
  7145 ;; =============== function _TIMER1_ISR ends ============
  7146                           
  7147  007E                     btemp	set	126	;btemp
  7148  007E                     wtemp0	set	126


HI-TECH Software PICC Macro Assembler V9.83 build 10920 
Symbol Table                                                                                   Wed Dec 30 11:42:47 2020

                                          pc 0002                               ___bmul@product 0074  
                         RF_Init@BB_cal_data 0766                             ??_key_value_read 0075  
                        RF_Write_Buff@length 0051                          ??_AT24C02_Write_Msg 0056  
                             ?_soft_delay_ms 0073                                           fsr 0004  
                                _RF_WriteReg 0FAE                                          _RB1 0031  
                                        _RC0 0038                                          _RB2 0032  
                                        _RA4 002C                                          _RC1 0039  
                                        _RB3 0033                                          _RA5 002D  
                                        _RC2 003A                                          _RB4 0034  
                                        _RB5 0035                                          _RA7 002F  
                                        _RB6 0036                                          _RE1 0049  
                                        _RE2 004A                                          _ISR 0DDD  
                       ??_AT24C02_Write_Byte 0076                                          fsr0 0004  
                                        indf 0000                               ??_iic_delay_us 0073  
                             ?_RF_Set_RxMode 0070                                ?_IIC_Wait_ACK 0070  
                            __end_of_IIC_ACK 0586                                         ?_ISR 0070  
                   __end_of_Enable_Interrupt 07FE                                         l1300 0000  
                                       l1309 0000                                         l5210 0000  
                                       l5203 0FCA                                         l5204 0000  
                                       l5213 0000                                         l5221 0000  
                                       l2591 0000                                         l5207 0000  
                                       l5160 0000                                         l5218 0FD3  
                                       l5219 0FD4                                         l2588 0000  
                                       l5180 0000                                         l5183 0000  
                                       l5192 0000                                         l7200 0503  
                                       l5186 0000                                         l5197 0F35  
                                       l5198 0000                                         l7150 03FC  
                                       l7225 0000                                         l7164 042F  
                                       l7157 0415                                         l7177 0455  
                                       l7186 04AC                                         l5870 0000  
                                       l9804 0EF8                                         l9822 0ED5  
                                       l9807 0F05                                         l9911 031D  
                                       l9824 0000                                         l9809 0000  
                                       l9841 007B                                         l9851 013E  
                                       l9843 009C                                         l9828 001A  
                                       l9861 01B2                                         l9950 0E21  
                                       l9951 0E29                                         l9943 0E07  
                                       l9944 0E0F                                         l9856 0224  
                                       l9953 0E39                                         l9937 03C0  
                                       l9947 0E14                                         l9939 03CF  
                                       l9948 0E1C                                         _KEY0 0020  
                                       _KEY1 0023                                         _KEY2 0026  
                                       _PIE1 008C                                         u1905 0565  
                                       _PIR1 000C                                         u3895 0EB5  
                  __end_of_AT24C02_Write_Msg 03E9                        RF_Write_Buff@reg_addr 0052  
                                       _WPUB 0095                           __size_of_IIC_START 000D  
                      RF_Carrier@RF_cal_data 076E                        __size_of_I2C_ReadByte 0026  
                                       _main 066C                              __end_of_RF_Init 0FAE  
                                       btemp 007E                                         start 000B  
                              _RF_Write_Buff 0FB7                        __size_of_I2C_SendByte 001B  
                       RF_Read_Buff@byte_ctr 0053                             _last_PORTB_value 003A  
                          ___bmul@multiplier 0075                         RF_Read_Buff@reg_addr 0052  
                           ??_RF_ClearStatus 0076                                        ??_ISR 0070  
                           __end_of_IIC_NACK 0591                                  ?_TIMER1_ISR 0070  
                           __end_of_IIC_STOP 0631                       RF_Carrier@RF_cal2_data 0755  
                           __end_of_IIC_Init 0DA8                                 rx_data@crc16 005B  
                                      l10610 0000                                        l10613 0000  
                                      l10630 0000                                        l10616 0000  
                                      l10624 0000                                        l11280 0000  
                                      l10640 0599                                        l10633 05FD  
                                      l10619 0000                                        l10627 0000  
                                      l10635 0602                                        l11283 0000  
                                      l10636 0604                                        l10637 0000  
                                      l10645 0000                                        l11295 0000  
                                      l12281 0000                                        l11289 0000  
                                      l15010 0000                                        l15002 0000  
                                      l15004 0000                                        l15100 0000  
                                      l15014 0438                                        l15022 0447  
                                      l15030 0000                                        l15016 043D  
                                      l15024 0000                                        l15032 0628  
                                      l15040 0000                                        l15200 0481  
                                      l15018 0442                                        l15026 0000  
                                      l15034 0000                                        l15050 0000  
                                      l15042 0000                                        l15028 0000  
                                      l15036 0000                                        l15052 0000  
                                      l15044 0000                                        l15212 0000  
                                      l15220 049E                                        l15204 0000  
                                      l15054 0000                                        l15046 0000  
                                      l15038 0000                                        l15070 0000  
                                      l15310 0000                                        l15230 0000  
                                      l15214 0000                                        l16200 0000  
                                      l15056 0000                                        l15048 0000  
                                      l15072 0000                                        l15080 0000  
                                      l15320 0000                                        l15312 0000  
                                      l15304 0000                                        l15240 0000  
                                      l15224 0000                                        l15160 0000  
                                      l15400 0000                                        l16202 0000  
                                      l15058 0000                                        l15074 0000  
                                      l15066 0000                                        l15082 0000  
                                      l16210 0000                                        l15330 0000  
                                      l15322 051A                                        l15314 0000  
                                      l15250 0000                                        l15242 0000  
                                      l15218 0000                                        l15170 0000  
                                      l15410 0000                                        l15402 0000  
                                      l14700 055F                                        l16204 0000  
                                      l15068 0000                                        l15076 0000  
                                      l15084 0000                                        l16220 0000  
                                      l16212 0000                                        l15324 0000  
                                      l15316 0000                                        l15332 0522  
                                      l15252 0000                                        l15244 0000  
                                      l15236 0000                                        l15180 0000  
                                      l15172 0000                                        l15164 0000  
                                      l15156 0000                                        l16300 03D3  
                                      l14702 0000                                        l14710 0000  
                                      l16206 0000                                        l15078 0000  
                                      l15094 0000                                        l15086 0000  
                                      l16230 0000                                        l16222 0000  
                                      l16214 0000                                        l15326 0000  
                                      l15318 0000                                        l15254 0000  
                                      l15246 0000                                        l15238 0000  
                                      l15174 0000                                        l15166 0000  
                                      l15158 0000                                        l16310 0000  
                                      l16302 0000                                        l14704 0000  
                                      l14712 0000                                        l14720 0000  
                                      l16152 0000                                        l15096 0000  
                                      l16240 0000                                        l16232 0000  
                                      l16224 0000                                        l16216 0000  
                                      l15352 0000                                        l15328 0000  
                                      l15256 0000                                        l15248 04C3  
                                      l15184 0000                                        l15176 0000  
                                      l15168 0000                                        l15416 05B1  
                                      l15408 0000                                        l16312 0642  
                                      l16400 003C                                        l14706 0000  
                                      l14714 0000                                        l14722 0000  
                                      l14730 0000                                        l16170 0000  
                                      l15098 0000                                        l16250 0000  
                                      l16242 0000                                        l16234 0000  
                                      l16226 0000                                        l16218 0000  
                                      l15362 0000                                        l15258 04CA  
                                      l15274 04D7                                        l15186 0000  
                                      l15178 0000                                        l15418 05B2  
                                      l15450 0000                                        l16306 0000  
                                      l16314 0000                                        l16410 004D  
                                      l14708 0000                                        l14716 0000  
                                      l14724 0000                                        l16164 0000  
                                      l16172 0000                                        l16180 0000  
                                      l16252 0000                                        l16244 0000  
                                      l16236 0000                                        l16228 0000  
                                      l16260 0000                                        l15372 0000  
                                      l15348 052F                                        l15292 0000  
                                      l15188 0474                                        l15460 0000  
                                      l15452 0000                                        l16308 0000  
                                      l16340 0000                                        l16332 0000  
                                      l16324 0E57                                        l16316 0000  
                                      l16420 0000                                        l14718 0000  
                                      l14726 0000                                        l14734 0E2E  
                                      l14750 0795                                        l14742 0787  
                                      l16166 0000                                        l16174 0000  
                                      l16190 0000                                        l16254 0000  
                                      l16246 0000                                        l16238 0000  
                                      l16262 0000                                        l15366 0000  
                                      l15278 0000                                        l16270 0FFC  
                                      l15390 0000                                        l15470 0000  
                                      l15462 0000                                        l15454 0000  
                                      l16350 0000                                        l16342 0000  
                                      l16326 0000                                        l16502 010F  
                                      l16414 0054                                        l16406 0000  
                                      l14672 0000                                        l14680 0568  
                                      l14728 0000                                        l14744 0000  
                                      l14736 0000                                        l14824 0000  
                                      l16184 0000                                        l16176 0000  
                                      l16192 0000                                        l16248 0000  
                                      l15288 0000                                        l16264 0000  
                                      l16272 0000                                        l15472 0000  
                                      l15464 0000                                        l15456 0000  
                                      l16352 0000                                        l16328 0000  
                                      l16520 0000                                        l16440 0000  
                                      l16432 0000                                        l16424 0065  
                                      l14674 0000                                        l14762 07A5  
                                      l14754 079C                                        l14738 0000  
                                      l14850 0000                                        l16186 0FBC  
                                      l16178 0000                                        l16258 0000  
                                      l15298 0000                                        l16282 0000  
                                      l16274 0000                                        l16290 0000  
                                      l15466 0000                                        l15458 0000  
                                      l16338 0E84                                        l16610 0000  
                                      l16602 0000                                        l16514 0000  
                                      l16506 0000                                        l16450 0000  
                                      l16442 0000                                        l16426 0066  
                                      l14676 055C                                        l14780 07C2  
                                      l14772 07B4                                        l14756 079F  
                                      l14748 0000                                        l14860 0000  
                                      l14852 0000                                        l14844 0000  
                                      l16196 0000                                        l16188 0000  
                                      l16268 0000                                        l15396 0000  
                                      l15388 0000                                        l16284 0000  
                                      l15468 0000                                        l16364 0EC3  
                                      l16348 0E9F                                        l16700 02EA  
                                      l16604 0205                                        l16620 0225  
                                      l16508 011D                                        l16452 0000  
                                      l16444 0000                                        l16436 0000  
                                      l16380 0000                                        l14694 0573  
                                      l14686 056D                                        l14790 07D3  
                                      l14774 07B8                                        l14862 0F02  
                                      l14846 0000                                        l16198 0F26  
                                      l15398 0000                                        l16286 0000  
                                      l16294 0000                                        l16366 0EC5  
                                      l16710 02FB                                        l16702 02ED  
                                      l16630 0000                                        l16622 0000  
                                      l16614 021F                                        l16550 0182  
                                      l16526 0144                                        l16518 0137  
                                      l16462 0000                                        l16470 00B5  
                                      l16446 0000                                        l16438 0000  
                                      l16382 0000                                        l14768 07AB  
                                      l14864 0000                                        l14872 0000  
                                      l14960 0000                                        l14952 0000  
                                      l16296 0000                                        l16376 0ED7  
                                      l16800 0000                                        l16712 02FE  
                                      l16720 030B                                        l16640 0000  
                                      l16624 0234                                        l16616 0000  
                                      l16544 0142                                        l16464 00AB  
                                      l16456 0000                                        l16448 0000  
                                      l16392 0000                                        l14698 0575  
                                      l14786 07C8                                        l14778 07BF  
                                      l14794 07D8                                        l14866 0EDE  
                                      l14874 0615                                        l14970 0402  
                                      l16298 0000                                        l16802 0000  
                                      l16730 0317                                        l16722 0000  
                                      l16642 0000                                        l16634 0249  
                                      l16562 0000                                        l16554 0000  
                                      l16546 0000                                        l16650 0260  
                                      l16458 00A4                                        l16386 0025  
                                      l14796 07EF                                        l14868 0F0B  
                                      l14884 0000                                        l14876 0000  
                                      l14980 0000                                        l14948 0000  
                                      l16812 03C1                                        l16804 03B4  
                                      l16724 0000                                        l16740 0324  
                                      l16660 0000                                        l16644 0000  
                                      l16636 0000                                        l16556 0191  
                                      l16468 0000                                        l16396 0035  
                                      l14886 0000                                        l14878 0633  
                                      l14982 0000                                        l14974 0000  
                                      l14966 0000                                        l14958 0000  
                                      l16814 03C5                                        l16742 0325  
                                      l16734 031E                                        l16726 0311  
                                      l16718 0308                                        l16646 0000  
                                      l16638 0000                                        l16574 01B8  
                                      l16566 01AB                                        l16478 00D1  
                                      l16830 0000                                        l14992 041C  
                                      l14968 0000                                        l16808 03BA  
                                      l16736 0322                                        l16664 0277  
                                      l16656 026A                                        l16648 025E  
                                      l16592 01B6                                        l16568 0000  
                                      l16496 00CF                                        l16840 0000  
                                      l16832 0000                                        l16824 0000  
                                      l16762 0000                                        l16690 02D9  
                                      l16818 03C7                                        l16594 0000  
                                      l16498 0000                                        l16842 0000  
                                      l16834 0000                                        l16826 0000  
                                      l14996 0000                                        l14988 0000  
                                      l16780 0390                                        l16764 0000  
                                      l16684 0000                                        l16860 0000  
                                      l16844 0000                                        l16836 0000  
                                      l16828 0000                                        l16790 03A1  
                                      l16766 0000                                        l16758 0000  
                                      l16686 0000                                        l16598 01F6  
                                      l16870 06C9                                        l16862 06B9  
                                      l16854 0000                                        l16846 0000  
                                      l16838 0000                                        l16768 037C  
                                      l16688 0000                                        l16880 0000  
                                      l16848 0698                                        l16778 038D  
                                      l16890 0000                                        l16882 0000  
                                      l16874 06CB                                        l16858 06B0  
                                      l16796 03AB                                        l16788 039E  
                                      l16892 0000                                        l16884 0000  
                                      l16876 0000                                        l16798 03AE  
                                      l16894 0000                                        l16886 06DC  
                                      l16878 0000                                        l16896 0000  
                                      l16888 0000                                        ?_main 0070  
                                      _T1CON 0010                                        _TMR1H 000F  
                                      _TMR1L 000E                                        _TRISB 0086  
                                      _TRISC 0087                                        _WPUC1 0C79  
                             ??_IIC_Wait_ACK 0074                                 _I2C_ReadByte 0591  
                                      main@i 006D                                 _I2C_SendByte 05F9  
                 __size_of_AT24C02_Read_Byte 001C                                        pclath 000A  
                           __end_of_SPI_init 0FE8                                RF_ReadReg@tmp 0051  
                         __size_of_RF_RxData 0011                         __size_of_channel_set 0035  
                            __end_of_rx_data 0ED9                                        status 0003  
                                      wtemp0 007E                                  ?_RF_ReadReg 0070  
                             ?_RF_Write_Buff 0050                                 __end_of_main 06F8  
                            ??_soft_delay_ms 0075                                 ?_recive_task 0070  
                          __end_of_IIC_START 0628                                       ??_main 0076  
                                  ??_IIC_ACK 0074                              ??_RF_Set_RxMode 0076  
                          AT24C02_Read_Msg@i 005A                     _system_set_CPU_frequency 0D9D  
                                  ??_RF_Init 0076                            iic_delay_us@delay 0073  
                                     i1l1316 0DE7                                       i1l2601 0000  
                 __size_of_AT24C02_Write_Msg 0019                                       _INTCON 000B  
                        __size_of_TIMER1_ISR 0017                                       _OSCCON 008F  
                                     _TRISA3 042B                                       _TRISC0 0438  
                                     _TRISA4 042C                                       _TRISC1 0439  
                                     _TRISA5 042D                                       _TRISB4 0434  
                                     _TRISB5 0435                                       _TRISA7 042F  
                                     _TRISB6 0436                                       _TRISE1 0449  
                                     _TRISE2 044A                                       _SPI_RW 0FCC  
                              ??_Timer1_Init 0073                         __end_of_iic_delay_us 061B  
                                     ___bmul 0631                             __end_of_key_Init 0DAE  
                           __end_of_key_scan 0456                                       _rf_buf 003B  
                          __end_of_RF_RxData 0F21                                       clrloop 07F5  
                        __size_of_RF_ReadReg 0009                                   UpdateCRC@i 0055  
                                 UpdateCRC@k 0054                           __size_of_UpdateCRC 0037  
                                     saved_w 007E                                 _crc_2_4G_lib 0730  
                                  ??_rx_data 0058                                    ?_IIC_NACK 0070  
                            ??_RF_Write_Buff 0075                                    ?_IIC_STOP 0070  
                                  ?_IIC_Init 0070                       RF_Carrier@Dem_cal_data 077D  
                        SPI_RW@read_reg_addr 0073                    __size_of_AT24C02_Read_Msg 0018  
                      recive_task@match_flag 0065                          ___bmul@multiplicand 0073  
                       __end_of_IIC_Wait_ACK 05F9                               __pcstackCOMMON 0070  
                               __pidataBANK0 0000                          __end_of_Timer1_Init 06FF  
                               _channel_flag 004D                                 ?_RF_WriteReg 0075  
                      RF_RxData@payload_buff 0056                                    ?_SPI_init 0070  
                              _key_long_flag 0079                         AT24C02_Read_Msg@addr 0059  
                       AT24C02_Read_Msg@data 0056                               _RX_ADDRESS_DEF 0777  
                          ?_Enable_Interrupt 0070                                   __pbssBANK0 0020  
                                 __pbssBANK1 00A0                                   ??_IIC_NACK 0074  
                         RF_Init@RF_cal_data 0774                                   _ble_crc_38 0706  
                                 ??_IIC_STOP 0074                                   ??_IIC_Init 0073  
                         ??_Enable_Interrupt 0073                                      ?_SPI_RW 0070  
                                 _delay_flag 0039                                   _delay_task 077F  
                          __end_of_UpdateCRC 0F10                                   __pmaintext 066C  
                                    ?___bmul 0073                                ?_Timer1_start 0073  
                             soft_delay_ms@i 0050                               soft_delay_ms@j 0052  
                             soft_delay_ms@k 0053                                 ??_TIMER1_ISR 0070  
                                 __pintentry 0004                            channel_set@status 0073  
                                    SPI_RW@i 0074                                   __ptext1100 000D  
                                 __ptext1101 0E4A                                   __ptext1110 0FE8  
                                 __ptext1102 063F                                   __ptext1111 0456  
                                 __ptext1103 05CA                                   __ptext1120 03E9  
                                 __ptext1112 0E3A                                   __ptext1104 03D0  
                                 __ptext1121 0FF3                                   __ptext1113 0F37  
                                 __ptext1105 0F10                                   __ptext1130 077F  
                                 __ptext1122 0F21                                   __ptext1114 05F9  
                                 __ptext1106 0591                                   __ptext1131 0E05  
                                 __ptext1123 0FB7                                   __ptext1115 0586  
                                 __ptext1107 05B7                                   __ptext1140 0DEE  
                                 __ptext1132 07FC                                   __ptext1124 0FAE  
                                 __ptext1116 0579                                   __ptext1108 0FFC  
                                 __ptext1141 0000                                   __ptext1133 0DAE  
                                 __ptext1125 0631                                   __ptext1117 05E6  
                                 __ptext1109 0FEC                                   __ptext1134 06F8  
                                 __ptext1126 0614                                   __ptext1118 0628  
                                 __ptext1135 0DA8                                   __ptext1127 0ED9  
                                 __ptext1119 061B                                   __ptext1136 0DA2  
                                 __ptext1128 0FCC                                   __ptext1137 055C  
                                 __ptext1129 0FE1                                   __ptext1138 0D9D  
                                 __ptext1139 0DDD                         __size_of_recive_task 03C3  
                             rx_data@rx_flag 005E                                   ??_SPI_init 0073  
                                    _IIC_ACK 0579                                      i1l14800 0000  
                                    i1l14810 0000                                      i1l14802 0000  
                                    i1l14820 0000                                      i1l14812 0000  
                                    i1l14822 0000                                      i1l14814 0000  
                                    i1l14806 0000                                      i1l14816 0000  
                                    i1l14808 0000                                      i1l14818 0000  
                                    i1l14798 0000                  __size_of_AT24C02_Write_Byte 0013  
                                    _OSCTUNE 0090                                      _RF_Init 0F37  
                                  ?_key_Init 0070                           __end_of_TIMER1_ISR 0E05  
                                  ?_key_scan 0070                        __size_of_iic_delay_us 0007  
                       AT24C02_Write_Msg@len 0055                                   _control_id 00A8  
                               ??_RF_ReadReg 0075                              __size_of_SPI_RW 0015  
                           I2C_ReadByte@data 0051                                  _Timer1_Init 06F8  
                             ??_Timer1_start 0050                              __size_of___bmul 000E  
                 ??_system_set_CPU_frequency 0073                                      _crc_lab 0745  
                               __size_of_ISR 0011                                    _KEY0_FLAG 0076  
                                  _IIC_START 061B                           __end_of_RF_ReadReg 0FFC  
                                  _KEY1_FLAG 0077                                    _KEY2_FLAG 0078  
                            _Timer0_set_time 0038                      __size_of_key_value_read 0106  
                               _iic_delay_us 0614                                      _rx_data 0E4A  
                              ??_channel_set 0074                              _Timer1_set_time 002C  
                       end_of_initialization 0DDA                                   ??_key_Init 0073  
                              ?_RF_ClearFIFO 0070                                   ??_key_scan 0075  
                      __size_of_IIC_Wait_ACK 0013                             _AT24C02_Read_Msg 063F  
                                ?_delay_task 0070                                ?_RF_GetStatus 0070  
Timer1_start@Timer1_ISR_execution_total_time 0075                        __end_of_soft_delay_ms 0579  
                    RF_Carrier@Dem_cal2_data 076B                         __size_of_RF_WriteReg 0009  
                              ?_RF_Read_Buff 0050                      __size_of_RF_ClearStatus 0004  
                                  _RF_RxData 0F10                                   ?_IIC_START 0070  
                      __end_of_RF_Set_RxMode 0E4A                           RF_Write_Buff@pBuff 0050  
                               _IIC_Wait_ACK 05E6                               ??_RF_ClearFIFO 0076  
                        __end_of_channel_set 0E3A                            __size_of_IIC_NACK 000B  
                          __size_of_IIC_STOP 0009                               recive_task@msg 0066  
                             __end_of_SPI_RW 0FE1                            __size_of_IIC_Init 0006  
                       RF_Init@Dem_cal2_data 0771                               ??_RF_GetStatus 0075  
                     AT24C02_Write_Byte@addr 0051                       AT24C02_Write_Byte@data 0050  
                                rx_data@rand 005D                               __end_of___bmul 063F  
                             ??_RF_Read_Buff 0075                                _channel_delay 0029  
                        start_initialization 0DC5                            __size_of_SPI_init 0007  
                                 ?_RF_RxData 0054                                  __end_of_ISR 0DEE  
                        __size_of_delay_task 0075                    Timer1_Init@TIMER1_DIVIDER 0073  
                       __end_of_Timer1_start 0DC5                               _TX_ADDRESS_DEF 077A  
                                   ??_SPI_RW 0073                        __end_of_RF_Write_Buff 0FCC  
                      AT24C02_Read_Byte@addr 0054                        AT24C02_Read_Byte@temp 0055  
                         AT24C02_Write_Msg@i 0058                          RF_Init@RF_cal2_data 075B  
                                   ??___bmul 0074                    __size_of_Enable_Interrupt 0002  
                                __pdataBANK0 006E             __end_of_system_set_CPU_frequency 0DA2  
                                  _UpdateCRC 0ED9                           UpdateCRC@CRC_input 0053  
                                   ?_IIC_ACK 0070                                  __pbssCOMMON 0076  
                                ??_IIC_START 0074                                 recive_task@i 006C  
                             _key_value_read 0456                                __pcstackBANK0 0050  
                              ?_I2C_ReadByte 0074                       channel_set@channel_num 0074  
                                   ?_RF_Init 0070                                  _channel_set 0E05  
                              ?_I2C_SendByte 0070                          AT24C02_Read_Msg@len 0057  
                           UpdateCRC@CRC_acc 0056                            __size_of_key_Init 0006  
                        _virtual_timer_group 00A0                            __size_of_key_scan 006D  
                               ?_Timer1_Init 0070                                  _flag_5s_add 0030  
                              ??_recive_task 0060                                   ?_UpdateCRC 0073  
                           I2C_SendByte@Data 0074                                _flag_5min_add 002E  
                       __end_of_RF_ClearFIFO 0FF3                              soft_delay_ms@ms 0073  
                 __end_of_AT24C02_Write_Byte 05CA                                    __pstrings 0700  
                     __end_of_key_value_read 055C                               _RF_ClearStatus 0FFC  
                   __end_of_AT24C02_Read_Msg 0657                               ??_I2C_ReadByte 0076  
                                ??_RF_RxData 0055                           RF_ReadReg@reg_addr 0050  
                            I2C_ReadByte@ack 0050                              I2C_ReadByte@cnt 0053  
                       __end_of_RF_GetStatus 0FEC                                     ?_rx_data 0070  
                             ??_I2C_SendByte 0074                              RF_RxData@length 0054  
                                   _IIC_NACK 0586                                     _IIC_STOP 0628  
                          interrupt_function 0004                                     _IIC_Init 0DA2  
                       __end_of_RF_Read_Buff 0F37                                 ??_delay_task 0073  
             ISR@peripheral_intterrupt_touch 0072                        RF_Carrier@BB_cal_data 0761  
                          _key_long_flag_add 007A                                  __stringbase 0705  
                     __end_of_RF_ClearStatus 1000                                     _SPI_init 0FE1  
                        __end_of_recive_task 03D0                        __size_of_Timer1_start 0017  
                            ?_key_value_read 0070                             __size_of_IIC_ACK 000D  
                         RF_Read_Buff@length 0051                           __end_of_delay_task 07F4  
                      AT24C02_Write_Msg@addr 0057                        AT24C02_Write_Msg@data 0054  
                        RF_Init@Dem_cal_data 077E                             __size_of_RF_Init 0077  
          __size_of_system_set_CPU_frequency 0005                                    _sys_stute 006F  
                  ?_system_set_CPU_frequency 0070                               RF_Write_Buff@i 0053  
                        recive_task@flag_led 0064                                 _Timer1_start 0DAE  
                           _Enable_Interrupt 07FC                                  ??_UpdateCRC 0050  
                              ??_RF_WriteReg 0076                              ?_RF_ClearStatus 0070  
                         Timer1_start@T_nums 0073                             __size_of_rx_data 008F  
                            I2C_SendByte@cnt 0075                                     _key_Init 0DA8  
                     __size_of_soft_delay_ms 001D                                     _key_scan 03E9  
                              __size_of_main 008C                                     clear_ram 07F4  
                       __end_of_I2C_ReadByte 05B7                        __size_of_RF_ClearFIFO 0007  
                     __size_of_RF_Set_RxMode 0010                         __size_of_Timer1_Init 0007  
                                _recive_task 000D                         __end_of_I2C_SendByte 0614  
                          RF_Read_Buff@pBuff 0050                        __size_of_RF_GetStatus 0004  
                      RF_WriteReg@write_data 0075                          __end_of_RF_WriteReg 0FB7  
                               ?_channel_set 0073                                     intlevel1 0000  
                      __size_of_RF_Read_Buff 0016                                 _RF_ClearFIFO 0FEC  
                               UpdateCRC@len 0073                            _AT24C02_Read_Byte 05CA  
                         ?_AT24C02_Read_Byte 0070                                    stringcode 0700  
                               _RF_GetStatus 0FE8                           _flag_time_key0_add 0032  
                         _flag_time_key1_add 0034                           _flag_time_key2_add 0036  
                        RF_WriteReg@reg_addr 0050                                     rx_data@i 005F  
                                 _TIMER1_ISR 0DEE                          ??_AT24C02_Read_Byte 0076  
                              _soft_delay_ms 055C                           _match_channel_flag 006E  
                                 _OPTION_REG 0081                       __size_of_RF_Write_Buff 0015  
                               _RF_Read_Buff 0F21                                     stringdir 0700  
                          ?_AT24C02_Read_Msg 0056                                     stringtab 0700  
                              ?_iic_delay_us 0070                                _RF_Set_RxMode 0E3A  
                         ??_AT24C02_Read_Msg 0058                           _AT24C02_Write_Byte 05B7  
                  __end_of_AT24C02_Read_Byte 05E6                            _ADC_digital_value 00A6  
                          _AT24C02_Write_Msg 03D0                                   _RF_ReadReg 0FF3  
                        ?_AT24C02_Write_Byte 0050                           ?_AT24C02_Write_Msg 0054  
      system_set_CPU_frequency@CPU_Frequency 0073  
