

HI-TECH Software PIC PRO Macro Assembler V9.83 build 10920 
                                                                                               Fri Jul 16 10:05:02 2021

HI-TECH Software Omniscient Code Generator (PRO mode) build 10920
     1                           	processor	MX5325
     2                           	opt	pw 120
     3                           	opt	pm
     4                           	psect	idataBANK0,global,class=CODE,delta=2
     5                           	psect	strings,global,class=STRING,delta=2
     6                           	psect	cinit,global,class=CODE,delta=2
     7                           	psect	bssCOMMON,global,class=COMMON,space=1,delta=1
     8                           	psect	bssBANK0,global,class=BANK0,space=1,delta=1
     9                           	psect	dataBANK0,global,class=BANK0,space=1,delta=1
    10                           	psect	clrtext,global,class=CODE,delta=2
    11                           	psect	cstackCOMMON,global,class=COMMON,space=1,delta=1
    12                           	psect	cstackBANK0,global,class=BANK0,space=1,delta=1
    13                           	psect	maintext,global,class=CODE,delta=2
    14                           	psect	text738,local,class=CODE,delta=2
    15                           	psect	text750,local,class=CODE,delta=2
    16                           	psect	text751,local,class=CODE,delta=2
    17                           	psect	text752,local,class=CODE,delta=2
    18                           	psect	text753,local,class=CODE,delta=2
    19                           	psect	text754,local,class=CODE,delta=2
    20                           	psect	text756,local,class=CODE,delta=2
    21                           	psect	text757,local,class=CODE,delta=2
    22                           	psect	intentry,global,class=CODE,delta=2
    23                           	psect	text759,local,class=CODE,delta=2
    24                           	psect	pa_nodes,global,class=CODE,delta=2
    25                           	dabs	1,0x7E,2
    26  000A                     
    27                           	psect	idataBANK0
    28  0000                     __pidataBANK0:	
    29                           
    30                           	psect	strings
    31  0300                     __pstrings:	
    32  0300                     stringtab:	
    33                           ;	global	stringdir,stringtab,__stringbase
    34                           
    35                           
    36                           ;	String table - string pointers are 1 byte each
    37  0300  1BFF               	btfsc	btemp+1,7
    38  0301  2B0A               	ljmp	stringcode
    39  0302  1383               	bcf	3,7
    40  0303  187F               	btfsc	btemp+1,0
    41  0304  1783               	bsf	3,7
    42  0305  0800               	movf	0,w
    43  0306  0A84               	incf	4,f
    44  0307  1903               	skipnz
    45  0308  0AFF               	incf	btemp+1,f
    46  0309  0008               	return
    47  030A                     stringcode:	
    48  030A                     stringdir:	
    49  030A  3003               	movlw	high stringdir
    50  030B  008A               	movwf	10
    51  030C  0804               	movf	4,w
    52  030D  0A84               	incf	4,f
    53  030E  0782               	addwf	2,f
    54  030F                     __stringbase:	
    55  030F  3400               	retlw	0
    56  0310                     _ble_crc_38:	
    57  0310  34D6               	retlw	214
    58  0311  34C5               	retlw	197
    59  0312  3444               	retlw	68
    60  0313  3420               	retlw	32
    61  0314  3459               	retlw	89
    62  0315  34DE               	retlw	222
    63  0316  34E1               	retlw	225
    64  0317  348F               	retlw	143
    65  0318  341B               	retlw	27
    66  0319  34A5               	retlw	165
    67  031A  34AF               	retlw	175
    68  031B  3442               	retlw	66
    69  031C  347B               	retlw	123
    70  031D  344E               	retlw	78
    71  031E  34CD               	retlw	205
    72  031F  3460               	retlw	96
    73  0320  34EB               	retlw	235
    74  0321  3462               	retlw	98
    75  0322  3422               	retlw	34
    76  0323  3490               	retlw	144
    77  0324  342C               	retlw	44
    78  0325  34EF               	retlw	239
    79  0326  34F0               	retlw	240
    80  0327  34C7               	retlw	199
    81  0328  348D               	retlw	141
    82  0329  34D2               	retlw	210
    83  032A  3457               	retlw	87
    84  032B  34A1               	retlw	161
    85  032C  343D               	retlw	61
    86  032D  34A7               	retlw	167
    87  032E  3466               	retlw	102
    88  032F  34B0               	retlw	176
    89  0330  3475               	retlw	117
    90  0331  3431               	retlw	49
    91  0332  3411               	retlw	17
    92  0333  3448               	retlw	72
    93  0334  3496               	retlw	150
    94  0335  3477               	retlw	119
    95  0336  34F8               	retlw	248
    96  0337  34E3               	retlw	227
    97  0338  3446               	retlw	70
    98  0339  34E9               	retlw	233
    99  033A                     _crc_2_4G_lib:	
   100  033A  34C7               	retlw	199
   101  033B  348D               	retlw	141
   102  033C  34D2               	retlw	210
   103  033D  3457               	retlw	87
   104  033E  34A1               	retlw	161
   105  033F  343D               	retlw	61
   106  0340  34A7               	retlw	167
   107  0341  3466               	retlw	102
   108  0342  34B0               	retlw	176
   109  0343  3475               	retlw	117
   110  0344  3431               	retlw	49
   111  0345  3411               	retlw	17
   112  0346  3448               	retlw	72
   113  0347  3496               	retlw	150
   114  0348  3477               	retlw	119
   115  0349  34F8               	retlw	248
   116  034A  34E3               	retlw	227
   117  034B  3446               	retlw	70
   118  034C  34E9               	retlw	233
   119  034D  34AB               	retlw	171
   120  034E  34D0               	retlw	208
   121  034F                     _crc_lab:	
   122  034F  3441               	retlw	65
   123  0350  3492               	retlw	146
   124  0351  3453               	retlw	83
   125  0352  342A               	retlw	42
   126  0353  34FC               	retlw	252
   127  0354  34AB               	retlw	171
   128  0355  34CE               	retlw	206
   129  0356  3426               	retlw	38
   130  0357  340D               	retlw	13
   131  0358  341E               	retlw	30
   132  0359  3499               	retlw	153
   133  035A  3478               	retlw	120
   134  035B  3400               	retlw	0
   135  035C  3422               	retlw	34
   136  035D  3499               	retlw	153
   137  035E  34DE               	retlw	222
   138  035F                     RF_Carrier@RF_cal2_data:	
   139  035F  3445               	retlw	69
   140  0360  3421               	retlw	33
   141  0361  343F               	retlw	63
   142  0362  342D               	retlw	45
   143  0363  345C               	retlw	92
   144  0364  3440               	retlw	64
   145  0365                     RF_Init@RF_cal2_data:	
   146  0365  3445               	retlw	69
   147  0366  3421               	retlw	33
   148  0367  343F               	retlw	63
   149  0368  342D               	retlw	45
   150  0369  345C               	retlw	92
   151  036A  3440               	retlw	64
   152  036B                     RF_Carrier@BB_cal_data:	
   153  036B  340A               	retlw	10
   154  036C  346D               	retlw	109
   155  036D  3467               	retlw	103
   156  036E  349C               	retlw	156
   157  036F  3446               	retlw	70
   158  0370                     RF_Init@BB_cal_data:	
   159  0370  340A               	retlw	10
   160  0371  346D               	retlw	109
   161  0372  3467               	retlw	103
   162  0373  349C               	retlw	156
   163  0374  3446               	retlw	70
   164  0375                     RF_Carrier@Dem_cal2_data:	
   165  0375  340B               	retlw	11
   166  0376  34DF               	retlw	223
   167  0377  3402               	retlw	2
   168  0378                     RF_Carrier@RF_cal_data:	
   169  0378  3416               	retlw	22
   170  0379  3433               	retlw	51
   171  037A  3427               	retlw	39
   172  037B                     RF_Init@Dem_cal2_data:	
   173  037B  340B               	retlw	11
   174  037C  34DF               	retlw	223
   175  037D  3402               	retlw	2
   176  037E                     RF_Init@RF_cal_data:	
   177  037E  3416               	retlw	22
   178  037F  3433               	retlw	51
   179  0380  3427               	retlw	39
   180  0381                     _AdvData_3:	
   181  0381  34AA               	retlw	170
   182  0382  3455               	retlw	85
   183  0383  3411               	retlw	17
   184  0384                     _RX_ADDRESS_DEF:	
   185  0384  342D               	retlw	45
   186  0385  34D7               	retlw	215
   187  0386  34B9               	retlw	185
   188  0387                     _TX_ADDRESS_DEF:	
   189  0387  34CC               	retlw	204
   190  0388  34CC               	retlw	204
   191  0389  34CC               	retlw	204
   192  038A                     RF_Carrier@Dem_cal_data:	
   193  038A  34E1               	retlw	225
   194  038B                     RF_Init@Dem_cal_data:	
   195  038B  3401               	retlw	1
   196  000B                     _INTCON	set	11
   197  000C                     _PIR1	set	12
   198  0010                     _T1CON	set	16
   199  000F                     _TMR1H	set	15
   200  000E                     _TMR1L	set	14
   201  002C                     _RA4	set	44
   202  002D                     _RA5	set	45
   203  002F                     _RA7	set	47
   204  0031                     _RB1	set	49
   205  0038                     _RC0	set	56
   206  0039                     _RC1	set	57
   207  003A                     _RC2	set	58
   208  0049                     _RE1	set	73
   209  004A                     _RE2	set	74
   210  0081                     _OPTION_REG	set	129
   211  008F                     _OSCCON	set	143
   212  0090                     _OSCTUNE	set	144
   213  008C                     _PIE1	set	140
   214  0086                     _TRISB	set	134
   215  0087                     _TRISC	set	135
   216  0095                     _WPUB	set	149
   217  042B                     _TRISA3	set	1067
   218  042C                     _TRISA4	set	1068
   219  042D                     _TRISA5	set	1069
   220  042F                     _TRISA7	set	1071
   221  0431                     _TRISB1	set	1073
   222  0449                     _TRISE1	set	1097
   223  044A                     _TRISE2	set	1098
   224                           
   225                           	psect	cinit
   226  03F0                     start_initialization:	
   227  03F0  3020               	movlw	low __pbssBANK0
   228                           
   229                           ; Clear objects allocated to COMMON
   230  03F1  01F5               	clrf	__pbssCOMMON& (0+127)
   231  03F2  01F6               	clrf	(__pbssCOMMON+1)& (0+127)
   232  03F3  01F7               	clrf	(__pbssCOMMON+2)& (0+127)
   233  03F4  01F8               	clrf	(__pbssCOMMON+3)& (0+127)
   234                           
   235                           ; Clear objects allocated to BANK0
   236  03F5  1383               	bcf	3,7	;select IRP bank0
   237  03F6  0084               	movwf	4
   238  03F7  304E               	movlw	low (__pbssBANK0+46)
   239  03F8  118A  2402         	fcall	clear_ram
   240                           
   241                           ;initializer for _frame_count
   242  03FA  30FF               	movlw	255
   243  03FB  00E3               	movwf	__pdataBANK0& (0+127)
   244  03FC  00E4               	movwf	(__pdataBANK0+1)& (0+127)
   245  03FD  00E5               	movwf	(__pdataBANK0+2)& (0+127)
   246  03FE  00E6               	movwf	(__pdataBANK0+3)& (0+127)
   247  03FF                     end_of_initialization:	
   248                           ;End of C runtime variable initialization code
   249                           
   250  03FF  0183               	clrf	3
   251  0400  118A  2B8C         	ljmp	_main	;jump to C main() function
   252                           
   253                           	psect	bssCOMMON
   254  0075                     __pbssCOMMON:	
   255  0075                     _Timer1_set_time:	
   256  0075                     	ds	2
   257  0077                     _Timer0_set_time:	
   258  0077                     	ds	1
   259  0078                     _last_PORTB_value:	
   260  0078                     	ds	1
   261                           
   262                           	psect	bssBANK0
   263  0020                     __pbssBANK0:	
   264  0020                     _virtual_timer_group:	
   265  0020                     	ds	6
   266  0026                     _ADC_digital_value:	
   267  0026                     	ds	2
   268  0028                     _AdvData_23:	
   269  0028                     	ds	20
   270  003C                     _rf_buf:	
   271  003C                     	ds	18
   272                           
   273                           	psect	dataBANK0
   274  0063                     __pdataBANK0:	
   275  0063                     _frame_count:	
   276  0063                     	ds	4
   277                           
   278                           	psect	clrtext
   279  0402                     clear_ram:	
   280                           ;	Called with FSR containing the base address, and
   281                           ;	W with the last address+1
   282                           
   283  0402  0064               	clrwdt	;clear the watchdog before getting into this loop
   284  0403                     clrloop:	
   285  0403  0180               	clrf	0	;clear RAM location pointed to by FSR
   286  0404  0A84               	incf	4,f	;increment pointer
   287  0405  0604               	xorwf	4,w	;XOR with final address
   288  0406  1903               	btfsc	3,2	;have we reached the end yet?
   289  0407  3400               	retlw	0	;all done for this memory range, return
   290  0408  0604               	xorwf	4,w	;XOR again to restore value
   291  0409  2C03               	goto	clrloop	;do the next byte
   292                           
   293                           	psect	cstackCOMMON
   294  0070                     __pcstackCOMMON:	
   295  0070                     ?_system_set_CPU_frequency:	
   296  0070                     ?_IIC_Init:	
   297                           ; 0 bytes @ 0x0
   298                           
   299  0070                     ?_key_Init:	
   300                           ; 0 bytes @ 0x0
   301                           
   302  0070                     ?_RF_Init:	
   303                           ; 0 bytes @ 0x0
   304                           
   305  0070                     ?_RF_Set_RxMode:	
   306                           ; 0 bytes @ 0x0
   307                           
   308  0070                     ?_Timer1_Init:	
   309                           ; 0 bytes @ 0x0
   310                           
   311  0070                     ?_Enable_Interrupt:	
   312                           ; 0 bytes @ 0x0
   313                           
   314  0070                     ?_recive_task:	
   315                           ; 0 bytes @ 0x0
   316                           
   317  0070                     ?_TIMER1_ISR:	
   318                           ; 0 bytes @ 0x0
   319                           
   320  0070                     ??_TIMER1_ISR:	
   321                           ; 0 bytes @ 0x0
   322                           
   323  0070                     ?_SPI_init:	
   324                           ; 0 bytes @ 0x0
   325                           
   326  0070                     ?_RF_ClearFIFO:	
   327                           ; 0 bytes @ 0x0
   328                           
   329  0070                     ?_RF_ClearStatus:	
   330                           ; 0 bytes @ 0x0
   331                           
   332  0070                     ?_send:	
   333                           ; 0 bytes @ 0x0
   334                           
   335  0070                     ?_main:	
   336                           ; 0 bytes @ 0x0
   337                           
   338  0070                     ?_ISR:	
   339                           ; 0 bytes @ 0x0
   340                           
   341  0070                     ??_ISR:	
   342                           ; 0 bytes @ 0x0
   343                           
   344  0070                     ?_RF_GetStatus:	
   345                           ; 0 bytes @ 0x0
   346                           
   347  0070                     ?_RF_ReadReg:	
   348                           ; 1 bytes @ 0x0
   349                           
   350  0070                     ?_SPI_RW:	
   351                           ; 1 bytes @ 0x0
   352                           
   353  0070                     ?_rx_data:	
   354                           ; 1 bytes @ 0x0
   355                           
   356                           
   357                           ; 1 bytes @ 0x0
   358  0070                     	ds	4
   359  0074                     ISR@peripheral_intterrupt_touch:	
   360                           
   361                           ; 1 bytes @ 0x4
   362  0074                     	ds	1
   363  0075                     ??_system_set_CPU_frequency:	
   364  0075                     ??_soft_delay_ms:	
   365                           ; 0 bytes @ 0x5
   366                           
   367  0075                     ??_IIC_Init:	
   368                           ; 0 bytes @ 0x5
   369                           
   370  0075                     ??_key_Init:	
   371                           ; 0 bytes @ 0x5
   372                           
   373  0075                     ??_RF_Init:	
   374                           ; 0 bytes @ 0x5
   375                           
   376  0075                     ??_RF_Set_RxMode:	
   377                           ; 0 bytes @ 0x5
   378                           
   379  0075                     ??_Timer1_Init:	
   380                           ; 0 bytes @ 0x5
   381                           
   382  0075                     ??_Enable_Interrupt:	
   383                           ; 0 bytes @ 0x5
   384                           
   385  0075                     ??_recive_task:	
   386                           ; 0 bytes @ 0x5
   387                           
   388  0075                     ??_RF_GetStatus:	
   389                           ; 0 bytes @ 0x5
   390                           
   391  0075                     ??_SPI_init:	
   392                           ; 0 bytes @ 0x5
   393                           
   394  0075                     ??_RF_WriteReg:	
   395                           ; 0 bytes @ 0x5
   396                           
   397  0075                     ??_RF_Write_Buff:	
   398                           ; 0 bytes @ 0x5
   399                           
   400  0075                     ??_RF_ClearFIFO:	
   401                           ; 0 bytes @ 0x5
   402                           
   403  0075                     ??_RF_ClearStatus:	
   404                           ; 0 bytes @ 0x5
   405                           
   406  0075                     ??_RF_ReadReg:	
   407                           ; 0 bytes @ 0x5
   408                           
   409  0075                     ??_SPI_RW:	
   410                           ; 0 bytes @ 0x5
   411                           
   412  0075                     ??_send:	
   413                           ; 0 bytes @ 0x5
   414                           
   415  0075                     ??_main:	
   416                           ; 0 bytes @ 0x5
   417                           
   418  0075                     ??_Delay_us:	
   419                           ; 0 bytes @ 0x5
   420                           
   421                           
   422                           	psect	cstackBANK0
   423  004E                     __pcstackBANK0:	
   424                           ; 0 bytes @ 0x5
   425                           
   426  004E                     ?_soft_delay_ms:	
   427  004E                     ?_Timer1_start:	
   428                           ; 0 bytes @ 0x0
   429                           
   430  004E                     ?_Delay_us:	
   431                           ; 0 bytes @ 0x0
   432                           
   433  004E                     ?_memcpy:	
   434                           ; 0 bytes @ 0x0
   435                           
   436  004E                     ?_UpdateCRC:	
   437                           ; 1 bytes @ 0x0
   438                           
   439  004E                     system_set_CPU_frequency@CPU_Frequency:	
   440                           ; 2 bytes @ 0x0
   441                           
   442  004E                     Timer1_Init@TIMER1_DIVIDER:	
   443                           ; 1 bytes @ 0x0
   444                           
   445  004E                     SPI_RW@read_reg_addr:	
   446                           ; 1 bytes @ 0x0
   447                           
   448  004E                     Timer1_start@T_nums:	
   449                           ; 1 bytes @ 0x0
   450                           
   451  004E                     soft_delay_ms@ms:	
   452                           ; 2 bytes @ 0x0
   453                           
   454  004E                     Delay_us@us:	
   455                           ; 2 bytes @ 0x0
   456                           
   457  004E                     UpdateCRC@len:	
   458                           ; 2 bytes @ 0x0
   459                           
   460  004E                     memcpy@s1:	
   461                           ; 2 bytes @ 0x0
   462                           
   463                           
   464                           ; 2 bytes @ 0x0
   465  004E                     	ds	1
   466  004F                     SPI_RW@i:	
   467                           
   468                           ; 1 bytes @ 0x1
   469  004F                     	ds	1
   470  0050                     ?_RF_WriteReg:	
   471  0050                     ?_RF_Write_Buff:	
   472                           ; 0 bytes @ 0x2
   473                           
   474  0050                     ?_RF_Read_Buff:	
   475                           ; 0 bytes @ 0x2
   476                           
   477  0050                     ??_UpdateCRC:	
   478                           ; 0 bytes @ 0x2
   479                           
   480  0050                     Timer1_start@Timer1_ISR_execution_total_time:	
   481                           ; 0 bytes @ 0x2
   482                           
   483  0050                     RF_Read_Buff@pBuff:	
   484                           ; 1 bytes @ 0x2
   485                           
   486  0050                     RF_Write_Buff@pBuff:	
   487                           ; 1 bytes @ 0x2
   488                           
   489  0050                     RF_WriteReg@write_data:	
   490                           ; 1 bytes @ 0x2
   491                           
   492  0050                     RF_ReadReg@reg_addr:	
   493                           ; 1 bytes @ 0x2
   494                           
   495  0050                     soft_delay_ms@i:	
   496                           ; 1 bytes @ 0x2
   497                           
   498  0050                     Delay_us@i:	
   499                           ; 2 bytes @ 0x2
   500                           
   501  0050                     memcpy@n:	
   502                           ; 2 bytes @ 0x2
   503                           
   504                           
   505                           ; 2 bytes @ 0x2
   506  0050                     	ds	1
   507  0051                     ??_Timer1_start:	
   508  0051                     RF_Read_Buff@length:	
   509                           ; 0 bytes @ 0x3
   510                           
   511  0051                     RF_Write_Buff@length:	
   512                           ; 1 bytes @ 0x3
   513                           
   514  0051                     RF_WriteReg@reg_addr:	
   515                           ; 1 bytes @ 0x3
   516                           
   517  0051                     RF_ReadReg@tmp:	
   518                           ; 1 bytes @ 0x3
   519                           
   520                           
   521                           ; 1 bytes @ 0x3
   522  0051                     	ds	1
   523  0052                     ??_RF_Read_Buff:	
   524  0052                     ??_memcpy:	
   525                           ; 0 bytes @ 0x4
   526                           
   527  0052                     RF_Write_Buff@reg_addr:	
   528                           ; 0 bytes @ 0x4
   529                           
   530  0052                     soft_delay_ms@j:	
   531                           ; 1 bytes @ 0x4
   532                           
   533  0052                     send@uContent:	
   534                           ; 1 bytes @ 0x4
   535                           
   536                           
   537                           ; 1 bytes @ 0x4
   538  0052                     	ds	1
   539  0053                     RF_Read_Buff@reg_addr:	
   540  0053                     RF_Write_Buff@i:	
   541                           ; 1 bytes @ 0x5
   542                           
   543  0053                     soft_delay_ms@k:	
   544                           ; 1 bytes @ 0x5
   545                           
   546  0053                     UpdateCRC@CRC_input:	
   547                           ; 1 bytes @ 0x5
   548                           
   549  0053                     send@uSendContent:	
   550                           ; 1 bytes @ 0x5
   551                           
   552  0053                     memcpy@d1:	
   553                           ; 1 bytes @ 0x5
   554                           
   555                           
   556                           ; 1 bytes @ 0x5
   557  0053                     	ds	1
   558  0054                     RF_Read_Buff@byte_ctr:	
   559  0054                     UpdateCRC@k:	
   560                           ; 1 bytes @ 0x6
   561                           
   562  0054                     send@i:	
   563                           ; 1 bytes @ 0x6
   564                           
   565  0054                     memcpy@s:	
   566                           ; 1 bytes @ 0x6
   567                           
   568                           
   569                           ; 2 bytes @ 0x6
   570  0054                     	ds	1
   571  0055                     ?_RF_RxData:	
   572  0055                     RF_RxData@length:	
   573                           ; 1 bytes @ 0x7
   574                           
   575  0055                     UpdateCRC@i:	
   576                           ; 1 bytes @ 0x7
   577                           
   578                           
   579                           ; 1 bytes @ 0x7
   580  0055                     	ds	1
   581  0056                     ??_RF_RxData:	
   582  0056                     memcpy@d:	
   583                           ; 0 bytes @ 0x8
   584                           
   585  0056                     UpdateCRC@CRC_acc:	
   586                           ; 1 bytes @ 0x8
   587                           
   588                           
   589                           ; 2 bytes @ 0x8
   590  0056                     	ds	1
   591  0057                     RF_RxData@payload_buff:	
   592                           
   593                           ; 1 bytes @ 0x9
   594  0057                     	ds	1
   595  0058                     ??_rx_data:	
   596                           
   597                           ; 0 bytes @ 0xA
   598  0058                     	ds	4
   599  005C                     rx_data@crc16:	
   600                           
   601                           ; 2 bytes @ 0xE
   602  005C                     	ds	2
   603  005E                     rx_data@rand:	
   604                           
   605                           ; 1 bytes @ 0x10
   606  005E                     	ds	1
   607  005F                     rx_data@crc18:	
   608                           
   609                           ; 2 bytes @ 0x11
   610  005F                     	ds	2
   611  0061                     rx_data@rx_flag:	
   612                           
   613                           ; 1 bytes @ 0x13
   614  0061                     	ds	1
   615  0062                     rx_data@i:	
   616                           
   617                           ; 1 bytes @ 0x14
   618  0062                     	ds	1
   619                           
   620                           	psect	maintext
   621  038C                     __pmaintext:	
   622 ;;Data sizes: Strings 0, constant 124, data 4, bss 50, persistent 0 stack 0
   623 ;;Auto spaces:   Size  Autos    Used
   624 ;; COMMON          14      5       9
   625 ;; BANK0           80     21      71
   626 ;; BANK1           80      0       0
   627 ;; BANK3           88      0       0
   628 ;; BANK2           80      0       0
   629 ;;
   630 ;; Pointer list with targets:
   631 ;; ?_memcpy	PTR void  size(1) Largest target is 20
   632 ;;		 -> AdvData_23(BANK0[20]), 
   633 ;;
   634 ;; ?_UpdateCRC	unsigned short  size(1) Largest target is 0
   635 ;;
   636 ;; memcpy@d1	PTR void  size(1) Largest target is 20
   637 ;;		 -> AdvData_23(BANK0[20]), 
   638 ;;
   639 ;; memcpy@d	PTR unsigned char  size(1) Largest target is 20
   640 ;;		 -> AdvData_23(BANK0[20]), 
   641 ;;
   642 ;; memcpy@s1	PTR const void  size(2) Largest target is 18
   643 ;;		 -> AdvData_3(CODE[3]), rf_buf(BANK0[18]), 
   644 ;;
   645 ;; memcpy@s	PTR const unsigned char  size(2) Largest target is 18
   646 ;;		 -> AdvData_3(CODE[3]), rf_buf(BANK0[18]), 
   647 ;;
   648 ;; sp__memcpy	PTR void  size(1) Largest target is 20
   649 ;;		 -> AdvData_23(BANK0[20]), 
   650 ;;
   651 ;; UpdateCRC@CRC_input	PTR unsigned char  size(1) Largest target is 20
   652 ;;		 -> AdvData_23(BANK0[20]), rf_buf(BANK0[18]), 
   653 ;;
   654 ;; RF_Write_Buff@pBuff	PTR unsigned char  size(1) Largest target is 6
   655 ;;		 -> RF_Carrier@Dem_cal2_data(CODE[3]), RF_Carrier@RF_cal_data(CODE[3]), RF_Carrier@Dem_cal_data(CODE[1]), RF_Carrier
      +@RF_cal2_data(CODE[6]), 
   656 ;;		 -> RF_Carrier@BB_cal_data(CODE[5]), RF_Init@Dem_cal2_data(CODE[3]), RF_Init@RF_cal_data(CODE[3]), RF_Init@Dem_cal_d
      +ata(CODE[1]), 
   657 ;;		 -> RF_Init@RF_cal2_data(CODE[6]), RF_Init@BB_cal_data(CODE[5]), RX_ADDRESS_DEF(CODE[3]), TX_ADDRESS_DEF(CODE[3]), 
   658 ;;
   659 ;; RF_Read_Buff@pBuff	PTR unsigned char  size(1) Largest target is 18
   660 ;;		 -> rf_buf(BANK0[18]), 
   661 ;;
   662 ;; RF_RxData@payload_buff	PTR unsigned char  size(1) Largest target is 18
   663 ;;		 -> rf_buf(BANK0[18]), 
   664 ;;
   665 ;;
   666 ;; Critical Paths under _main in COMMON
   667 ;;
   668 ;;   None.
   669 ;;
   670 ;; Critical Paths under _ISR in COMMON
   671 ;;
   672 ;;   None.
   673 ;;
   674 ;; Critical Paths under _main in BANK0
   675 ;;
   676 ;;   _recive_task->_rx_data
   677 ;;   _rx_data->_RF_RxData
   678 ;;   _rx_data->_UpdateCRC
   679 ;;   _RF_RxData->_RF_Read_Buff
   680 ;;   _RF_ClearStatus->_RF_WriteReg
   681 ;;   _RF_ClearFIFO->_RF_WriteReg
   682 ;;   _RF_GetStatus->_RF_ReadReg
   683 ;;   _RF_Set_RxMode->_soft_delay_ms
   684 ;;   _RF_Init->_RF_Write_Buff
   685 ;;   _send->_Delay_us
   686 ;;   _RF_ReadReg->_SPI_RW
   687 ;;   _RF_Read_Buff->_SPI_RW
   688 ;;   _RF_Write_Buff->_SPI_RW
   689 ;;   _RF_WriteReg->_SPI_RW
   690 ;;
   691 ;; Critical Paths under _ISR in BANK0
   692 ;;
   693 ;;   None.
   694 ;;
   695 ;; Critical Paths under _main in BANK1
   696 ;;
   697 ;;   None.
   698 ;;
   699 ;; Critical Paths under _ISR in BANK1
   700 ;;
   701 ;;   None.
   702 ;;
   703 ;; Critical Paths under _main in BANK3
   704 ;;
   705 ;;   None.
   706 ;;
   707 ;; Critical Paths under _ISR in BANK3
   708 ;;
   709 ;;   None.
   710 ;;
   711 ;; Critical Paths under _main in BANK2
   712 ;;
   713 ;;   None.
   714 ;;
   715 ;; Critical Paths under _ISR in BANK2
   716 ;;
   717 ;;   None.
   718 ;;
   719 ;;Main: autosize = 0, tempsize = 0, incstack = 0, save=0
   720 ;;
   721 ;;
   722 ;;Call Graph Tables:
   723 ;;
   724 ;; ---------------------------------------------------------------------------------
   725 ;; (Depth) Function   	        Calls       Base Space   Used Autos Params    Refs
   726 ;; ---------------------------------------------------------------------------------
   727 ;; (0) _main                                                 1     1      0    4041
   728 ;;           _system_set_CPU_frequency
   729 ;;                      _soft_delay_ms
   730 ;;                           _IIC_Init
   731 ;;                           _key_Init
   732 ;;                            _RF_Init
   733 ;;                      _RF_Set_RxMode
   734 ;;                        _Timer1_Init
   735 ;;                       _Timer1_start
   736 ;;                   _Enable_Interrupt
   737 ;;                        _recive_task
   738 ;; ---------------------------------------------------------------------------------
   739 ;; (1) _recive_task                                          0     0      0    2797
   740 ;;                            _rx_data
   741 ;;                       _RF_ClearFIFO
   742 ;;                     _RF_ClearStatus
   743 ;; ---------------------------------------------------------------------------------
   744 ;; (2) _rx_data                                             12    12      0    2401
   745 ;;                                             10 BANK0     11    11      0
   746 ;;                          _RF_RxData
   747 ;;                          _UpdateCRC
   748 ;;                             _memcpy
   749 ;;                               _send
   750 ;; ---------------------------------------------------------------------------------
   751 ;; (3) _RF_RxData                                            3     2      1     956
   752 ;;                                              7 BANK0      3     2      1
   753 ;;                       _RF_GetStatus
   754 ;;                       _RF_Read_Buff
   755 ;;                       _RF_ClearFIFO
   756 ;;                     _RF_ClearStatus
   757 ;; ---------------------------------------------------------------------------------
   758 ;; (2) _RF_ClearStatus                                       0     0      0     198
   759 ;;                        _RF_WriteReg
   760 ;; ---------------------------------------------------------------------------------
   761 ;; (2) _RF_ClearFIFO                                         0     0      0     198
   762 ;;                        _RF_WriteReg
   763 ;; ---------------------------------------------------------------------------------
   764 ;; (4) _RF_GetStatus                                         0     0      0     201
   765 ;;                         _RF_ReadReg
   766 ;; ---------------------------------------------------------------------------------
   767 ;; (1) _RF_Set_RxMode                                        0     0      0     402
   768 ;;                        _RF_WriteReg
   769 ;;                      _soft_delay_ms
   770 ;; ---------------------------------------------------------------------------------
   771 ;; (1) _RF_Init                                              1     1      0     532
   772 ;;                                              6 BANK0      1     1      0
   773 ;;                           _SPI_init
   774 ;;                        _RF_WriteReg
   775 ;;                      _RF_Write_Buff
   776 ;; ---------------------------------------------------------------------------------
   777 ;; (3) _send                                                 3     3      0     250
   778 ;;                                              4 BANK0      3     3      0
   779 ;;                           _Delay_us
   780 ;; ---------------------------------------------------------------------------------
   781 ;; (5) _RF_ReadReg                                           2     2      0     201
   782 ;;                                              2 BANK0      2     2      0
   783 ;;                             _SPI_RW
   784 ;; ---------------------------------------------------------------------------------
   785 ;; (4) _RF_Read_Buff                                         5     3      2     297
   786 ;;                                              2 BANK0      5     3      2
   787 ;;                             _SPI_RW
   788 ;; ---------------------------------------------------------------------------------
   789 ;; (2) _RF_Write_Buff                                        4     2      2     297
   790 ;;                                              2 BANK0      4     2      2
   791 ;;                             _SPI_RW
   792 ;; ---------------------------------------------------------------------------------
   793 ;; (3) _RF_WriteReg                                          2     1      1     198
   794 ;;                                              2 BANK0      2     1      1
   795 ;;                             _SPI_RW
   796 ;; ---------------------------------------------------------------------------------
   797 ;; (3) _memcpy                                               9     5      4     174
   798 ;;                                              0 BANK0      9     5      4
   799 ;; ---------------------------------------------------------------------------------
   800 ;; (3) _UpdateCRC                                           10     8      2     251
   801 ;;                                              0 BANK0     10     8      2
   802 ;; ---------------------------------------------------------------------------------
   803 ;; (4) _Delay_us                                             4     2      2     108
   804 ;;                                              0 BANK0      4     2      2
   805 ;; ---------------------------------------------------------------------------------
   806 ;; (4) _SPI_RW                                               2     2      0     136
   807 ;;                                              0 BANK0      2     2      0
   808 ;; ---------------------------------------------------------------------------------
   809 ;; (2) _SPI_init                                             0     0      0       0
   810 ;; ---------------------------------------------------------------------------------
   811 ;; (1) _Enable_Interrupt                                     0     0      0       0
   812 ;; ---------------------------------------------------------------------------------
   813 ;; (1) _Timer1_start                                         5     2      3      62
   814 ;;                                              0 BANK0      5     2      3
   815 ;; ---------------------------------------------------------------------------------
   816 ;; (1) _Timer1_Init                                          1     1      0      22
   817 ;;                                              0 BANK0      1     1      0
   818 ;; ---------------------------------------------------------------------------------
   819 ;; (1) _key_Init                                             0     0      0       0
   820 ;; ---------------------------------------------------------------------------------
   821 ;; (1) _IIC_Init                                             0     0      0       0
   822 ;; ---------------------------------------------------------------------------------
   823 ;; (2) _soft_delay_ms                                        6     4      2     204
   824 ;;                                              0 BANK0      6     4      2
   825 ;; ---------------------------------------------------------------------------------
   826 ;; (1) _system_set_CPU_frequency                             1     1      0      22
   827 ;;                                              0 BANK0      1     1      0
   828 ;; ---------------------------------------------------------------------------------
   829 ;; Estimated maximum stack depth 5
   830 ;; ---------------------------------------------------------------------------------
   831 ;; (Depth) Function   	        Calls       Base Space   Used Autos Params    Refs
   832 ;; ---------------------------------------------------------------------------------
   833 ;; (7) _ISR                                                  8     8      0      15
   834 ;;                                              0 COMMON     5     5      0
   835 ;;                         _TIMER1_ISR
   836 ;; ---------------------------------------------------------------------------------
   837 ;; (8) _TIMER1_ISR                                           0     0      0       0
   838 ;; ---------------------------------------------------------------------------------
   839 ;; Estimated maximum stack depth 8
   840 ;; ---------------------------------------------------------------------------------
   841 ;; Call Graph Graphs:
   842 ;; _main (ROOT)
   843 ;;   _system_set_CPU_frequency
   844 ;;   _soft_delay_ms
   845 ;;   _IIC_Init
   846 ;;   _key_Init
   847 ;;   _RF_Init
   848 ;;     _SPI_init
   849 ;;     _RF_WriteReg
   850 ;;       _SPI_RW
   851 ;;     _RF_Write_Buff
   852 ;;       _SPI_RW
   853 ;;   _RF_Set_RxMode
   854 ;;     _RF_WriteReg
   855 ;;       _SPI_RW
   856 ;;     _soft_delay_ms
   857 ;;   _Timer1_Init
   858 ;;   _Timer1_start
   859 ;;   _Enable_Interrupt
   860 ;;   _recive_task
   861 ;;     _rx_data
   862 ;;       _RF_RxData
   863 ;;         _RF_GetStatus
   864 ;;           _RF_ReadReg
   865 ;;             _SPI_RW
   866 ;;         _RF_Read_Buff
   867 ;;           _SPI_RW
   868 ;;         _RF_ClearFIFO
   869 ;;           _RF_WriteReg
   870 ;;             _SPI_RW
   871 ;;         _RF_ClearStatus
   872 ;;           _RF_WriteReg
   873 ;;             _SPI_RW
   874 ;;       _UpdateCRC
   875 ;;       _memcpy
   876 ;;       _send
   877 ;;         _Delay_us
   878 ;;     _RF_ClearFIFO
   879 ;;       _RF_WriteReg
   880 ;;         _SPI_RW
   881 ;;     _RF_ClearStatus
   882 ;;       _RF_WriteReg
   883 ;;         _SPI_RW
   884 ;;
   885 ;; _ISR (ROOT)
   886 ;;   _TIMER1_ISR
   887 ;;
   888 ;; Address spaces:
   889 ;;Name               Size   Autos  Total    Cost      Usage
   890 ;;BANK3               58      0       0       9        0.0%
   891 ;;BITBANK3            58      0       0       8        0.0%
   892 ;;SFR3                 0      0       0       4        0.0%
   893 ;;BITSFR3              0      0       0       4        0.0%
   894 ;;BANK2               50      0       0      11        0.0%
   895 ;;BITBANK2            50      0       0      10        0.0%
   896 ;;SFR2                 0      0       0       5        0.0%
   897 ;;BITSFR2              0      0       0       5        0.0%
   898 ;;SFR1                 0      0       0       2        0.0%
   899 ;;BITSFR1              0      0       0       2        0.0%
   900 ;;BANK1               50      0       0       7        0.0%
   901 ;;BITBANK1            50      0       0       6        0.0%
   902 ;;CODE                 0      0       0       0        0.0%
   903 ;;DATA                 0      0      5A      12        0.0%
   904 ;;ABS                  0      0      50       3        0.0%
   905 ;;NULL                 0      0       0       0        0.0%
   906 ;;STACK                0      0       A       2        0.0%
   907 ;;BANK0               50     15      47       5       88.8%
   908 ;;BITBANK0            50      0       0       4        0.0%
   909 ;;SFR0                 0      0       0       1        0.0%
   910 ;;BITSFR0              0      0       0       1        0.0%
   911 ;;COMMON               E      5       9       1       64.3%
   912 ;;BITCOMMON            E      0       0       0        0.0%
   913 ;;EEDATA              40      0       0       0        0.0%
   914                           
   915                           
   916 ;; *************** function _main *****************
   917 ;; Defined at:
   918 ;;		line 55 in file "D:\Work\project\PAV03-master\FWTRX-PAVTR-SERIALTR-PAN2416AV\src\main.c"
   919 ;; Parameters:    Size  Location     Type
   920 ;;		None
   921 ;; Auto vars:     Size  Location     Type
   922 ;;  i               1    0        unsigned char 
   923 ;; Return value:  Size  Location     Type
   924 ;;		None               void
   925 ;; Registers used:
   926 ;;		wreg, fsr0l, fsr0h, status,2, status,0, btemp+1, pclath, cstack
   927 ;; Tracked objects:
   928 ;;		On entry : 17F/0
   929 ;;		On exit  : 60/0
   930 ;;		Unchanged: FFE00/0
   931 ;; Data sizes:     COMMON   BANK0   BANK1   BANK3   BANK2
   932 ;;      Params:         0       0       0       0       0
   933 ;;      Locals:         0       0       0       0       0
   934 ;;      Temps:          0       0       0       0       0
   935 ;;      Totals:         0       0       0       0       0
   936 ;;Total ram usage:        0 bytes
   937 ;; Hardware stack levels required when called:    8
   938 ;; This function calls:
   939 ;;		_system_set_CPU_frequency
   940 ;;		_soft_delay_ms
   941 ;;		_IIC_Init
   942 ;;		_key_Init
   943 ;;		_RF_Init
   944 ;;		_RF_Set_RxMode
   945 ;;		_Timer1_Init
   946 ;;		_Timer1_start
   947 ;;		_Enable_Interrupt
   948 ;;		_recive_task
   949 ;; This function is called by:
   950 ;;		Startup code after reset
   951 ;; This function uses a non-reentrant model
   952 ;;
   953  038C                     _main:	
   954                           
   955                           ;main.c: 57: system_set_CPU_frequency(CPU_FREQUENCY_8M);
   956                           
   957                           ; Regs used in _main: [wreg-fsr0h+status,2+status,0+btemp+1+pclath+cstack]
   958  038C  3071               	movlw	113
   959  038D  118A  241D  118A   	fcall	_system_set_CPU_frequency
   960                           
   961                           ;main.c: 58: soft_delay_ms(100);
   962  0390  3064               	movlw	100
   963  0391  1283               	bcf	3,5	;RP0=0, select bank0
   964  0392  00CE               	movwf	?_soft_delay_ms
   965  0393  01CF               	clrf	?_soft_delay_ms+1
   966  0394  118A  2022  118A   	fcall	_soft_delay_ms
   967  0397  0000               	nop	;#
   968                           
   969                           ;main.c: 62: TRISC = 0x00;
   970  0398  1683               	bsf	3,5	;RP0=1, select bank1
   971  0399  1303               	bcf	3,6	;RP1=0, select bank1
   972  039A  0187               	clrf	7	;volatile
   973                           
   974                           ;main.c: 63: TRISB |= 0x00;
   975  039B  0806               	movf	6,w	;volatile
   976                           
   977                           ;main.c: 65: RC0=1;
   978  039C  1283               	bcf	3,5	;RP0=0, select bank0
   979  039D  1407               	bsf	7,0
   980                           
   981                           ;main.c: 66: RB1=1;
   982  039E  1486               	bsf	6,1
   983                           
   984                           ;main.c: 68: IIC_Init();
   985  039F  118A  2417  118A   	fcall	_IIC_Init
   986                           
   987                           ;main.c: 69: key_Init();
   988  03A2  118A  2411  118A   	fcall	_key_Init
   989                           
   990                           ;main.c: 70: RF_Init();
   991  03A5  118A  21C8  118A   	fcall	_RF_Init
   992                           
   993                           ;main.c: 71: RF_Set_RxMode();
   994  03A8  118A  2013  118A   	fcall	_RF_Set_RxMode
   995                           
   996                           ;main.c: 73: Timer1_Init(TIMER1_DIV_8);
   997  03AB  3030               	movlw	48
   998  03AC  118A  240A  118A   	fcall	_Timer1_Init
   999                           
  1000                           ;main.c: 74: Timer1_start(10000,0);
  1001  03AF  3010               	movlw	16
  1002  03B0  1283               	bcf	3,5	;RP0=0, select bank0
  1003  03B1  00CE               	movwf	?_Timer1_start
  1004  03B2  3027               	movlw	39
  1005  03B3  00CF               	movwf	?_Timer1_start+1
  1006  03B4  01D0               	clrf	?_Timer1_start+2
  1007  03B5  118A  23DA  118A   	fcall	_Timer1_start
  1008                           
  1009                           ;main.c: 76: Enable_Interrupt();
  1010  03B8  118A  2422  118A   	fcall	_Enable_Interrupt
  1011  03BB                     l14298:	
  1012                           
  1013                           ;main.c: 79: {
  1014                           ;main.c: 80: recive_task();
  1015  03BB  118A  203E  118A   	fcall	_recive_task
  1016  03BE  2BBB               	goto	l14298
  1017  03BF                     __end_of_main:	
  1018                           
  1019                           	psect	text738
  1020  0013                     __ptext738:	
  1021 ;; =============== function _RF_GetStatus ends ============
  1022                           
  1023                           
  1024 ;; *************** function _RF_Set_RxMode *****************
  1025 ;; Defined at:
  1026 ;;		line 267 in file "D:\Work\project\PAV03-master\FWTRX-PAVTR-SERIALTR-PAN2416AV\src\rf297L.c"
  1027 ;; Parameters:    Size  Location     Type
  1028 ;;		None
  1029 ;; Auto vars:     Size  Location     Type
  1030 ;;		None
  1031 ;; Return value:  Size  Location     Type
  1032 ;;		None               void
  1033 ;; Registers used:
  1034 ;;		wreg, status,2, status,0, pclath, cstack
  1035 ;; Tracked objects:
  1036 ;;		On entry : 60/0
  1037 ;;		On exit  : 60/0
  1038 ;;		Unchanged: FFF9F/0
  1039 ;; Data sizes:     COMMON   BANK0   BANK1   BANK3   BANK2
  1040 ;;      Params:         0       0       0       0       0
  1041 ;;      Locals:         0       0       0       0       0
  1042 ;;      Temps:          0       0       0       0       0
  1043 ;;      Totals:         0       0       0       0       0
  1044 ;;Total ram usage:        0 bytes
  1045 ;; Hardware stack levels used:    1
  1046 ;; Hardware stack levels required when called:    4
  1047 ;; This function calls:
  1048 ;;		_RF_WriteReg
  1049 ;;		_soft_delay_ms
  1050 ;; This function is called by:
  1051 ;;		_main
  1052 ;; This function uses a non-reentrant model
  1053 ;;
  1054  0013                     _RF_Set_RxMode:	
  1055                           
  1056                           ;rf297L.c: 268: RF_WriteReg(0x20 + 0x00, 0X87);
  1057                           
  1058                           ; Regs used in _RF_Set_RxMode: [wreg+status,2+status,0+pclath+cstack]
  1059  0013  3087               	movlw	135
  1060  0014  00D0               	movwf	?_RF_WriteReg
  1061  0015  3020               	movlw	32
  1062  0016  2240  118A         	fcall	_RF_WriteReg
  1063                           
  1064                           ;rf297L.c: 269: soft_delay_ms(10);
  1065  0018  300A               	movlw	10
  1066  0019  00CE               	movwf	?_soft_delay_ms
  1067  001A  01CF               	clrf	?_soft_delay_ms+1
  1068  001B  2022  118A         	fcall	_soft_delay_ms
  1069  001D  300A               	movlw	10
  1070                           
  1071                           ;rf297L.c: 270: RA7=1;
  1072  001E  1785               	bsf	5,7
  1073                           
  1074                           ;rf297L.c: 271: soft_delay_ms(10);
  1075  001F  00CE               	movwf	?_soft_delay_ms
  1076  0020  01CF               	clrf	?_soft_delay_ms+1
  1077  0021  2822               	ljmp	l13924
  1078  0022                     __end_of_RF_Set_RxMode:	
  1079  0022                     __ptext755:	
  1080 ;; =============== function _IIC_Init ends ============
  1081                           
  1082                           
  1083 ;; *************** function _soft_delay_ms *****************
  1084 ;; Defined at:
  1085 ;;		line 10 in file "D:\Work\project\PAV03-master\FWTRX-PAVTR-SERIALTR-PAN2416AV\src\delay.c"
  1086 ;; Parameters:    Size  Location     Type
  1087 ;;  ms              2    0[BANK0 ] unsigned int 
  1088 ;; Auto vars:     Size  Location     Type
  1089 ;;  i               2    2[BANK0 ] volatile unsigned int 
  1090 ;;  k               1    5[BANK0 ] volatile unsigned char 
  1091 ;;  j               1    4[BANK0 ] volatile unsigned char 
  1092 ;; Return value:  Size  Location     Type
  1093 ;;		None               void
  1094 ;; Registers used:
  1095 ;;		wreg, status,2, status,0
  1096 ;; Tracked objects:
  1097 ;;		On entry : 60/0
  1098 ;;		On exit  : 60/0
  1099 ;;		Unchanged: FFF9F/0
  1100 ;; Data sizes:     COMMON   BANK0   BANK1   BANK3   BANK2
  1101 ;;      Params:         0       2       0       0       0
  1102 ;;      Locals:         0       4       0       0       0
  1103 ;;      Temps:          0       0       0       0       0
  1104 ;;      Totals:         0       6       0       0       0
  1105 ;;Total ram usage:        6 bytes
  1106 ;; Hardware stack levels used:    1
  1107 ;; Hardware stack levels required when called:    2
  1108 ;; This function calls:
  1109 ;;		Nothing
  1110 ;; This function is called by:
  1111 ;;		_main
  1112 ;;		_RF_Set_RxMode
  1113 ;; This function uses a non-reentrant model
  1114 ;;
  1115  0022                     _soft_delay_ms:	
  1116  0022                     l13924:	
  1117                           ; Regs used in _soft_delay_ms: [wreg+status,2+status,0]
  1118                           
  1119                           
  1120                           ;delay.c: 12: volatile unsigned int i;
  1121                           ;delay.c: 13: volatile unsigned char j,k;
  1122                           ;delay.c: 14: for(i=0;i<ms;i++){
  1123  0022  01D0               	clrf	soft_delay_ms@i	;volatile
  1124  0023  01D1               	clrf	soft_delay_ms@i+1	;volatile
  1125  0024                     l13948:	
  1126  0024  084F               	movf	soft_delay_ms@ms+1,w
  1127  0025  0251               	subwf	soft_delay_ms@i+1,w	;volatile
  1128  0026  1D03               	skipz
  1129  0027  282A               	goto	u545
  1130  0028  084E               	movf	soft_delay_ms@ms,w
  1131  0029  0250               	subwf	soft_delay_ms@i,w	;volatile
  1132  002A                     u545:	
  1133  002A  1803               	btfsc	3,0
  1134  002B  0008               	return
  1135                           
  1136                           ;delay.c: 15: for(j=0;j<10;j++){
  1137  002C  01D2               	clrf	soft_delay_ms@j	;volatile
  1138  002D                     l13928:	
  1139  002D  300A               	movlw	10
  1140  002E  0252               	subwf	soft_delay_ms@j,w	;volatile
  1141  002F  1803               	btfsc	3,0
  1142  0030  283A               	goto	l13946
  1143                           
  1144                           ;delay.c: 16: for(k=0;k<32;k++);
  1145  0031  01D3               	clrf	soft_delay_ms@k	;volatile
  1146  0032                     l13934:	
  1147  0032  3020               	movlw	32
  1148  0033  0253               	subwf	soft_delay_ms@k,w	;volatile
  1149  0034  1803               	btfsc	3,0
  1150  0035  2838               	goto	l13942
  1151  0036  0AD3               	incf	soft_delay_ms@k,f	;volatile
  1152  0037  2832               	goto	l13934
  1153  0038                     l13942:	
  1154  0038  0AD2               	incf	soft_delay_ms@j,f	;volatile
  1155  0039  282D               	goto	l13928
  1156  003A                     l13946:	
  1157  003A  0AD0               	incf	soft_delay_ms@i,f	;volatile
  1158  003B  1903               	skipnz
  1159  003C  0AD1               	incf	soft_delay_ms@i+1,f	;volatile
  1160  003D  2824               	goto	l13948
  1161  003E                     __end_of_soft_delay_ms:	
  1162  003E                     __ptext732:	
  1163 ;; =============== function _main ends ============
  1164                           
  1165                           
  1166 ;; *************** function _recive_task *****************
  1167 ;; Defined at:
  1168 ;;		line 152 in file "D:\Work\project\PAV03-master\FWTRX-PAVTR-SERIALTR-PAN2416AV\src\recive.c"
  1169 ;; Parameters:    Size  Location     Type
  1170 ;;		None
  1171 ;; Auto vars:     Size  Location     Type
  1172 ;;		None
  1173 ;; Return value:  Size  Location     Type
  1174 ;;		None               void
  1175 ;; Registers used:
  1176 ;;		wreg, fsr0l, fsr0h, status,2, status,0, btemp+1, pclath, cstack
  1177 ;; Tracked objects:
  1178 ;;		On entry : 60/0
  1179 ;;		On exit  : 60/0
  1180 ;;		Unchanged: FFE00/0
  1181 ;; Data sizes:     COMMON   BANK0   BANK1   BANK3   BANK2
  1182 ;;      Params:         0       0       0       0       0
  1183 ;;      Locals:         0       0       0       0       0
  1184 ;;      Temps:          0       0       0       0       0
  1185 ;;      Totals:         0       0       0       0       0
  1186 ;;Total ram usage:        0 bytes
  1187 ;; Hardware stack levels used:    1
  1188 ;; Hardware stack levels required when called:    7
  1189 ;; This function calls:
  1190 ;;		_rx_data
  1191 ;;		_RF_ClearFIFO
  1192 ;;		_RF_ClearStatus
  1193 ;; This function is called by:
  1194 ;;		_main
  1195 ;; This function uses a non-reentrant model
  1196 ;;
  1197  003E                     _recive_task:	
  1198                           
  1199                           ;recive.c: 153: if (rx_data())
  1200                           
  1201                           ; Regs used in _recive_task: [wreg-fsr0h+status,2+status,0+btemp+1+pclath+cstack]
  1202  003E  2046  118A         	fcall	_rx_data
  1203  0040  3A00               	xorlw	0
  1204  0041  1903               	skipnz
  1205  0042  0008               	return
  1206                           
  1207                           ;recive.c: 154: {
  1208                           ;recive.c: 156: RF_ClearFIFO();
  1209  0043  227D  118A         	fcall	_RF_ClearFIFO
  1210                           
  1211                           ;recive.c: 157: RF_ClearStatus();
  1212  0045  2A8D               	ljmp	l14166
  1213  0046                     __end_of_recive_task:	
  1214  0046                     __ptext733:	
  1215 ;; =============== function _recive_task ends ============
  1216                           
  1217                           
  1218 ;; *************** function _rx_data *****************
  1219 ;; Defined at:
  1220 ;;		line 72 in file "D:\Work\project\PAV03-master\FWTRX-PAVTR-SERIALTR-PAN2416AV\src\recive.c"
  1221 ;; Parameters:    Size  Location     Type
  1222 ;;		None
  1223 ;; Auto vars:     Size  Location     Type
  1224 ;;  crc18           2   17[BANK0 ] unsigned int 
  1225 ;;  crc16           2   14[BANK0 ] unsigned int 
  1226 ;;  i               1   20[BANK0 ] unsigned char 
  1227 ;;  rx_flag         1   19[BANK0 ] unsigned char 
  1228 ;;  rand            1   16[BANK0 ] unsigned char 
  1229 ;;  diff_frame      1    0        unsigned char 
  1230 ;; Return value:  Size  Location     Type
  1231 ;;                  1    wreg      unsigned char 
  1232 ;; Registers used:
  1233 ;;		wreg, fsr0l, fsr0h, status,2, status,0, btemp+1, pclath, cstack
  1234 ;; Tracked objects:
  1235 ;;		On entry : 60/0
  1236 ;;		On exit  : 60/0
  1237 ;;		Unchanged: FFE00/0
  1238 ;; Data sizes:     COMMON   BANK0   BANK1   BANK3   BANK2
  1239 ;;      Params:         0       0       0       0       0
  1240 ;;      Locals:         0       7       0       0       0
  1241 ;;      Temps:          0       4       0       0       0
  1242 ;;      Totals:         0      11       0       0       0
  1243 ;;Total ram usage:       11 bytes
  1244 ;; Hardware stack levels used:    1
  1245 ;; Hardware stack levels required when called:    6
  1246 ;; This function calls:
  1247 ;;		_RF_RxData
  1248 ;;		_UpdateCRC
  1249 ;;		_memcpy
  1250 ;;		_send
  1251 ;; This function is called by:
  1252 ;;		_recive_task
  1253 ;; This function uses a non-reentrant model
  1254 ;;
  1255  0046                     _rx_data:	
  1256  0046  3012               	movlw	18
  1257                           
  1258                           ;recive.c: 73: unsigned char rx_flag=0;
  1259                           
  1260 ;; using string table level
  1261                           ; Regs used in _rx_data: [wreg-fsr0h+status,2+status,0+btemp+1+pclath+cstack]
  1262  0047  01E1               	clrf	rx_data@rx_flag
  1263                           
  1264                           ;recive.c: 75: unsigned char i=0;
  1265  0048  01E2               	clrf	rx_data@i
  1266                           
  1267                           ;recive.c: 76: unsigned int crc18=0;
  1268  0049  01DF               	clrf	rx_data@crc18
  1269  004A  01E0               	clrf	rx_data@crc18+1
  1270                           
  1271                           ;recive.c: 78: unsigned char diff_frame = 0;
  1272  004B  01DC               	clrf	rx_data@crc16
  1273  004C  01DD               	clrf	rx_data@crc16+1
  1274                           
  1275                           ;recive.c: 80: if (RF_RxData(rf_buf,18))
  1276  004D  00D5               	movwf	?_RF_RxData
  1277  004E  303C               	movlw	_rf_buf& (0+255)
  1278  004F  21A1  118A         	fcall	_RF_RxData
  1279  0051  3A00               	xorlw	0
  1280  0052  1903               	skipnz
  1281  0053  2900               	goto	l14264
  1282                           
  1283                           ;recive.c: 81: {
  1284                           ;recive.c: 85: for(i = 0;i < 18; i++)
  1285  0054  01E2               	clrf	rx_data@i
  1286  0055                     l14194:	
  1287                           
  1288                           ;recive.c: 86: {
  1289                           ;recive.c: 87: rf_buf[i]=rf_buf[i]^crc_2_4G_lib[3+i]^ble_crc_38[21+i];
  1290  0055  0862               	movf	rx_data@i,w
  1291  0056  3E16               	addlw	low ((_ble_crc_38-__stringbase+21))
  1292  0057  0084               	movwf	4
  1293  0058  118A  230A  118A   	fcall	stringdir
  1294  005B  00D8               	movwf	??_rx_data
  1295  005C  0862               	movf	rx_data@i,w
  1296  005D  3E2E               	addlw	low ((_crc_2_4G_lib-__stringbase+3))
  1297  005E  0084               	movwf	4
  1298  005F  118A  230A  118A   	fcall	stringdir
  1299  0062  00D9               	movwf	??_rx_data+1
  1300  0063  0862               	movf	rx_data@i,w
  1301  0064  3E3C               	addlw	_rf_buf& (0+255)
  1302  0065  0084               	movwf	4
  1303  0066  1383               	bcf	3,7	;select IRP bank0
  1304  0067  0800               	movf	0,w
  1305  0068  0659               	xorwf	??_rx_data+1,w
  1306  0069  0658               	xorwf	??_rx_data,w
  1307  006A  00DA               	movwf	??_rx_data+2
  1308  006B  0862               	movf	rx_data@i,w
  1309  006C  3E3C               	addlw	_rf_buf& (0+255)
  1310  006D  0084               	movwf	4
  1311  006E  085A               	movf	??_rx_data+2,w
  1312  006F  0080               	movwf	0
  1313  0070  3012               	movlw	18
  1314  0071  0AE2               	incf	rx_data@i,f
  1315  0072  0262               	subwf	rx_data@i,w
  1316  0073  1C03               	skipc
  1317  0074  2855               	goto	l14194
  1318                           
  1319                           ;recive.c: 88: }
  1320                           ;recive.c: 90: crc16 = rf_buf[16] + rf_buf[17] * 256;
  1321  0075  084D               	movf	_rf_buf+17,w
  1322  0076  00D8               	movwf	??_rx_data
  1323  0077  01D9               	clrf	??_rx_data+1
  1324  0078  00D9               	movwf	??_rx_data+1
  1325  0079  01D8               	clrf	??_rx_data
  1326  007A  084C               	movf	_rf_buf+16,w
  1327  007B  0758               	addwf	??_rx_data,w
  1328  007C  00DC               	movwf	rx_data@crc16
  1329  007D  0859               	movf	??_rx_data+1,w
  1330  007E  1803               	skipnc
  1331  007F  0A59               	incf	??_rx_data+1,w
  1332  0080  00DD               	movwf	rx_data@crc16+1
  1333                           
  1334                           ;recive.c: 93: for (i = 0; i < 16; i++)
  1335  0081  01E2               	clrf	rx_data@i
  1336  0082                     l14208:	
  1337                           
  1338                           ;recive.c: 94: {
  1339                           ;recive.c: 95: rf_buf[i]=rf_buf[i]^crc_lab[i];
  1340  0082  0862               	movf	rx_data@i,w
  1341  0083  3E40               	addlw	low (_crc_lab-__stringbase)
  1342  0084  0084               	movwf	4
  1343  0085  118A  230A  118A   	fcall	stringdir
  1344  0088  00D8               	movwf	??_rx_data
  1345  0089  0862               	movf	rx_data@i,w
  1346  008A  3E3C               	addlw	_rf_buf& (0+255)
  1347  008B  0084               	movwf	4
  1348  008C  0800               	movf	0,w
  1349  008D  0658               	xorwf	??_rx_data,w
  1350  008E  00D9               	movwf	??_rx_data+1
  1351  008F  0862               	movf	rx_data@i,w
  1352  0090  3E3C               	addlw	_rf_buf& (0+255)
  1353  0091  0084               	movwf	4
  1354  0092  0859               	movf	??_rx_data+1,w
  1355  0093  0080               	movwf	0
  1356  0094  3010               	movlw	16
  1357  0095  0AE2               	incf	rx_data@i,f
  1358  0096  0262               	subwf	rx_data@i,w
  1359  0097  1C03               	skipc
  1360  0098  2882               	goto	l14208
  1361                           
  1362                           ;recive.c: 96: }
  1363                           ;recive.c: 99: rand = rf_buf[0];
  1364  0099  083C               	movf	_rf_buf,w
  1365  009A  00DE               	movwf	rx_data@rand
  1366                           
  1367                           ;recive.c: 101: for (i = 1; i < 16; i++)
  1368  009B  01E2               	clrf	rx_data@i
  1369  009C  0AE2               	incf	rx_data@i,f
  1370  009D                     l14220:	
  1371                           
  1372                           ;recive.c: 102: {
  1373                           ;recive.c: 103: rf_buf[i] ^= rand;
  1374  009D  0862               	movf	rx_data@i,w
  1375  009E  3E3C               	addlw	_rf_buf& (0+255)
  1376  009F  0084               	movwf	4
  1377  00A0  085E               	movf	rx_data@rand,w
  1378  00A1  0680               	xorwf	0,f
  1379  00A2  3010               	movlw	16
  1380  00A3  0AE2               	incf	rx_data@i,f
  1381  00A4  0262               	subwf	rx_data@i,w
  1382  00A5  1C03               	skipc
  1383  00A6  289D               	goto	l14220
  1384                           
  1385                           ;recive.c: 104: }
  1386                           ;recive.c: 106: if (crc16 != UpdateCRC(rf_buf, 16))
  1387  00A7  3010               	movlw	16
  1388  00A8  00CE               	movwf	?_UpdateCRC
  1389  00A9  303C               	movlw	_rf_buf& (0+255)
  1390  00AA  01CF               	clrf	?_UpdateCRC+1
  1391  00AB  2102  118A         	fcall	_UpdateCRC
  1392  00AD  085D               	movf	rx_data@crc16+1,w
  1393  00AE  064F               	xorwf	?_UpdateCRC+1,w
  1394  00AF  1D03               	skipz
  1395  00B0  28B3               	goto	u735
  1396  00B1  085C               	movf	rx_data@crc16,w
  1397  00B2  064E               	xorwf	?_UpdateCRC,w
  1398  00B3                     u735:	
  1399  00B3  1D03               	btfss	3,2
  1400                           
  1401                           ;recive.c: 109: return rx_flag;
  1402  00B4  3400               	retlw	0
  1403                           
  1404                           ;recive.c: 110: }
  1405                           ;recive.c: 112: if (frame_count != rf_buf[0])
  1406  00B5  083C               	movf	_rf_buf,w
  1407  00B6  00D8               	movwf	??_rx_data
  1408  00B7  01D9               	clrf	??_rx_data+1
  1409  00B8  01DA               	clrf	??_rx_data+2
  1410  00B9  01DB               	clrf	??_rx_data+3
  1411  00BA  0866               	movf	_frame_count+3,w
  1412  00BB  065B               	xorwf	??_rx_data+3,w
  1413  00BC  1D03               	skipz
  1414  00BD  28C8               	goto	u745
  1415  00BE  0865               	movf	_frame_count+2,w
  1416  00BF  065A               	xorwf	??_rx_data+2,w
  1417  00C0  1D03               	skipz
  1418  00C1  28C8               	goto	u745
  1419  00C2  0864               	movf	_frame_count+1,w
  1420  00C3  0659               	xorwf	??_rx_data+1,w
  1421  00C4  1D03               	skipz
  1422  00C5  28C8               	goto	u745
  1423  00C6  0863               	movf	_frame_count,w
  1424  00C7  0658               	xorwf	??_rx_data,w
  1425  00C8                     u745:	
  1426  00C8  1903               	skipnz
  1427  00C9  28FF               	goto	l14262
  1428                           
  1429                           ;recive.c: 113: {
  1430                           ;recive.c: 114: frame_count = rf_buf[0];
  1431  00CA  083C               	movf	_rf_buf,w
  1432  00CB  00E3               	movwf	_frame_count
  1433  00CC  3072               	movlw	low (_AdvData_3-__stringbase)
  1434  00CD  01E4               	clrf	_frame_count+1
  1435  00CE  01E5               	clrf	_frame_count+2
  1436  00CF  01E6               	clrf	_frame_count+3
  1437                           
  1438                           ;recive.c: 116: rx_flag = 1;
  1439  00D0  01E1               	clrf	rx_data@rx_flag
  1440  00D1  0AE1               	incf	rx_data@rx_flag,f
  1441                           
  1442                           ;recive.c: 118: memcpy(AdvData_23, AdvData_3, 3);
  1443  00D2  00CE               	movwf	?_memcpy
  1444  00D3  3080               	movlw	128
  1445  00D4  00CF               	movwf	?_memcpy+1
  1446  00D5  3003               	movlw	3
  1447  00D6  00D0               	movwf	?_memcpy+2
  1448  00D7  3028               	movlw	_AdvData_23& (0+255)
  1449  00D8  01D1               	clrf	?_memcpy+3
  1450  00D9  213A  118A         	fcall	_memcpy
  1451                           
  1452                           ;recive.c: 119: memcpy(AdvData_23 + 3, &rf_buf[1], 15);
  1453  00DB  303D               	movlw	(_rf_buf+1)& (0+255)
  1454  00DC  00CE               	movwf	?_memcpy
  1455  00DD  300F               	movlw	15
  1456  00DE  01CF               	clrf	?_memcpy+1
  1457  00DF  00D0               	movwf	?_memcpy+2
  1458  00E0  302B               	movlw	(_AdvData_23+3)& (0+255)
  1459  00E1  01D1               	clrf	?_memcpy+3
  1460  00E2  213A  118A         	fcall	_memcpy
  1461                           
  1462                           ;recive.c: 121: crc18 = UpdateCRC(AdvData_23 + 2, 16);
  1463  00E4  3010               	movlw	16
  1464  00E5  00CE               	movwf	?_UpdateCRC
  1465  00E6  302A               	movlw	(_AdvData_23+2)& (0+255)
  1466  00E7  01CF               	clrf	?_UpdateCRC+1
  1467  00E8  2102  118A         	fcall	_UpdateCRC
  1468  00EA  084F               	movf	?_UpdateCRC+1,w
  1469  00EB  00E0               	movwf	rx_data@crc18+1
  1470  00EC  084E               	movf	?_UpdateCRC,w
  1471  00ED  00DF               	movwf	rx_data@crc18
  1472                           
  1473                           ;recive.c: 122: AdvData_23[18] = crc18 & 0xff;
  1474  00EE  00BA               	movwf	_AdvData_23+18
  1475                           
  1476                           ;recive.c: 123: AdvData_23[19] = ((crc18 >> 8) & 0xff);
  1477  00EF  0860               	movf	rx_data@crc18+1,w
  1478  00F0  00BB               	movwf	_AdvData_23+19
  1479                           
  1480                           ;recive.c: 125: for (i=0; i < 20; i++)
  1481  00F1  01E2               	clrf	rx_data@i
  1482  00F2                     l14256:	
  1483                           
  1484                           ;recive.c: 126: {
  1485                           ;recive.c: 127: send(AdvData_23[i]);
  1486  00F2  0862               	movf	rx_data@i,w
  1487  00F3  3E28               	addlw	_AdvData_23& (0+255)
  1488  00F4  0084               	movwf	4
  1489  00F5  1383               	bcf	3,7	;select IRP bank0
  1490  00F6  0800               	movf	0,w
  1491  00F7  215E  118A         	fcall	_send
  1492  00F9  3014               	movlw	20
  1493  00FA  0AE2               	incf	rx_data@i,f
  1494  00FB  0262               	subwf	rx_data@i,w
  1495  00FC  1803               	btfsc	3,0
  1496  00FD  2900               	goto	l14264
  1497  00FE  28F2               	goto	l14256
  1498  00FF                     l14262:	
  1499                           
  1500                           ;recive.c: 130: else
  1501                           ;recive.c: 131: {
  1502                           ;recive.c: 132: rx_flag = 0;
  1503  00FF  01E1               	clrf	rx_data@rx_flag
  1504  0100                     l14264:	
  1505                           
  1506                           ;recive.c: 133: }
  1507                           ;recive.c: 144: }
  1508                           ;recive.c: 145: return rx_flag;
  1509  0100  0861               	movf	rx_data@rx_flag,w
  1510  0101  0008               	return
  1511  0102                     __end_of_rx_data:	
  1512  0102                     __ptext746:	
  1513 ;; =============== function _memcpy ends ============
  1514                           
  1515                           
  1516 ;; *************** function _UpdateCRC *****************
  1517 ;; Defined at:
  1518 ;;		line 45 in file "D:\Work\project\PAV03-master\FWTRX-PAVTR-SERIALTR-PAN2416AV\src\recive.c"
  1519 ;; Parameters:    Size  Location     Type
  1520 ;;  CRC_input       1    wreg     PTR unsigned char 
  1521 ;;		 -> AdvData_23(20), rf_buf(18), 
  1522 ;;  len             2    0[BANK0 ] unsigned int 
  1523 ;; Auto vars:     Size  Location     Type
  1524 ;;  CRC_input       1    5[BANK0 ] PTR unsigned char 
  1525 ;;		 -> AdvData_23(20), rf_buf(18), 
  1526 ;;  CRC_acc         2    8[BANK0 ] unsigned short 
  1527 ;;  i               1    7[BANK0 ] unsigned char 
  1528 ;;  k               1    6[BANK0 ] unsigned char 
  1529 ;; Return value:  Size  Location     Type
  1530 ;;                  2    0[BANK0 ] unsigned short 
  1531 ;; Registers used:
  1532 ;;		wreg, fsr0l, fsr0h, status,2, status,0, btemp+1
  1533 ;; Tracked objects:
  1534 ;;		On entry : 60/0
  1535 ;;		On exit  : 60/0
  1536 ;;		Unchanged: FFE9F/0
  1537 ;; Data sizes:     COMMON   BANK0   BANK1   BANK3   BANK2
  1538 ;;      Params:         0       2       0       0       0
  1539 ;;      Locals:         0       5       0       0       0
  1540 ;;      Temps:          0       3       0       0       0
  1541 ;;      Totals:         0      10       0       0       0
  1542 ;;Total ram usage:       10 bytes
  1543 ;; Hardware stack levels used:    1
  1544 ;; Hardware stack levels required when called:    2
  1545 ;; This function calls:
  1546 ;;		Nothing
  1547 ;; This function is called by:
  1548 ;;		_rx_data
  1549 ;; This function uses a non-reentrant model
  1550 ;;
  1551  0102                     _UpdateCRC:	
  1552                           
  1553                           ; Regs used in _UpdateCRC: [wreg-fsr0h+status,2+status,0+btemp+1]
  1554                           ;UpdateCRC@CRC_input stored from wreg
  1555  0102  00D3               	movwf	UpdateCRC@CRC_input
  1556  0103  3055               	movlw	85
  1557                           
  1558                           ;recive.c: 46: unsigned char i,k = 0;
  1559  0104  01D4               	clrf	UpdateCRC@k
  1560                           
  1561                           ;recive.c: 47: unsigned short CRC_acc=0x5555;
  1562  0105  00D6               	movwf	UpdateCRC@CRC_acc
  1563  0106  00D7               	movwf	UpdateCRC@CRC_acc+1
  1564  0107                     l14022:	
  1565                           ;recive.c: 49: while (len--)
  1566                           
  1567  0107  3001               	movlw	1
  1568  0108  02CE               	subwf	UpdateCRC@len,f
  1569  0109  3000               	movlw	0
  1570  010A  1C03               	skipc
  1571  010B  03CF               	decf	UpdateCRC@len+1,f
  1572  010C  02CF               	subwf	UpdateCRC@len+1,f
  1573  010D  0A4E               	incf	UpdateCRC@len,w
  1574  010E  1903               	skipnz
  1575  010F  0A4F               	incf	UpdateCRC@len+1,w
  1576  0110  1903               	btfsc	3,2
  1577  0111  2935               	goto	l14024
  1578                           
  1579                           ;recive.c: 50: {
  1580                           ;recive.c: 51: CRC_acc = CRC_acc ^ (CRC_input[k++] << 8);
  1581  0112  0854               	movf	UpdateCRC@k,w
  1582  0113  0753               	addwf	UpdateCRC@CRC_input,w
  1583  0114  00D0               	movwf	??_UpdateCRC
  1584  0115  0084               	movwf	4
  1585  0116  1383               	bcf	3,7	;select IRP bank0
  1586  0117  0800               	movf	0,w
  1587  0118  00D1               	movwf	??_UpdateCRC+1
  1588  0119  01D2               	clrf	??_UpdateCRC+2
  1589  011A  00D2               	movwf	??_UpdateCRC+2
  1590  011B  01D1               	clrf	??_UpdateCRC+1
  1591  011C  0851               	movf	??_UpdateCRC+1,w
  1592  011D  06D6               	xorwf	UpdateCRC@CRC_acc,f
  1593  011E  0852               	movf	??_UpdateCRC+2,w
  1594  011F  06D7               	xorwf	UpdateCRC@CRC_acc+1,f
  1595  0120  0AD4               	incf	UpdateCRC@k,f
  1596                           
  1597                           ;recive.c: 53: for (i = 0; i < 8; i++)
  1598  0121  01D5               	clrf	UpdateCRC@i
  1599  0122                     l9778:	
  1600                           
  1601                           ;recive.c: 54: {
  1602                           ;recive.c: 55: if ((CRC_acc & 0x8000) == 0x8000)
  1603  0122  1FD7               	btfss	UpdateCRC@CRC_acc+1,7
  1604  0123  292C               	goto	l14018
  1605  0124  3021               	movlw	33
  1606                           
  1607                           ;recive.c: 56: {
  1608                           ;recive.c: 57: CRC_acc = CRC_acc << 1;
  1609  0125  1003               	clrc
  1610  0126  0DD6               	rlf	UpdateCRC@CRC_acc,f
  1611  0127  0DD7               	rlf	UpdateCRC@CRC_acc+1,f
  1612                           
  1613                           ;recive.c: 58: CRC_acc ^= 0x1021;
  1614  0128  06D6               	xorwf	UpdateCRC@CRC_acc,f
  1615  0129  3010               	movlw	16
  1616  012A  06D7               	xorwf	UpdateCRC@CRC_acc+1,f
  1617                           
  1618                           ;recive.c: 59: }
  1619  012B  292F               	goto	l9781
  1620  012C                     l14018:	
  1621                           
  1622                           ;recive.c: 60: else
  1623                           ;recive.c: 61: {
  1624                           ;recive.c: 62: CRC_acc = CRC_acc << 1;
  1625  012C  1003               	clrc
  1626  012D  0DD6               	rlf	UpdateCRC@CRC_acc,f
  1627  012E  0DD7               	rlf	UpdateCRC@CRC_acc+1,f
  1628  012F                     l9781:	
  1629  012F  3008               	movlw	8
  1630  0130  0AD5               	incf	UpdateCRC@i,f
  1631  0131  0255               	subwf	UpdateCRC@i,w
  1632  0132  1803               	btfsc	3,0
  1633  0133  2907               	goto	l14022
  1634  0134  2922               	goto	l9778
  1635  0135                     l14024:	
  1636                           
  1637                           ;recive.c: 63: }
  1638                           ;recive.c: 64: }
  1639                           ;recive.c: 65: }
  1640                           ;recive.c: 66: return CRC_acc;
  1641  0135  0857               	movf	UpdateCRC@CRC_acc+1,w
  1642  0136  00CF               	movwf	?_UpdateCRC+1
  1643  0137  0856               	movf	UpdateCRC@CRC_acc,w
  1644  0138  00CE               	movwf	?_UpdateCRC
  1645  0139  0008               	return
  1646  013A                     __end_of_UpdateCRC:	
  1647  013A                     __ptext745:	
  1648 ;; =============== function _RF_WriteReg ends ============
  1649                           
  1650                           
  1651 ;; *************** function _memcpy *****************
  1652 ;; Defined at:
  1653 ;;		line 10 in file "D:\Work\file\PAN\PAN2416\\CMS_IDE_V1.41.03_CRC_PANCHIP\data\sources\memcpy.c"
  1654 ;; Parameters:    Size  Location     Type
  1655 ;;  d1              1    wreg     PTR void 
  1656 ;;		 -> AdvData_23(20), 
  1657 ;;  s1              2    0[BANK0 ] PTR const void 
  1658 ;;		 -> AdvData_3(3), rf_buf(18), 
  1659 ;;  n               2    2[BANK0 ] unsigned int 
  1660 ;; Auto vars:     Size  Location     Type
  1661 ;;  d1              1    5[BANK0 ] PTR void 
  1662 ;;		 -> AdvData_23(20), 
  1663 ;;  s               2    6[BANK0 ] PTR const unsigned char 
  1664 ;;		 -> AdvData_3(3), rf_buf(18), 
  1665 ;;  d               1    8[BANK0 ] PTR unsigned char 
  1666 ;;		 -> AdvData_23(20), 
  1667 ;; Return value:  Size  Location     Type
  1668 ;;                  1    wreg      PTR void 
  1669 ;; Registers used:
  1670 ;;		wreg, fsr0l, fsr0h, status,2, status,0, btemp+1, pclath
  1671 ;; Tracked objects:
  1672 ;;		On entry : 60/0
  1673 ;;		On exit  : 60/0
  1674 ;;		Unchanged: FFE9F/0
  1675 ;; Data sizes:     COMMON   BANK0   BANK1   BANK3   BANK2
  1676 ;;      Params:         0       4       0       0       0
  1677 ;;      Locals:         0       4       0       0       0
  1678 ;;      Temps:          0       1       0       0       0
  1679 ;;      Totals:         0       9       0       0       0
  1680 ;;Total ram usage:        9 bytes
  1681 ;; Hardware stack levels used:    1
  1682 ;; Hardware stack levels required when called:    2
  1683 ;; This function calls:
  1684 ;;		Nothing
  1685 ;; This function is called by:
  1686 ;;		_rx_data
  1687 ;; This function uses a non-reentrant model
  1688 ;;
  1689  013A                     _memcpy:	
  1690                           
  1691                           ; Regs used in _memcpy: [wreg-fsr0h+status,2+status,0+btemp+1+pclath]
  1692                           ;memcpy@d1 stored from wreg
  1693  013A  00D3               	movwf	memcpy@d1
  1694  013B  084F               	movf	memcpy@s1+1,w
  1695  013C  00D5               	movwf	memcpy@s+1
  1696  013D  084E               	movf	memcpy@s1,w
  1697  013E  00D4               	movwf	memcpy@s
  1698  013F  0853               	movf	memcpy@d1,w
  1699  0140  00D6               	movwf	memcpy@d
  1700  0141                     l14036:	
  1701  0141  3001               	movlw	1
  1702  0142  02D0               	subwf	memcpy@n,f
  1703  0143  3000               	movlw	0
  1704  0144  1C03               	skipc
  1705  0145  03D1               	decf	memcpy@n+1,f
  1706  0146  02D1               	subwf	memcpy@n+1,f
  1707  0147  0A50               	incf	memcpy@n,w
  1708  0148  1903               	skipnz
  1709  0149  0A51               	incf	memcpy@n+1,w
  1710  014A  1903               	btfsc	3,2
  1711  014B  0008               	return
  1712  014C  0855               	movf	memcpy@s+1,w
  1713  014D  00FF               	movwf	127
  1714  014E  0854               	movf	memcpy@s,w
  1715  014F  0084               	movwf	4
  1716  0150  118A  2300  118A   	fcall	stringtab
  1717  0153  00D2               	movwf	??_memcpy
  1718  0154  0856               	movf	memcpy@d,w
  1719  0155  0084               	movwf	4
  1720  0156  0852               	movf	??_memcpy,w
  1721  0157  1383               	bcf	3,7	;select IRP bank0
  1722  0158  0080               	movwf	0
  1723  0159  0AD4               	incf	memcpy@s,f
  1724  015A  1903               	skipnz
  1725  015B  0AD5               	incf	memcpy@s+1,f
  1726  015C  0AD6               	incf	memcpy@d,f
  1727  015D  2941               	goto	l14036
  1728  015E                     __end_of_memcpy:	
  1729  015E                     __ptext740:	
  1730 ;; =============== function _RF_Init ends ============
  1731                           
  1732                           
  1733 ;; *************** function _send *****************
  1734 ;; Defined at:
  1735 ;;		line 6 in file "D:\Work\project\PAV03-master\FWTRX-PAVTR-SERIALTR-PAN2416AV\src\uart.c"
  1736 ;; Parameters:    Size  Location     Type
  1737 ;;  uContent        1    wreg     unsigned char 
  1738 ;; Auto vars:     Size  Location     Type
  1739 ;;  uContent        1    4[BANK0 ] unsigned char 
  1740 ;;  i               1    6[BANK0 ] unsigned char 
  1741 ;;  uSendContent    1    5[BANK0 ] unsigned char 
  1742 ;; Return value:  Size  Location     Type
  1743 ;;		None               void
  1744 ;; Registers used:
  1745 ;;		wreg, status,2, status,0, pclath, cstack
  1746 ;; Tracked objects:
  1747 ;;		On entry : 160/0
  1748 ;;		On exit  : 60/0
  1749 ;;		Unchanged: FFE00/0
  1750 ;; Data sizes:     COMMON   BANK0   BANK1   BANK3   BANK2
  1751 ;;      Params:         0       0       0       0       0
  1752 ;;      Locals:         0       3       0       0       0
  1753 ;;      Temps:          0       0       0       0       0
  1754 ;;      Totals:         0       3       0       0       0
  1755 ;;Total ram usage:        3 bytes
  1756 ;; Hardware stack levels used:    1
  1757 ;; Hardware stack levels required when called:    3
  1758 ;; This function calls:
  1759 ;;		_Delay_us
  1760 ;; This function is called by:
  1761 ;;		_rx_data
  1762 ;; This function uses a non-reentrant model
  1763 ;;
  1764  015E                     _send:	
  1765                           
  1766                           ; Regs used in _send: [wreg+status,2+status,0+pclath+cstack]
  1767                           ;send@uContent stored from wreg
  1768  015E  00D2               	movwf	send@uContent
  1769                           
  1770                           ;uart.c: 9: uSendContent=uContent;
  1771  015F  00D3               	movwf	send@uSendContent
  1772                           
  1773                           ;uart.c: 10: TRISB1=0;
  1774  0160  1683               	bsf	3,5	;RP0=1, select bank1
  1775  0161  1086               	bcf	6,1
  1776                           
  1777                           ;uart.c: 11: RB1=0;
  1778  0162  1283               	bcf	3,5	;RP0=0, select bank0
  1779  0163  300F               	movlw	15
  1780  0164  1086               	bcf	6,1
  1781                           
  1782                           ;uart.c: 12: Delay_us(15);
  1783  0165  00CE               	movwf	?_Delay_us
  1784  0166  01CF               	clrf	?_Delay_us+1
  1785  0167  2184  118A         	fcall	_Delay_us
  1786                           
  1787                           ;uart.c: 13: for(i=0;i<8;i++)
  1788  0169  01D4               	clrf	send@i
  1789  016A                     l11783:	
  1790                           
  1791                           ;uart.c: 14: {
  1792                           ;uart.c: 15: RB1 =uSendContent&0x01;
  1793  016A  1C53               	btfss	send@uSendContent,0
  1794  016B  2970               	goto	u650
  1795  016C  1283               	bcf	3,5	;RP0=0, select bank0
  1796  016D  1303               	bcf	3,6	;RP1=0, select bank0
  1797  016E  1486               	bsf	6,1
  1798  016F  2973               	goto	l14096
  1799  0170                     u650:	
  1800  0170  1283               	bcf	3,5	;RP0=0, select bank0
  1801  0171  1303               	bcf	3,6	;RP1=0, select bank0
  1802  0172  1086               	bcf	6,1
  1803  0173                     l14096:	
  1804                           
  1805                           ;uart.c: 16: Delay_us(15);
  1806  0173  300F               	movlw	15
  1807  0174  00CE               	movwf	?_Delay_us
  1808  0175  01CF               	clrf	?_Delay_us+1
  1809  0176  2184  118A         	fcall	_Delay_us
  1810  0178  3008               	movlw	8
  1811                           
  1812                           ;uart.c: 17: uSendContent=uSendContent>>1;
  1813  0179  1003               	clrc
  1814  017A  0CD3               	rrf	send@uSendContent,f
  1815  017B  0AD4               	incf	send@i,f
  1816  017C  0254               	subwf	send@i,w
  1817  017D  1C03               	skipc
  1818  017E  296A               	goto	l11783
  1819  017F  300F               	movlw	15
  1820                           
  1821                           ;uart.c: 18: }
  1822                           ;uart.c: 19: RB1=1;
  1823  0180  1486               	bsf	6,1
  1824                           
  1825                           ;uart.c: 20: Delay_us(15);
  1826  0181  00CE               	movwf	?_Delay_us
  1827  0182  01CF               	clrf	?_Delay_us+1
  1828  0183  2984               	ljmp	l13984
  1829  0184                     __end_of_send:	
  1830  0184                     __ptext747:	
  1831 ;; =============== function _UpdateCRC ends ============
  1832                           
  1833                           
  1834 ;; *************** function _Delay_us *****************
  1835 ;; Defined at:
  1836 ;;		line 23 in file "D:\Work\project\PAV03-master\FWTRX-PAVTR-SERIALTR-PAN2416AV\src\delay.c"
  1837 ;; Parameters:    Size  Location     Type
  1838 ;;  us              2    0[BANK0 ] unsigned int 
  1839 ;; Auto vars:     Size  Location     Type
  1840 ;;  i               2    2[BANK0 ] unsigned int 
  1841 ;; Return value:  Size  Location     Type
  1842 ;;		None               void
  1843 ;; Registers used:
  1844 ;;		wreg, status,2, status,0
  1845 ;; Tracked objects:
  1846 ;;		On entry : 60/0
  1847 ;;		On exit  : 60/0
  1848 ;;		Unchanged: FFE00/0
  1849 ;; Data sizes:     COMMON   BANK0   BANK1   BANK3   BANK2
  1850 ;;      Params:         0       2       0       0       0
  1851 ;;      Locals:         0       2       0       0       0
  1852 ;;      Temps:          0       0       0       0       0
  1853 ;;      Totals:         0       4       0       0       0
  1854 ;;Total ram usage:        4 bytes
  1855 ;; Hardware stack levels used:    1
  1856 ;; Hardware stack levels required when called:    2
  1857 ;; This function calls:
  1858 ;;		Nothing
  1859 ;; This function is called by:
  1860 ;;		_send
  1861 ;; This function uses a non-reentrant model
  1862 ;;
  1863  0184                     _Delay_us:	
  1864  0184                     l13984:	
  1865                           ; Regs used in _Delay_us: [wreg+status,2+status,0]
  1866                           
  1867                           
  1868                           ;delay.c: 25: i = us/2;
  1869  0184  084F               	movf	Delay_us@us+1,w
  1870  0185  00D1               	movwf	Delay_us@i+1
  1871  0186  084E               	movf	Delay_us@us,w
  1872  0187  00D0               	movwf	Delay_us@i
  1873  0188  3001               	movlw	1
  1874  0189  1003               	clrc
  1875  018A  0CD1               	rrf	Delay_us@i+1,f
  1876  018B  0CD0               	rrf	Delay_us@i,f
  1877                           
  1878                           ;delay.c: 26: i--;
  1879  018C  2291  118A         	fcall	PL2	;call to abstracted procedure
  1880  018E  0000               	nop	;#
  1881  018F                     l13992:	
  1882                           
  1883                           ;delay.c: 28: for(;i!=0;i--)
  1884  018F  1283               	bcf	3,5	;RP0=0, select bank0
  1885  0190  1303               	bcf	3,6	;RP1=0, select bank0
  1886  0191  0851               	movf	Delay_us@i+1,w
  1887  0192  0450               	iorwf	Delay_us@i,w
  1888  0193  1903               	btfsc	3,2
  1889  0194  0008               	return
  1890  0195  0000               	nop	;#
  1891  0196  0000               	nop	;#
  1892  0197  0000               	nop	;#
  1893  0198  0000               	nop	;#
  1894  0199  0000               	nop	;#
  1895  019A  0000               	nop	;#
  1896  019B  3001               	movlw	1
  1897  019C  1283               	bcf	3,5	;RP0=0, select bank0
  1898  019D  1303               	bcf	3,6	;RP1=0, select bank0
  1899  019E  2291  118A         	fcall	PL2	;call to abstracted procedure
  1900  01A0  298F               	goto	l13992
  1901  01A1                     __end_of_Delay_us:	
  1902  01A1                     __ptext734:	
  1903 ;; =============== function _rx_data ends ============
  1904                           
  1905                           
  1906 ;; *************** function _RF_RxData *****************
  1907 ;; Defined at:
  1908 ;;		line 134 in file "D:\Work\project\PAV03-master\FWTRX-PAVTR-SERIALTR-PAN2416AV\src\rf297L.c"
  1909 ;; Parameters:    Size  Location     Type
  1910 ;;  payload_buff    1    wreg     PTR unsigned char 
  1911 ;;		 -> rf_buf(18), 
  1912 ;;  length          1    7[BANK0 ] unsigned char 
  1913 ;; Auto vars:     Size  Location     Type
  1914 ;;  payload_buff    1    9[BANK0 ] PTR unsigned char 
  1915 ;;		 -> rf_buf(18), 
  1916 ;; Return value:  Size  Location     Type
  1917 ;;                  1    wreg      unsigned char 
  1918 ;; Registers used:
  1919 ;;		wreg, fsr0l, fsr0h, status,2, status,0, pclath, cstack
  1920 ;; Tracked objects:
  1921 ;;		On entry : 60/0
  1922 ;;		On exit  : 60/0
  1923 ;;		Unchanged: FFE9F/0
  1924 ;; Data sizes:     COMMON   BANK0   BANK1   BANK3   BANK2
  1925 ;;      Params:         0       1       0       0       0
  1926 ;;      Locals:         0       1       0       0       0
  1927 ;;      Temps:          0       1       0       0       0
  1928 ;;      Totals:         0       3       0       0       0
  1929 ;;Total ram usage:        3 bytes
  1930 ;; Hardware stack levels used:    1
  1931 ;; Hardware stack levels required when called:    5
  1932 ;; This function calls:
  1933 ;;		_RF_GetStatus
  1934 ;;		_RF_Read_Buff
  1935 ;;		_RF_ClearFIFO
  1936 ;;		_RF_ClearStatus
  1937 ;; This function is called by:
  1938 ;;		_rx_data
  1939 ;; This function uses a non-reentrant model
  1940 ;;
  1941  01A1                     _RF_RxData:	
  1942                           
  1943                           ; Regs used in _RF_RxData: [wreg-fsr0h+status,2+status,0+pclath+cstack]
  1944                           ;RF_RxData@payload_buff stored from wreg
  1945  01A1  00D7               	movwf	RF_RxData@payload_buff
  1946                           
  1947                           ;rf297L.c: 135: if(!(RF_GetStatus() & 0X40))
  1948  01A2  2279  118A         	fcall	_RF_GetStatus
  1949  01A4  00D6               	movwf	??_RF_RxData
  1950  01A5  1F56               	btfss	??_RF_RxData,6
  1951                           
  1952                           ;rf297L.c: 136: {
  1953                           ;rf297L.c: 137: return 0;
  1954  01A6  3400               	retlw	0
  1955                           
  1956                           ;rf297L.c: 138: }
  1957                           ;rf297L.c: 139: RF_Read_Buff(0x61, payload_buff, length);
  1958  01A7  0857               	movf	RF_RxData@payload_buff,w
  1959  01A8  00D0               	movwf	?_RF_Read_Buff
  1960  01A9  0855               	movf	RF_RxData@length,w
  1961  01AA  00D1               	movwf	?_RF_Read_Buff+1
  1962  01AB  3061               	movlw	97
  1963  01AC  21B2  118A         	fcall	_RF_Read_Buff
  1964                           
  1965                           ;rf297L.c: 141: RF_ClearFIFO();
  1966  01AE  227D  118A         	fcall	_RF_ClearFIFO
  1967                           
  1968                           ;rf297L.c: 142: RF_ClearStatus();
  1969  01B0  228D               	fcall	_RF_ClearStatus
  1970                           
  1971                           ;rf297L.c: 143: return 1;
  1972  01B1  3401               	retlw	1
  1973  01B2                     __end_of_RF_RxData:	
  1974  01B2                     __ptext742:	
  1975 ;; =============== function _RF_ReadReg ends ============
  1976                           
  1977                           
  1978 ;; *************** function _RF_Read_Buff *****************
  1979 ;; Defined at:
  1980 ;;		line 275 in file "D:\Work\project\PAV03-master\FWTRX-PAVTR-SERIALTR-PAN2416AV\src\rf297L.c"
  1981 ;; Parameters:    Size  Location     Type
  1982 ;;  reg_addr        1    wreg     unsigned char 
  1983 ;;  pBuff           1    2[BANK0 ] PTR unsigned char 
  1984 ;;		 -> rf_buf(18), 
  1985 ;;  length          1    3[BANK0 ] unsigned char 
  1986 ;; Auto vars:     Size  Location     Type
  1987 ;;  reg_addr        1    5[BANK0 ] unsigned char 
  1988 ;;  byte_ctr        1    6[BANK0 ] unsigned char 
  1989 ;; Return value:  Size  Location     Type
  1990 ;;		None               void
  1991 ;; Registers used:
  1992 ;;		wreg, fsr0l, fsr0h, status,2, status,0, pclath, cstack
  1993 ;; Tracked objects:
  1994 ;;		On entry : 60/0
  1995 ;;		On exit  : 60/0
  1996 ;;		Unchanged: FFE9F/0
  1997 ;; Data sizes:     COMMON   BANK0   BANK1   BANK3   BANK2
  1998 ;;      Params:         0       2       0       0       0
  1999 ;;      Locals:         0       2       0       0       0
  2000 ;;      Temps:          0       1       0       0       0
  2001 ;;      Totals:         0       5       0       0       0
  2002 ;;Total ram usage:        5 bytes
  2003 ;; Hardware stack levels used:    1
  2004 ;; Hardware stack levels required when called:    3
  2005 ;; This function calls:
  2006 ;;		_SPI_RW
  2007 ;; This function is called by:
  2008 ;;		_RF_RxData
  2009 ;; This function uses a non-reentrant model
  2010 ;;
  2011  01B2                     _RF_Read_Buff:	
  2012                           
  2013                           ; Regs used in _RF_Read_Buff: [wreg-fsr0h+status,2+status,0+pclath+cstack]
  2014                           ;RF_Read_Buff@reg_addr stored from wreg
  2015  01B2  00D3               	movwf	RF_Read_Buff@reg_addr
  2016                           
  2017                           ;rf297L.c: 276: unsigned char byte_ctr;
  2018                           ;rf297L.c: 277: RE2=0;
  2019  01B3  1109               	bcf	9,2
  2020                           
  2021                           ;rf297L.c: 278: SPI_RW(reg_addr);
  2022  01B4  225D  118A         	fcall	_SPI_RW
  2023                           
  2024                           ;rf297L.c: 279: for(byte_ctr=0;byte_ctr<length;byte_ctr++){
  2025  01B6  01D4               	clrf	RF_Read_Buff@byte_ctr
  2026  01B7                     l14066:	
  2027  01B7  0851               	movf	RF_Read_Buff@length,w
  2028  01B8  0254               	subwf	RF_Read_Buff@byte_ctr,w
  2029  01B9  1803               	btfsc	3,0
  2030  01BA  29C6               	goto	l5178
  2031                           
  2032                           ;rf297L.c: 280: pBuff[byte_ctr] = SPI_RW(0);
  2033  01BB  0854               	movf	RF_Read_Buff@byte_ctr,w
  2034  01BC  0750               	addwf	RF_Read_Buff@pBuff,w
  2035  01BD  00D2               	movwf	??_RF_Read_Buff
  2036  01BE  0084               	movwf	4
  2037  01BF  3000               	movlw	0
  2038  01C0  225D  118A         	fcall	_SPI_RW
  2039  01C2  1383               	bcf	3,7	;select IRP bank0
  2040  01C3  0080               	movwf	0
  2041  01C4  0AD4               	incf	RF_Read_Buff@byte_ctr,f
  2042  01C5  29B7               	goto	l14066
  2043  01C6                     l5178:	
  2044                           
  2045                           ;rf297L.c: 281: }
  2046                           ;rf297L.c: 282: RE2=1;
  2047  01C6  1509               	bsf	9,2
  2048  01C7  0008               	return
  2049  01C8                     __end_of_RF_Read_Buff:	
  2050  01C8                     __ptext739:	
  2051 ;; =============== function _RF_Set_RxMode ends ============
  2052                           
  2053                           
  2054 ;; *************** function _RF_Init *****************
  2055 ;; Defined at:
  2056 ;;		line 45 in file "D:\Work\project\PAV03-master\FWTRX-PAVTR-SERIALTR-PAN2416AV\src\rf297L.c"
  2057 ;; Parameters:    Size  Location     Type
  2058 ;;		None
  2059 ;; Auto vars:     Size  Location     Type
  2060 ;;  feature         1    0        unsigned char 
  2061 ;; Return value:  Size  Location     Type
  2062 ;;		None               void
  2063 ;; Registers used:
  2064 ;;		wreg, fsr0l, fsr0h, status,2, status,0, pclath, cstack
  2065 ;; Tracked objects:
  2066 ;;		On entry : 60/20
  2067 ;;		On exit  : 60/0
  2068 ;;		Unchanged: FFF9F/0
  2069 ;; Data sizes:     COMMON   BANK0   BANK1   BANK3   BANK2
  2070 ;;      Params:         0       0       0       0       0
  2071 ;;      Locals:         0       1       0       0       0
  2072 ;;      Temps:          0       0       0       0       0
  2073 ;;      Totals:         0       1       0       0       0
  2074 ;;Total ram usage:        1 bytes
  2075 ;; Hardware stack levels used:    1
  2076 ;; Hardware stack levels required when called:    4
  2077 ;; This function calls:
  2078 ;;		_SPI_init
  2079 ;;		_RF_WriteReg
  2080 ;;		_RF_Write_Buff
  2081 ;; This function is called by:
  2082 ;;		_main
  2083 ;; This function uses a non-reentrant model
  2084 ;;
  2085  01C8                     _RF_Init:	
  2086                           
  2087                           ;rf297L.c: 76: SPI_init();
  2088                           
  2089                           ; Regs used in _RF_Init: [wreg-fsr0h+status,2+status,0+pclath+cstack]
  2090  01C8  2272  118A         	fcall	_SPI_init
  2091                           
  2092                           ;rf297L.c: 77: RF_WriteReg(0x53, 0x5A);
  2093  01CA  305A               	movlw	90
  2094  01CB  1283               	bcf	3,5	;RP0=0, select bank0
  2095  01CC  00D0               	movwf	?_RF_WriteReg
  2096  01CD  3053               	movlw	83
  2097  01CE  2240  118A         	fcall	_RF_WriteReg
  2098                           
  2099                           ;rf297L.c: 78: RF_WriteReg(0x53, 0XA5);
  2100  01D0  30A5               	movlw	165
  2101  01D1  00D0               	movwf	?_RF_WriteReg
  2102  01D2  3053               	movlw	83
  2103  01D3  2240  118A         	fcall	_RF_WriteReg
  2104  01D5  30E1               	movlw	225
  2105                           
  2106                           ;rf297L.c: 79: RF_WriteReg(0xE1, 0);
  2107  01D6  01D0               	clrf	?_RF_WriteReg
  2108  01D7  2240  118A         	fcall	_RF_WriteReg
  2109  01D9  30E2               	movlw	226
  2110                           
  2111                           ;rf297L.c: 80: RF_WriteReg(0xE2, 0);
  2112  01DA  01D0               	clrf	?_RF_WriteReg
  2113  01DB  2240  118A         	fcall	_RF_WriteReg
  2114                           
  2115                           ;rf297L.c: 81: RF_WriteReg(0x20 + 0x07, 0x70);
  2116  01DD  3070               	movlw	112
  2117  01DE  00D0               	movwf	?_RF_WriteReg
  2118  01DF  3027               	movlw	39
  2119  01E0  2240  118A         	fcall	_RF_WriteReg
  2120  01E2  3022               	movlw	34
  2121                           
  2122                           ;rf297L.c: 82: RF_WriteReg(0x20 + 0x02, 0x01);
  2123  01E3  01D0               	clrf	?_RF_WriteReg
  2124  01E4  0AD0               	incf	?_RF_WriteReg,f
  2125  01E5  2240  118A         	fcall	_RF_WriteReg
  2126  01E7  3023               	movlw	35
  2127                           
  2128                           ;rf297L.c: 83: RF_WriteReg(0x20 + 0x03, 0x01);
  2129  01E8  01D0               	clrf	?_RF_WriteReg
  2130  01E9  0AD0               	incf	?_RF_WriteReg,f
  2131  01EA  2240  118A         	fcall	_RF_WriteReg
  2132                           
  2133                           ;rf297L.c: 84: RF_WriteReg(0x20 + 0x05, 26);
  2134  01EC  301A               	movlw	26
  2135  01ED  00D0               	movwf	?_RF_WriteReg
  2136  01EE  3025               	movlw	37
  2137  01EF  2240  118A         	fcall	_RF_WriteReg
  2138                           
  2139                           ;rf297L.c: 85: RF_WriteReg(0x20 + 0x11, 18);
  2140  01F1  3012               	movlw	18
  2141  01F2  00D0               	movwf	?_RF_WriteReg
  2142  01F3  3031               	movlw	49
  2143  01F4  2240  118A         	fcall	_RF_WriteReg
  2144                           
  2145                           ;rf297L.c: 86: RF_Write_Buff(0x20 + 0x10, TX_ADDRESS_DEF, sizeof(TX_ADDRESS_DEF));
  2146  01F6  3078               	movlw	(_TX_ADDRESS_DEF-__stringbase)& (0+255)
  2147  01F7  00D0               	movwf	?_RF_Write_Buff
  2148  01F8  3003               	movlw	3
  2149  01F9  00D1               	movwf	?_RF_Write_Buff+1
  2150  01FA  3030               	movlw	48
  2151  01FB  2248  118A         	fcall	_RF_Write_Buff
  2152                           
  2153                           ;rf297L.c: 87: RF_Write_Buff(0x20 + 0x0A,RX_ADDRESS_DEF, sizeof(RX_ADDRESS_DEF));
  2154  01FD  3075               	movlw	(_RX_ADDRESS_DEF-__stringbase)& (0+255)
  2155  01FE  00D0               	movwf	?_RF_Write_Buff
  2156  01FF  3003               	movlw	3
  2157  0200  00D1               	movwf	?_RF_Write_Buff+1
  2158  0201  302A               	movlw	42
  2159  0202  2248  118A         	fcall	_RF_Write_Buff
  2160                           
  2161                           ;rf297L.c: 88: RF_Write_Buff(0x20 + 0x1F, BB_cal_data, sizeof(BB_cal_data));
  2162  0204  3061               	movlw	(RF_Init@BB_cal_data-__stringbase)& (0+255)
  2163  0205  00D0               	movwf	?_RF_Write_Buff
  2164  0206  3005               	movlw	5
  2165  0207  00D1               	movwf	?_RF_Write_Buff+1
  2166  0208  303F               	movlw	63
  2167  0209  2248  118A         	fcall	_RF_Write_Buff
  2168                           
  2169                           ;rf297L.c: 89: RF_Write_Buff(0x20 + 0x1A, RF_cal2_data, sizeof(RF_cal2_data));
  2170  020B  3056               	movlw	(RF_Init@RF_cal2_data-__stringbase)& (0+255)
  2171  020C  00D0               	movwf	?_RF_Write_Buff
  2172  020D  3006               	movlw	6
  2173  020E  00D1               	movwf	?_RF_Write_Buff+1
  2174  020F  303A               	movlw	58
  2175  0210  2248  118A         	fcall	_RF_Write_Buff
  2176                           
  2177                           ;rf297L.c: 90: RF_Write_Buff(0x20 + 0x19, Dem_cal_data, sizeof(Dem_cal_data));
  2178  0212  307C               	movlw	(RF_Init@Dem_cal_data-__stringbase)& (0+255)
  2179  0213  00D0               	movwf	?_RF_Write_Buff
  2180  0214  3039               	movlw	57
  2181  0215  01D1               	clrf	?_RF_Write_Buff+1
  2182  0216  0AD1               	incf	?_RF_Write_Buff+1,f
  2183  0217  2248  118A         	fcall	_RF_Write_Buff
  2184                           
  2185                           ;rf297L.c: 91: RF_Write_Buff(0x20 + 0x1E, RF_cal_data, sizeof(RF_cal_data));
  2186  0219  306F               	movlw	(RF_Init@RF_cal_data-__stringbase)& (0+255)
  2187  021A  00D0               	movwf	?_RF_Write_Buff
  2188  021B  3003               	movlw	3
  2189  021C  00D1               	movwf	?_RF_Write_Buff+1
  2190  021D  303E               	movlw	62
  2191  021E  2248  118A         	fcall	_RF_Write_Buff
  2192                           
  2193                           ;rf297L.c: 92: RF_Write_Buff(0x20 + 0x1B, Dem_cal2_data,sizeof(Dem_cal2_data));
  2194  0220  306C               	movlw	(RF_Init@Dem_cal2_data-__stringbase)& (0+255)
  2195  0221  00D0               	movwf	?_RF_Write_Buff
  2196  0222  3003               	movlw	3
  2197  0223  00D1               	movwf	?_RF_Write_Buff+1
  2198  0224  303B               	movlw	59
  2199  0225  2248  118A         	fcall	_RF_Write_Buff
  2200  0227  303C               	movlw	60
  2201                           
  2202                           ;rf297L.c: 93: RF_WriteReg(0x20 + 0x1C, 0x00);
  2203  0228  01D0               	clrf	?_RF_WriteReg
  2204  0229  2240  118A         	fcall	_RF_WriteReg
  2205                           
  2206                           ;rf297L.c: 94: RF_WriteReg(0x20 + 0x06, (0x0e |0X00));
  2207  022B  300E               	movlw	14
  2208  022C  00D0               	movwf	?_RF_WriteReg
  2209  022D  3026               	movlw	38
  2210  022E  2240  118A         	fcall	_RF_WriteReg
  2211                           
  2212                           ;rf297L.c: 95: RF_WriteReg(0x50, 0x73);
  2213  0230  3073               	movlw	115
  2214  0231  00D0               	movwf	?_RF_WriteReg
  2215  0232  3050               	movlw	80
  2216  0233  2240  118A         	fcall	_RF_WriteReg
  2217  0235  3024               	movlw	36
  2218                           
  2219                           ;rf297L.c: 101: RF_WriteReg(0x20 + 0x04,0x00);
  2220  0236  01D0               	clrf	?_RF_WriteReg
  2221  0237  2240  118A         	fcall	_RF_WriteReg
  2222  0239  3021               	movlw	33
  2223                           
  2224                           ;rf297L.c: 102: RF_WriteReg(0x20 + 0x01, 0x00);
  2225  023A  01D0               	clrf	?_RF_WriteReg
  2226  023B  2240  118A         	fcall	_RF_WriteReg
  2227                           
  2228                           ;rf297L.c: 113: if(18 >32){
  2229  023D  303D               	movlw	61
  2230                           
  2231                           ;rf297L.c: 115: }
  2232                           ;rf297L.c: 117: RF_WriteReg(0x20 + 0x1D, feature);
  2233  023E  01D0               	clrf	?_RF_WriteReg
  2234  023F  2A40               	ljmp	_RF_WriteReg
  2235  0240                     __end_of_RF_Init:	
  2236  0240                     __ptext744:	
  2237 ;; =============== function _RF_Write_Buff ends ============
  2238                           
  2239                           
  2240 ;; *************** function _RF_WriteReg *****************
  2241 ;; Defined at:
  2242 ;;		line 298 in file "D:\Work\project\PAV03-master\FWTRX-PAVTR-SERIALTR-PAN2416AV\src\rf297L.c"
  2243 ;; Parameters:    Size  Location     Type
  2244 ;;  reg_addr        1    wreg     unsigned char 
  2245 ;;  write_data      1    2[BANK0 ] unsigned char 
  2246 ;; Auto vars:     Size  Location     Type
  2247 ;;  reg_addr        1    3[BANK0 ] unsigned char 
  2248 ;; Return value:  Size  Location     Type
  2249 ;;		None               void
  2250 ;; Registers used:
  2251 ;;		wreg, status,2, status,0, pclath, cstack
  2252 ;; Tracked objects:
  2253 ;;		On entry : 60/0
  2254 ;;		On exit  : 60/0
  2255 ;;		Unchanged: FFF9F/0
  2256 ;; Data sizes:     COMMON   BANK0   BANK1   BANK3   BANK2
  2257 ;;      Params:         0       1       0       0       0
  2258 ;;      Locals:         0       1       0       0       0
  2259 ;;      Temps:          0       0       0       0       0
  2260 ;;      Totals:         0       2       0       0       0
  2261 ;;Total ram usage:        2 bytes
  2262 ;; Hardware stack levels used:    1
  2263 ;; Hardware stack levels required when called:    3
  2264 ;; This function calls:
  2265 ;;		_SPI_RW
  2266 ;; This function is called by:
  2267 ;;		_RF_Init
  2268 ;;		_RF_ClearFIFO
  2269 ;;		_RF_ClearStatus
  2270 ;;		_RF_Set_RxMode
  2271 ;; This function uses a non-reentrant model
  2272 ;;
  2273  0240                     _RF_WriteReg:	
  2274                           
  2275                           ; Regs used in _RF_WriteReg: [wreg+status,2+status,0+pclath+cstack]
  2276                           ;RF_WriteReg@reg_addr stored from wreg
  2277  0240  00D1               	movwf	RF_WriteReg@reg_addr
  2278                           
  2279                           ;rf297L.c: 299: RE2=0;
  2280  0241  1109               	bcf	9,2
  2281                           
  2282                           ;rf297L.c: 300: SPI_RW(reg_addr);
  2283  0242  225D  118A         	fcall	_SPI_RW
  2284                           
  2285                           ;rf297L.c: 301: SPI_RW(write_data);
  2286  0244  0850               	movf	RF_WriteReg@write_data,w
  2287  0245  225D               	fcall	_SPI_RW
  2288                           
  2289                           ;rf297L.c: 302: RE2=1;
  2290  0246  1509               	bsf	9,2
  2291  0247  0008               	return
  2292  0248                     __end_of_RF_WriteReg:	
  2293  0248                     __ptext743:	
  2294 ;; =============== function _RF_Read_Buff ends ============
  2295                           
  2296                           
  2297 ;; *************** function _RF_Write_Buff *****************
  2298 ;; Defined at:
  2299 ;;		line 286 in file "D:\Work\project\PAV03-master\FWTRX-PAVTR-SERIALTR-PAN2416AV\src\rf297L.c"
  2300 ;; Parameters:    Size  Location     Type
  2301 ;;  reg_addr        1    wreg     unsigned char 
  2302 ;;  pBuff           1    2[BANK0 ] PTR unsigned char 
  2303 ;;		 -> RF_Carrier@Dem_cal2_data(3), RF_Carrier@RF_cal_data(3), RF_Carrier@Dem_cal_data(1), RF_Carrier@RF_cal2_data(6), 
  2304 ;;		 -> RF_Carrier@BB_cal_data(5), RF_Init@Dem_cal2_data(3), RF_Init@RF_cal_data(3), RF_Init@Dem_cal_data(1), 
  2305 ;;		 -> RF_Init@RF_cal2_data(6), RF_Init@BB_cal_data(5), RX_ADDRESS_DEF(3), TX_ADDRESS_DEF(3), 
  2306 ;;  length          1    3[BANK0 ] unsigned char 
  2307 ;; Auto vars:     Size  Location     Type
  2308 ;;  reg_addr        1    4[BANK0 ] unsigned char 
  2309 ;;  i               1    5[BANK0 ] unsigned char 
  2310 ;; Return value:  Size  Location     Type
  2311 ;;		None               void
  2312 ;; Registers used:
  2313 ;;		wreg, fsr0l, fsr0h, status,2, status,0, pclath, cstack
  2314 ;; Tracked objects:
  2315 ;;		On entry : 60/0
  2316 ;;		On exit  : 60/0
  2317 ;;		Unchanged: FFF9F/0
  2318 ;; Data sizes:     COMMON   BANK0   BANK1   BANK3   BANK2
  2319 ;;      Params:         0       2       0       0       0
  2320 ;;      Locals:         0       2       0       0       0
  2321 ;;      Temps:          0       0       0       0       0
  2322 ;;      Totals:         0       4       0       0       0
  2323 ;;Total ram usage:        4 bytes
  2324 ;; Hardware stack levels used:    1
  2325 ;; Hardware stack levels required when called:    3
  2326 ;; This function calls:
  2327 ;;		_SPI_RW
  2328 ;; This function is called by:
  2329 ;;		_RF_Init
  2330 ;; This function uses a non-reentrant model
  2331 ;;
  2332  0248                     _RF_Write_Buff:	
  2333                           
  2334                           ; Regs used in _RF_Write_Buff: [wreg-fsr0h+status,2+status,0+pclath+cstack]
  2335                           ;RF_Write_Buff@reg_addr stored from wreg
  2336  0248  00D2               	movwf	RF_Write_Buff@reg_addr
  2337                           
  2338                           ;rf297L.c: 287: unsigned char i;
  2339                           ;rf297L.c: 288: RE2=0;
  2340  0249  1109               	bcf	9,2
  2341                           
  2342                           ;rf297L.c: 289: SPI_RW(reg_addr);
  2343  024A  225D  118A         	fcall	_SPI_RW
  2344                           
  2345                           ;rf297L.c: 290: for(i=0;i<length;i++)
  2346  024C  01D3               	clrf	RF_Write_Buff@i
  2347  024D                     l14054:	
  2348  024D  0851               	movf	RF_Write_Buff@length,w
  2349  024E  0253               	subwf	RF_Write_Buff@i,w
  2350  024F  1803               	btfsc	3,0
  2351  0250  2A5B               	goto	l5184
  2352                           
  2353                           ;rf297L.c: 291: {
  2354                           ;rf297L.c: 292: SPI_RW(pBuff[i]);
  2355  0251  0853               	movf	RF_Write_Buff@i,w
  2356  0252  0750               	addwf	RF_Write_Buff@pBuff,w
  2357  0253  0084               	movwf	4
  2358  0254  118A  230A  118A   	fcall	stringdir
  2359  0257  225D  118A         	fcall	_SPI_RW
  2360  0259  0AD3               	incf	RF_Write_Buff@i,f
  2361  025A  2A4D               	goto	l14054
  2362  025B                     l5184:	
  2363                           
  2364                           ;rf297L.c: 293: }
  2365                           ;rf297L.c: 294: RE2=1;
  2366  025B  1509               	bsf	9,2
  2367  025C  0008               	return
  2368  025D                     __end_of_RF_Write_Buff:	
  2369  025D                     __ptext748:	
  2370 ;; =============== function _Delay_us ends ============
  2371                           
  2372                           
  2373 ;; *************** function _SPI_RW *****************
  2374 ;; Defined at:
  2375 ;;		line 331 in file "D:\Work\project\PAV03-master\FWTRX-PAVTR-SERIALTR-PAN2416AV\src\rf297L.c"
  2376 ;; Parameters:    Size  Location     Type
  2377 ;;  read_reg_add    1    wreg     unsigned char 
  2378 ;; Auto vars:     Size  Location     Type
  2379 ;;  read_reg_add    1    0[BANK0 ] unsigned char 
  2380 ;;  i               1    1[BANK0 ] unsigned char 
  2381 ;; Return value:  Size  Location     Type
  2382 ;;                  1    wreg      unsigned char 
  2383 ;; Registers used:
  2384 ;;		wreg, status,2, status,0
  2385 ;; Tracked objects:
  2386 ;;		On entry : 60/0
  2387 ;;		On exit  : 60/0
  2388 ;;		Unchanged: FFF9F/0
  2389 ;; Data sizes:     COMMON   BANK0   BANK1   BANK3   BANK2
  2390 ;;      Params:         0       0       0       0       0
  2391 ;;      Locals:         0       2       0       0       0
  2392 ;;      Temps:          0       0       0       0       0
  2393 ;;      Totals:         0       2       0       0       0
  2394 ;;Total ram usage:        2 bytes
  2395 ;; Hardware stack levels used:    1
  2396 ;; Hardware stack levels required when called:    2
  2397 ;; This function calls:
  2398 ;;		Nothing
  2399 ;; This function is called by:
  2400 ;;		_RF_Read_Buff
  2401 ;;		_RF_Write_Buff
  2402 ;;		_RF_WriteReg
  2403 ;;		_RF_ReadReg
  2404 ;; This function uses a non-reentrant model
  2405 ;;
  2406  025D                     _SPI_RW:	
  2407                           
  2408                           ; Regs used in _SPI_RW: [wreg+status,2+status,0]
  2409                           ;SPI_RW@read_reg_addr stored from wreg
  2410  025D  00CE               	movwf	SPI_RW@read_reg_addr
  2411                           
  2412                           ;rf297L.c: 332: unsigned char i;
  2413                           ;rf297L.c: 333: for(i = 0; i < 8; i++)
  2414  025E  01CF               	clrf	SPI_RW@i
  2415                           
  2416                           ;rf297L.c: 334: {
  2417                           ;rf297L.c: 335: RE1=0;
  2418  025F  1089               	bcf	9,1
  2419  0260                     L1:	
  2420                           
  2421                           ;rf297L.c: 336: if(read_reg_addr & 0x80)
  2422  0260  1FCE               	btfss	SPI_RW@read_reg_addr,7
  2423  0261  2A64               	goto	l5199
  2424                           
  2425                           ;rf297L.c: 337: {
  2426                           ;rf297L.c: 338: RA5=1;
  2427  0262  1685               	bsf	5,5
  2428                           
  2429                           ;rf297L.c: 339: }
  2430  0263  2A65               	goto	l5200
  2431  0264                     l5199:	
  2432                           
  2433                           ;rf297L.c: 340: else
  2434                           ;rf297L.c: 341: {
  2435                           ;rf297L.c: 342: RA5=0;
  2436  0264  1285               	bcf	5,5
  2437  0265                     l5200:	
  2438                           
  2439                           ;rf297L.c: 343: }
  2440                           ;rf297L.c: 344: read_reg_addr = read_reg_addr << 1;
  2441  0265  1003               	clrc
  2442  0266  0DCE               	rlf	SPI_RW@read_reg_addr,f
  2443                           
  2444                           ;rf297L.c: 345: RE1=1;
  2445  0267  1489               	bsf	9,1
  2446                           
  2447                           ;rf297L.c: 346: if( RA4 )
  2448  0268  1A05               	btfsc	5,4
  2449                           
  2450                           ;rf297L.c: 347: {
  2451                           ;rf297L.c: 348: read_reg_addr = read_reg_addr | 0x01;
  2452  0269  144E               	bsf	SPI_RW@read_reg_addr,0
  2453  026A  3008               	movlw	8
  2454  026B  0ACF               	incf	SPI_RW@i,f
  2455  026C  024F               	subwf	SPI_RW@i,w
  2456                           
  2457                           ;rf297L.c: 349: }
  2458                           ;rf297L.c: 350: }
  2459                           ;rf297L.c: 351: RE1=0;
  2460  026D  1089               	bcf	9,1
  2461  026E  1C03               	skipc
  2462  026F  2A60               	goto	L1
  2463                           
  2464                           ;rf297L.c: 352: return read_reg_addr;
  2465  0270  084E               	movf	SPI_RW@read_reg_addr,w
  2466  0271  0008               	return
  2467  0272                     __end_of_SPI_RW:	
  2468  0272                     __ptext749:	
  2469 ;; =============== function _SPI_RW ends ============
  2470                           
  2471                           
  2472 ;; *************** function _SPI_init *****************
  2473 ;; Defined at:
  2474 ;;		line 316 in file "D:\Work\project\PAV03-master\FWTRX-PAVTR-SERIALTR-PAN2416AV\src\rf297L.c"
  2475 ;; Parameters:    Size  Location     Type
  2476 ;;		None
  2477 ;; Auto vars:     Size  Location     Type
  2478 ;;		None
  2479 ;; Return value:  Size  Location     Type
  2480 ;;		None               void
  2481 ;; Registers used:
  2482 ;;		None
  2483 ;; Tracked objects:
  2484 ;;		On entry : 60/20
  2485 ;;		On exit  : 60/20
  2486 ;;		Unchanged: FFF9F/0
  2487 ;; Data sizes:     COMMON   BANK0   BANK1   BANK3   BANK2
  2488 ;;      Params:         0       0       0       0       0
  2489 ;;      Locals:         0       0       0       0       0
  2490 ;;      Temps:          0       0       0       0       0
  2491 ;;      Totals:         0       0       0       0       0
  2492 ;;Total ram usage:        0 bytes
  2493 ;; Hardware stack levels used:    1
  2494 ;; Hardware stack levels required when called:    2
  2495 ;; This function calls:
  2496 ;;		Nothing
  2497 ;; This function is called by:
  2498 ;;		_RF_Init
  2499 ;; This function uses a non-reentrant model
  2500 ;;
  2501  0272                     _SPI_init:	
  2502                           
  2503                           ;rf297L.c: 318: TRISE2 =0;
  2504                           
  2505                           ; Regs used in _SPI_init: []
  2506  0272  1109               	bcf	9,2
  2507                           
  2508                           ;rf297L.c: 319: TRISE1=0;
  2509  0273  1089               	bcf	9,1
  2510                           
  2511                           ;rf297L.c: 320: TRISA5=0;
  2512  0274  1285               	bcf	5,5
  2513                           
  2514                           ;rf297L.c: 321: TRISA7 = 0;
  2515  0275  1385               	bcf	5,7
  2516                           
  2517                           ;rf297L.c: 323: TRISA3 = 1;
  2518  0276  1585               	bsf	5,3
  2519                           
  2520                           ;rf297L.c: 324: TRISA4=1;
  2521  0277  1605               	bsf	5,4
  2522  0278  0008               	return
  2523  0279                     __end_of_SPI_init:	
  2524  0279                     __ptext737:	
  2525 ;; =============== function _RF_ClearFIFO ends ============
  2526                           
  2527                           
  2528 ;; *************** function _RF_GetStatus *****************
  2529 ;; Defined at:
  2530 ;;		line 254 in file "D:\Work\project\PAV03-master\FWTRX-PAVTR-SERIALTR-PAN2416AV\src\rf297L.c"
  2531 ;; Parameters:    Size  Location     Type
  2532 ;;		None
  2533 ;; Auto vars:     Size  Location     Type
  2534 ;;		None
  2535 ;; Return value:  Size  Location     Type
  2536 ;;                  1    wreg      unsigned char 
  2537 ;; Registers used:
  2538 ;;		wreg, status,2, status,0, pclath, cstack
  2539 ;; Tracked objects:
  2540 ;;		On entry : 60/0
  2541 ;;		On exit  : 60/0
  2542 ;;		Unchanged: FFF9F/0
  2543 ;; Data sizes:     COMMON   BANK0   BANK1   BANK3   BANK2
  2544 ;;      Params:         0       0       0       0       0
  2545 ;;      Locals:         0       0       0       0       0
  2546 ;;      Temps:          0       0       0       0       0
  2547 ;;      Totals:         0       0       0       0       0
  2548 ;;Total ram usage:        0 bytes
  2549 ;; Hardware stack levels used:    1
  2550 ;; Hardware stack levels required when called:    4
  2551 ;; This function calls:
  2552 ;;		_RF_ReadReg
  2553 ;; This function is called by:
  2554 ;;		_RF_RxData
  2555 ;; This function uses a non-reentrant model
  2556 ;;
  2557  0279                     _RF_GetStatus:	
  2558                           
  2559                           ;rf297L.c: 255: return RF_ReadReg(0x07)&0x70;
  2560                           
  2561                           ; Regs used in _RF_GetStatus: [wreg+status,2+status,0+pclath+cstack]
  2562  0279  3007               	movlw	7
  2563  027A  2284               	fcall	_RF_ReadReg
  2564  027B  3970               	andlw	112
  2565  027C  0008               	return
  2566  027D                     __end_of_RF_GetStatus:	
  2567  027D                     __ptext736:	
  2568 ;; =============== function _RF_ClearStatus ends ============
  2569                           
  2570                           
  2571 ;; *************** function _RF_ClearFIFO *****************
  2572 ;; Defined at:
  2573 ;;		line 243 in file "D:\Work\project\PAV03-master\FWTRX-PAVTR-SERIALTR-PAN2416AV\src\rf297L.c"
  2574 ;; Parameters:    Size  Location     Type
  2575 ;;		None
  2576 ;; Auto vars:     Size  Location     Type
  2577 ;;		None
  2578 ;; Return value:  Size  Location     Type
  2579 ;;		None               void
  2580 ;; Registers used:
  2581 ;;		wreg, status,2, status,0, pclath, cstack
  2582 ;; Tracked objects:
  2583 ;;		On entry : 60/0
  2584 ;;		On exit  : 60/0
  2585 ;;		Unchanged: FFF9F/0
  2586 ;; Data sizes:     COMMON   BANK0   BANK1   BANK3   BANK2
  2587 ;;      Params:         0       0       0       0       0
  2588 ;;      Locals:         0       0       0       0       0
  2589 ;;      Temps:          0       0       0       0       0
  2590 ;;      Totals:         0       0       0       0       0
  2591 ;;Total ram usage:        0 bytes
  2592 ;; Hardware stack levels used:    1
  2593 ;; Hardware stack levels required when called:    4
  2594 ;; This function calls:
  2595 ;;		_RF_WriteReg
  2596 ;; This function is called by:
  2597 ;;		_RF_RxData
  2598 ;;		_recive_task
  2599 ;; This function uses a non-reentrant model
  2600 ;;
  2601  027D                     _RF_ClearFIFO:	
  2602                           
  2603                           ; Regs used in _RF_ClearFIFO: [wreg+status,2+status,0+pclath+cstack]
  2604  027D  30E1               	movlw	225
  2605                           
  2606                           ;rf297L.c: 244: RF_WriteReg(0xE1, 0);
  2607  027E  01D0               	clrf	?_RF_WriteReg
  2608  027F  2240  118A         	fcall	_RF_WriteReg
  2609  0281  30E2               	movlw	226
  2610                           
  2611                           ;rf297L.c: 245: RF_WriteReg(0xE2, 0);
  2612  0282  01D0               	clrf	?_RF_WriteReg
  2613  0283  2A40               	ljmp	_RF_WriteReg
  2614  0284                     __end_of_RF_ClearFIFO:	
  2615  0284                     __ptext741:	
  2616 ;; =============== function _send ends ============
  2617                           
  2618                           
  2619 ;; *************** function _RF_ReadReg *****************
  2620 ;; Defined at:
  2621 ;;		line 306 in file "D:\Work\project\PAV03-master\FWTRX-PAVTR-SERIALTR-PAN2416AV\src\rf297L.c"
  2622 ;; Parameters:    Size  Location     Type
  2623 ;;  reg_addr        1    wreg     unsigned char 
  2624 ;; Auto vars:     Size  Location     Type
  2625 ;;  reg_addr        1    2[BANK0 ] unsigned char 
  2626 ;;  tmp             1    3[BANK0 ] unsigned char 
  2627 ;; Return value:  Size  Location     Type
  2628 ;;                  1    wreg      unsigned char 
  2629 ;; Registers used:
  2630 ;;		wreg, status,2, status,0, pclath, cstack
  2631 ;; Tracked objects:
  2632 ;;		On entry : 60/0
  2633 ;;		On exit  : 60/0
  2634 ;;		Unchanged: FFF9F/0
  2635 ;; Data sizes:     COMMON   BANK0   BANK1   BANK3   BANK2
  2636 ;;      Params:         0       0       0       0       0
  2637 ;;      Locals:         0       2       0       0       0
  2638 ;;      Temps:          0       0       0       0       0
  2639 ;;      Totals:         0       2       0       0       0
  2640 ;;Total ram usage:        2 bytes
  2641 ;; Hardware stack levels used:    1
  2642 ;; Hardware stack levels required when called:    3
  2643 ;; This function calls:
  2644 ;;		_SPI_RW
  2645 ;; This function is called by:
  2646 ;;		_RF_GetStatus
  2647 ;; This function uses a non-reentrant model
  2648 ;;
  2649  0284                     _RF_ReadReg:	
  2650                           
  2651                           ; Regs used in _RF_ReadReg: [wreg+status,2+status,0+pclath+cstack]
  2652                           ;RF_ReadReg@reg_addr stored from wreg
  2653  0284  00D0               	movwf	RF_ReadReg@reg_addr
  2654                           
  2655                           ;rf297L.c: 307: unsigned char tmp;
  2656                           ;rf297L.c: 308: RE2=0;
  2657  0285  1109               	bcf	9,2
  2658                           
  2659                           ;rf297L.c: 309: SPI_RW(reg_addr);
  2660  0286  225D  118A         	fcall	_SPI_RW
  2661                           
  2662                           ;rf297L.c: 310: tmp = SPI_RW(0);
  2663  0288  3000               	movlw	0
  2664  0289  225D               	fcall	_SPI_RW
  2665  028A  00D1               	movwf	RF_ReadReg@tmp
  2666                           
  2667                           ;rf297L.c: 311: RE2=1;
  2668  028B  1509               	bsf	9,2
  2669                           
  2670                           ;rf297L.c: 312: return tmp;
  2671  028C  0008               	return
  2672  028D                     __end_of_RF_ReadReg:	
  2673  028D                     __ptext735:	
  2674 ;; =============== function _RF_RxData ends ============
  2675                           
  2676                           
  2677 ;; *************** function _RF_ClearStatus *****************
  2678 ;; Defined at:
  2679 ;;		line 249 in file "D:\Work\project\PAV03-master\FWTRX-PAVTR-SERIALTR-PAN2416AV\src\rf297L.c"
  2680 ;; Parameters:    Size  Location     Type
  2681 ;;		None
  2682 ;; Auto vars:     Size  Location     Type
  2683 ;;		None
  2684 ;; Return value:  Size  Location     Type
  2685 ;;		None               void
  2686 ;; Registers used:
  2687 ;;		wreg, status,2, status,0, pclath, cstack
  2688 ;; Tracked objects:
  2689 ;;		On entry : 60/0
  2690 ;;		On exit  : 60/0
  2691 ;;		Unchanged: FFF9F/0
  2692 ;; Data sizes:     COMMON   BANK0   BANK1   BANK3   BANK2
  2693 ;;      Params:         0       0       0       0       0
  2694 ;;      Locals:         0       0       0       0       0
  2695 ;;      Temps:          0       0       0       0       0
  2696 ;;      Totals:         0       0       0       0       0
  2697 ;;Total ram usage:        0 bytes
  2698 ;; Hardware stack levels used:    1
  2699 ;; Hardware stack levels required when called:    4
  2700 ;; This function calls:
  2701 ;;		_RF_WriteReg
  2702 ;; This function is called by:
  2703 ;;		_RF_RxData
  2704 ;;		_recive_task
  2705 ;; This function uses a non-reentrant model
  2706 ;;
  2707  028D                     _RF_ClearStatus:	
  2708  028D                     l14166:	
  2709                           ; Regs used in _RF_ClearStatus: [wreg+status,2+status,0+pclath+cstack]
  2710                           
  2711                           
  2712                           ;rf297L.c: 250: RF_WriteReg(0x20 + 0x07,0x70);
  2713  028D  3070               	movlw	112
  2714  028E  00D0               	movwf	?_RF_WriteReg
  2715  028F  3027               	movlw	39
  2716  0290  2A40               	ljmp	_RF_WriteReg
  2717  0291                     __end_of_RF_ClearStatus:	
  2718  0291                     PL2:	
  2719  0291  02D0               	subwf	Delay_us@i,f
  2720  0292  3000               	movlw	0
  2721  0293  1C03               	skipc
  2722  0294  03D1               	decf	Delay_us@i+1,f
  2723  0295  02D1               	subwf	Delay_us@i+1,f
  2724  0296  0008               	return
  2725                           
  2726                           	psect	text750
  2727  0422                     __ptext750:	
  2728 ;; =============== function _SPI_init ends ============
  2729                           
  2730                           
  2731 ;; *************** function _Enable_Interrupt *****************
  2732 ;; Defined at:
  2733 ;;		line 38 in file "D:\Work\project\PAV03-master\FWTRX-PAVTR-SERIALTR-PAN2416AV\src\system.c"
  2734 ;; Parameters:    Size  Location     Type
  2735 ;;		None
  2736 ;; Auto vars:     Size  Location     Type
  2737 ;;		None
  2738 ;; Return value:  Size  Location     Type
  2739 ;;		None               void
  2740 ;; Registers used:
  2741 ;;		None
  2742 ;; Tracked objects:
  2743 ;;		On entry : 60/0
  2744 ;;		On exit  : 60/0
  2745 ;;		Unchanged: FFF9F/0
  2746 ;; Data sizes:     COMMON   BANK0   BANK1   BANK3   BANK2
  2747 ;;      Params:         0       0       0       0       0
  2748 ;;      Locals:         0       0       0       0       0
  2749 ;;      Temps:          0       0       0       0       0
  2750 ;;      Totals:         0       0       0       0       0
  2751 ;;Total ram usage:        0 bytes
  2752 ;; Hardware stack levels used:    1
  2753 ;; Hardware stack levels required when called:    2
  2754 ;; This function calls:
  2755 ;;		Nothing
  2756 ;; This function is called by:
  2757 ;;		_main
  2758 ;; This function uses a non-reentrant model
  2759 ;;
  2760  0422                     _Enable_Interrupt:	
  2761                           
  2762                           ;system.c: 39: INTCON |= 0x80;
  2763                           
  2764                           ; Regs used in _Enable_Interrupt: []
  2765  0422  178B               	bsf	11,7	;volatile
  2766  0423  0008               	return
  2767  0424                     __end_of_Enable_Interrupt:	
  2768                           
  2769                           	psect	text751
  2770  03DA                     __ptext751:	
  2771 ;; =============== function _Enable_Interrupt ends ============
  2772                           
  2773                           
  2774 ;; *************** function _Timer1_start *****************
  2775 ;; Defined at:
  2776 ;;		line 43 in file "D:\Work\project\PAV03-master\FWTRX-PAVTR-SERIALTR-PAN2416AV\src\timer1.c"
  2777 ;; Parameters:    Size  Location     Type
  2778 ;;  T_nums          2    0[BANK0 ] unsigned int 
  2779 ;;  Timer1_ISR_e    1    2[BANK0 ] unsigned char 
  2780 ;; Auto vars:     Size  Location     Type
  2781 ;;		None
  2782 ;; Return value:  Size  Location     Type
  2783 ;;		None               void
  2784 ;; Registers used:
  2785 ;;		wreg
  2786 ;; Tracked objects:
  2787 ;;		On entry : 60/0
  2788 ;;		On exit  : 60/0
  2789 ;;		Unchanged: FFF9F/0
  2790 ;; Data sizes:     COMMON   BANK0   BANK1   BANK3   BANK2
  2791 ;;      Params:         0       3       0       0       0
  2792 ;;      Locals:         0       0       0       0       0
  2793 ;;      Temps:          0       2       0       0       0
  2794 ;;      Totals:         0       5       0       0       0
  2795 ;;Total ram usage:        5 bytes
  2796 ;; Hardware stack levels used:    1
  2797 ;; Hardware stack levels required when called:    2
  2798 ;; This function calls:
  2799 ;;		Nothing
  2800 ;; This function is called by:
  2801 ;;		_main
  2802 ;; This function uses a non-reentrant model
  2803 ;;
  2804  03DA                     _Timer1_start:	
  2805                           
  2806                           ;timer1.c: 44: Timer1_set_time = 0xffff - T_nums + Timer1_ISR_execution_total_time;
  2807                           
  2808                           ; Regs used in _Timer1_start: [wreg]
  2809  03DA  0850               	movf	Timer1_start@Timer1_ISR_execution_total_time,w
  2810  03DB  00F5               	movwf	_Timer1_set_time	;volatile
  2811  03DC  01F6               	clrf	_Timer1_set_time+1	;volatile
  2812  03DD  084F               	movf	Timer1_start@T_nums+1,w
  2813  03DE  00D2               	movwf	??_Timer1_start+1
  2814  03DF  084E               	movf	Timer1_start@T_nums,w
  2815  03E0  00D1               	movwf	??_Timer1_start
  2816  03E1  09D1               	comf	??_Timer1_start,f
  2817  03E2  09D2               	comf	??_Timer1_start+1,f
  2818  03E3  0851               	movf	??_Timer1_start,w
  2819  03E4  07F5               	addwf	_Timer1_set_time,f	;volatile
  2820  03E5  1803               	skipnc
  2821  03E6  0AF6               	incf	_Timer1_set_time+1,f	;volatile
  2822  03E7  0852               	movf	??_Timer1_start+1,w
  2823  03E8  07F6               	addwf	_Timer1_set_time+1,f	;volatile
  2824                           
  2825                           ;timer1.c: 45: TMR1L = (unsigned char)(Timer1_set_time);
  2826  03E9  0875               	movf	_Timer1_set_time,w	;volatile
  2827  03EA  008E               	movwf	14	;volatile
  2828                           
  2829                           ;timer1.c: 46: TMR1H = (unsigned char)(Timer1_set_time>>8);
  2830  03EB  0876               	movf	_Timer1_set_time+1,w	;volatile
  2831  03EC  008F               	movwf	15	;volatile
  2832                           
  2833                           ;timer1.c: 47: PIR1 &= ~(0x01);
  2834  03ED  100C               	bcf	12,0	;volatile
  2835                           
  2836                           ;timer1.c: 48: T1CON |= 0x01;
  2837  03EE  1410               	bsf	16,0	;volatile
  2838  03EF  0008               	return
  2839  03F0                     __end_of_Timer1_start:	
  2840                           
  2841                           	psect	text752
  2842  040A                     __ptext752:	
  2843 ;; =============== function _Timer1_start ends ============
  2844                           
  2845                           
  2846 ;; *************** function _Timer1_Init *****************
  2847 ;; Defined at:
  2848 ;;		line 29 in file "D:\Work\project\PAV03-master\FWTRX-PAVTR-SERIALTR-PAN2416AV\src\timer1.c"
  2849 ;; Parameters:    Size  Location     Type
  2850 ;;  TIMER1_DIVID    1    wreg     enum E573
  2851 ;; Auto vars:     Size  Location     Type
  2852 ;;  TIMER1_DIVID    1    0[BANK0 ] enum E573
  2853 ;; Return value:  Size  Location     Type
  2854 ;;		None               void
  2855 ;; Registers used:
  2856 ;;		wreg, status,2, status,0
  2857 ;; Tracked objects:
  2858 ;;		On entry : 60/0
  2859 ;;		On exit  : 60/20
  2860 ;;		Unchanged: FFF9F/0
  2861 ;; Data sizes:     COMMON   BANK0   BANK1   BANK3   BANK2
  2862 ;;      Params:         0       0       0       0       0
  2863 ;;      Locals:         0       1       0       0       0
  2864 ;;      Temps:          0       0       0       0       0
  2865 ;;      Totals:         0       1       0       0       0
  2866 ;;Total ram usage:        1 bytes
  2867 ;; Hardware stack levels used:    1
  2868 ;; Hardware stack levels required when called:    2
  2869 ;; This function calls:
  2870 ;;		Nothing
  2871 ;; This function is called by:
  2872 ;;		_main
  2873 ;; This function uses a non-reentrant model
  2874 ;;
  2875  040A                     _Timer1_Init:	
  2876                           
  2877                           ; Regs used in _Timer1_Init: [wreg+status,2+status,0]
  2878                           ;Timer1_Init@TIMER1_DIVIDER stored from wreg
  2879  040A  00CE               	movwf	Timer1_Init@TIMER1_DIVIDER
  2880                           
  2881                           ;timer1.c: 30: T1CON = 0x00;
  2882  040B  0190               	clrf	16	;volatile
  2883                           
  2884                           ;timer1.c: 31: T1CON |= TIMER1_DIVIDER;
  2885  040C  0490               	iorwf	16,f	;volatile
  2886                           
  2887                           ;timer1.c: 32: INTCON |= (0x40);
  2888  040D  170B               	bsf	11,6	;volatile
  2889                           
  2890                           ;timer1.c: 33: PIE1 |= 0x01;
  2891  040E  1683               	bsf	3,5	;RP0=1, select bank1
  2892  040F  140C               	bsf	12,0	;volatile
  2893  0410  0008               	return
  2894  0411                     __end_of_Timer1_Init:	
  2895                           
  2896                           	psect	text753
  2897  0411                     __ptext753:	
  2898 ;; =============== function _Timer1_Init ends ============
  2899                           
  2900                           
  2901 ;; *************** function _key_Init *****************
  2902 ;; Defined at:
  2903 ;;		line 332 in file "D:\Work\project\PAV03-master\FWTRX-PAVTR-SERIALTR-PAN2416AV\src\key_scan.c"
  2904 ;; Parameters:    Size  Location     Type
  2905 ;;		None
  2906 ;; Auto vars:     Size  Location     Type
  2907 ;;		None
  2908 ;; Return value:  Size  Location     Type
  2909 ;;		None               void
  2910 ;; Registers used:
  2911 ;;		wreg, status,2, status,0
  2912 ;; Tracked objects:
  2913 ;;		On entry : 60/0
  2914 ;;		On exit  : 60/20
  2915 ;;		Unchanged: FFF9F/0
  2916 ;; Data sizes:     COMMON   BANK0   BANK1   BANK3   BANK2
  2917 ;;      Params:         0       0       0       0       0
  2918 ;;      Locals:         0       0       0       0       0
  2919 ;;      Temps:          0       0       0       0       0
  2920 ;;      Totals:         0       0       0       0       0
  2921 ;;Total ram usage:        0 bytes
  2922 ;; Hardware stack levels used:    1
  2923 ;; Hardware stack levels required when called:    2
  2924 ;; This function calls:
  2925 ;;		Nothing
  2926 ;; This function is called by:
  2927 ;;		_main
  2928 ;; This function uses a non-reentrant model
  2929 ;;
  2930  0411                     _key_Init:	
  2931                           
  2932                           ;key_scan.c: 333: OPTION_REG &= ~0x80;
  2933                           
  2934                           ; Regs used in _key_Init: [wreg+status,2+status,0]
  2935  0411  1683               	bsf	3,5	;RP0=1, select bank1
  2936  0412  1381               	bcf	1,7	;volatile
  2937                           
  2938                           ;key_scan.c: 334: TRISB|=0x0e;
  2939  0413  300E               	movlw	14
  2940  0414  0486               	iorwf	6,f	;volatile
  2941                           
  2942                           ;key_scan.c: 335: WPUB|=0x0e;
  2943  0415  0495               	iorwf	21,f	;volatile
  2944  0416  0008               	return
  2945  0417                     __end_of_key_Init:	
  2946                           
  2947                           	psect	text754
  2948  0417                     __ptext754:	
  2949 ;; =============== function _key_Init ends ============
  2950                           
  2951                           
  2952 ;; *************** function _IIC_Init *****************
  2953 ;; Defined at:
  2954 ;;		line 11 in file "D:\Work\project\PAV03-master\FWTRX-PAVTR-SERIALTR-PAN2416AV\src\iic.c"
  2955 ;; Parameters:    Size  Location     Type
  2956 ;;		None
  2957 ;; Auto vars:     Size  Location     Type
  2958 ;;		None
  2959 ;; Return value:  Size  Location     Type
  2960 ;;		None               void
  2961 ;; Registers used:
  2962 ;;		None
  2963 ;; Tracked objects:
  2964 ;;		On entry : 60/0
  2965 ;;		On exit  : 60/0
  2966 ;;		Unchanged: FFF9F/0
  2967 ;; Data sizes:     COMMON   BANK0   BANK1   BANK3   BANK2
  2968 ;;      Params:         0       0       0       0       0
  2969 ;;      Locals:         0       0       0       0       0
  2970 ;;      Temps:          0       0       0       0       0
  2971 ;;      Totals:         0       0       0       0       0
  2972 ;;Total ram usage:        0 bytes
  2973 ;; Hardware stack levels used:    1
  2974 ;; Hardware stack levels required when called:    2
  2975 ;; This function calls:
  2976 ;;		Nothing
  2977 ;; This function is called by:
  2978 ;;		_main
  2979 ;; This function uses a non-reentrant model
  2980 ;;
  2981  0417                     _IIC_Init:	
  2982                           
  2983                           ;iic.c: 12: OPTION_REG &= ~0x80;
  2984                           
  2985                           ; Regs used in _IIC_Init: []
  2986  0417  1683               	bsf	3,5	;RP0=1, select bank1
  2987  0418  1381               	bcf	1,7	;volatile
  2988                           
  2989                           ;iic.c: 14: RC1=1;
  2990  0419  1283               	bcf	3,5	;RP0=0, select bank0
  2991  041A  1487               	bsf	7,1
  2992                           
  2993                           ;iic.c: 15: RC2=1;
  2994  041B  1507               	bsf	7,2
  2995  041C  0008               	return
  2996  041D                     __end_of_IIC_Init:	
  2997                           
  2998                           	psect	text756
  2999  041D                     __ptext756:	
  3000 ;; =============== function _soft_delay_ms ends ============
  3001                           
  3002                           
  3003 ;; *************** function _system_set_CPU_frequency *****************
  3004 ;; Defined at:
  3005 ;;		line 19 in file "D:\Work\project\PAV03-master\FWTRX-PAVTR-SERIALTR-PAN2416AV\src\system.c"
  3006 ;; Parameters:    Size  Location     Type
  3007 ;;  CPU_Frequenc    1    wreg     enum E564
  3008 ;; Auto vars:     Size  Location     Type
  3009 ;;  CPU_Frequenc    1    0[BANK0 ] enum E564
  3010 ;; Return value:  Size  Location     Type
  3011 ;;		None               void
  3012 ;; Registers used:
  3013 ;;		wreg, status,2
  3014 ;; Tracked objects:
  3015 ;;		On entry : 17F/0
  3016 ;;		On exit  : 17F/20
  3017 ;;		Unchanged: FFE80/0
  3018 ;; Data sizes:     COMMON   BANK0   BANK1   BANK3   BANK2
  3019 ;;      Params:         0       0       0       0       0
  3020 ;;      Locals:         0       1       0       0       0
  3021 ;;      Temps:          0       0       0       0       0
  3022 ;;      Totals:         0       1       0       0       0
  3023 ;;Total ram usage:        1 bytes
  3024 ;; Hardware stack levels used:    1
  3025 ;; Hardware stack levels required when called:    2
  3026 ;; This function calls:
  3027 ;;		Nothing
  3028 ;; This function is called by:
  3029 ;;		_main
  3030 ;; This function uses a non-reentrant model
  3031 ;;
  3032  041D                     _system_set_CPU_frequency:	
  3033                           
  3034                           ; Regs used in _system_set_CPU_frequency: [wreg+status,2]
  3035                           ;system_set_CPU_frequency@CPU_Frequency stored from wreg
  3036  041D  00CE               	movwf	system_set_CPU_frequency@CPU_Frequency
  3037                           
  3038                           ;system.c: 20: OSCCON = CPU_Frequency;
  3039  041E  1683               	bsf	3,5	;RP0=1, select bank1
  3040  041F  008F               	movwf	15
  3041                           
  3042                           ;system.c: 21: OSCTUNE = 0X00;
  3043  0420  0190               	clrf	16	;volatile
  3044  0421  0008               	return
  3045  0422                     __end_of_system_set_CPU_frequency:	
  3046                           
  3047                           	psect	text757
  3048  03BF                     __ptext757:	
  3049 ;; =============== function _system_set_CPU_frequency ends ============
  3050                           
  3051                           
  3052 ;; *************** function _ISR *****************
  3053 ;; Defined at:
  3054 ;;		line 48 in file "D:\Work\project\PAV03-master\FWTRX-PAVTR-SERIALTR-PAN2416AV\src\system.c"
  3055 ;; Parameters:    Size  Location     Type
  3056 ;;		None
  3057 ;; Auto vars:     Size  Location     Type
  3058 ;;  peripheral_i    1    4[COMMON] unsigned char 
  3059 ;;  inside_intte    1    0        unsigned char 
  3060 ;;  peripheral_i    1    0        unsigned char 
  3061 ;;  inside_intte    1    0        unsigned char 
  3062 ;; Return value:  Size  Location     Type
  3063 ;;		None               void
  3064 ;; Registers used:
  3065 ;;		wreg, fsr0l, fsr0h, fsr1l, fsr1h, status,2, status,0, btemp+1, pclath, cstack
  3066 ;; Tracked objects:
  3067 ;;		On entry : 0/0
  3068 ;;		On exit  : 60/0
  3069 ;;		Unchanged: FFF9F/0
  3070 ;; Data sizes:     COMMON   BANK0   BANK1   BANK3   BANK2
  3071 ;;      Params:         0       0       0       0       0
  3072 ;;      Locals:         1       0       0       0       0
  3073 ;;      Temps:          4       0       0       0       0
  3074 ;;      Totals:         5       0       0       0       0
  3075 ;;Total ram usage:        5 bytes
  3076 ;; Hardware stack levels used:    1
  3077 ;; Hardware stack levels required when called:    1
  3078 ;; This function calls:
  3079 ;;		_TIMER1_ISR
  3080 ;; This function is called by:
  3081 ;;		Interrupt level 1
  3082 ;; This function uses a non-reentrant model
  3083 ;;
  3084  03BF                     _ISR:	
  3085                           
  3086                           ;system.c: 56: peripheral_intterrupt_touch = PIR1 & 0x43;
  3087                           
  3088                           ;system.c: 55: inside_intterrupt_touch = INTCON & 0x07;
  3089                           
  3090                           ;system.c: 54: peripheral_intterrupt_enable = PIE1 & 0x43;
  3091                           
  3092                           ;system.c: 49: unsigned char inside_intterrupt_enable,peripheral_intterrupt_enable;
  3093                           ;system.c: 50: unsigned char inside_intterrupt_touch,peripheral_intterrupt_touch;
  3094                           ;system.c: 53: inside_intterrupt_enable = INTCON & 0x38;
  3095  03BF  1283               	bcf	3,5	;RP0=0, select bank0
  3096  03C0  080C               	movf	12,w
  3097  03C1  00F4               	movwf	ISR@peripheral_intterrupt_touch
  3098  03C2  3043               	movlw	67
  3099  03C3  05F4               	andwf	ISR@peripheral_intterrupt_touch,f
  3100                           
  3101                           ;system.c: 71: if(peripheral_intterrupt_touch & TIMER1_ISR_TOUCH) {
  3102  03C4  1C74               	btfss	ISR@peripheral_intterrupt_touch,0
  3103  03C5  2BC7               	goto	i1l1297
  3104                           
  3105                           ;system.c: 72: TIMER1_ISR();
  3106  03C6  23D2               	fcall	_TIMER1_ISR
  3107  03C7                     i1l1297:	
  3108  03C7  0873               	movf	??_ISR+3,w
  3109  03C8  00FF               	movwf	127
  3110  03C9  0872               	movf	??_ISR+2,w
  3111  03CA  008A               	movwf	10
  3112  03CB  0871               	movf	??_ISR+1,w
  3113  03CC  0084               	movwf	4
  3114  03CD  0E70               	swapf	??_ISR^(0+-128),w
  3115  03CE  0083               	movwf	3
  3116  03CF  0EFE               	swapf	126,f
  3117  03D0  0E7E               	swapf	126,w
  3118  03D1  0009               	retfie
  3119  03D2                     __end_of_ISR:	
  3120  03D2                     __ptext758:	
  3121 ;; =============== function _ISR ends ============
  3122                           
  3123                           
  3124 ;; *************** function _TIMER1_ISR *****************
  3125 ;; Defined at:
  3126 ;;		line 60 in file "D:\Work\project\PAV03-master\FWTRX-PAVTR-SERIALTR-PAN2416AV\src\timer1.c"
  3127 ;; Parameters:    Size  Location     Type
  3128 ;;		None
  3129 ;; Auto vars:     Size  Location     Type
  3130 ;;		None
  3131 ;; Return value:  Size  Location     Type
  3132 ;;		None               void
  3133 ;; Registers used:
  3134 ;;		wreg
  3135 ;; Tracked objects:
  3136 ;;		On entry : 60/0
  3137 ;;		On exit  : 60/0
  3138 ;;		Unchanged: FFF9F/0
  3139 ;; Data sizes:     COMMON   BANK0   BANK1   BANK3   BANK2
  3140 ;;      Params:         0       0       0       0       0
  3141 ;;      Locals:         0       0       0       0       0
  3142 ;;      Temps:          0       0       0       0       0
  3143 ;;      Totals:         0       0       0       0       0
  3144 ;;Total ram usage:        0 bytes
  3145 ;; Hardware stack levels used:    1
  3146 ;; This function calls:
  3147 ;;		Nothing
  3148 ;; This function is called by:
  3149 ;;		_ISR
  3150 ;; This function uses a non-reentrant model
  3151 ;;
  3152  03D2                     _TIMER1_ISR:	
  3153                           
  3154                           ;timer1.c: 61: static unsigned int flag_1s_add=0;
  3155                           ;timer1.c: 62: static unsigned int flag_1min_add=0;
  3156                           ;timer1.c: 63: T1CON &= ~(0x01);
  3157                           
  3158                           ; Regs used in _TIMER1_ISR: [wreg]
  3159  03D2  1010               	bcf	16,0	;volatile
  3160                           
  3161                           ;timer1.c: 64: TMR1L = (unsigned char)(Timer1_set_time);
  3162  03D3  0875               	movf	_Timer1_set_time,w	;volatile
  3163  03D4  008E               	movwf	14	;volatile
  3164                           
  3165                           ;timer1.c: 72: flag_1s_add++;
  3166  03D5  0876               	movf	_Timer1_set_time+1,w	;volatile
  3167  03D6  008F               	movwf	15	;volatile
  3168                           
  3169                           ;timer1.c: 74: PIR1 &= ~(0x01);
  3170  03D7  100C               	bcf	12,0	;volatile
  3171                           
  3172                           ;timer1.c: 75: T1CON |= 0x01;
  3173  03D8  1410               	bsf	16,0	;volatile
  3174  03D9  0008               	return
  3175  03DA                     __end_of_TIMER1_ISR:	
  3176                           
  3177                           	psect	intentry
  3178  0004                     __pintentry:	
  3179                           ; Regs used in _ISR: [allreg]
  3180                           
  3181  0004                     interrupt_function:	
  3182  007E                     saved_w	set	btemp
  3183  0004  00FE               	movwf	btemp
  3184  0005  0E03               	swapf	3,w
  3185  0006  00F0               	movwf	??_ISR
  3186  0007  0804               	movf	4,w
  3187  0008  00F1               	movwf	??_ISR+1
  3188  0009  080A               	movf	10,w
  3189  000A  00F2               	movwf	??_ISR+2
  3190  000B  1283               	bcf	3,5	;RP0=0, select bank0
  3191  000C  1303               	bcf	3,6	;RP1=0, select bank0
  3192  000D  087F               	movf	btemp+1,w
  3193  000E  00F3               	movwf	??_ISR+3
  3194  000F  118A  2BBF         	ljmp	_ISR
  3195                           
  3196                           	psect	text759
  3197  0000                     __ptext759:	
  3198 ;; =============== function _TIMER1_ISR ends ============
  3199                           
  3200  007E                     btemp	set	126	;btemp
  3201  007E                     wtemp0	set	126


HI-TECH Software PICC Macro Assembler V9.83 build 10920 
Symbol Table                                                                                   Fri Jul 16 10:05:02 2021

                                          pc 0002                                   _AdvData_23 0028  
                         RF_Init@BB_cal_data 0370                          RF_Write_Buff@length 0051  
                             ?_soft_delay_ms 004E                                           fsr 0004  
                                _RF_WriteReg 0240                                          _RB1 0031  
                                        _RC0 0038                                          _RA4 002C  
                                        _RC1 0039                                          _RA5 002D  
                                        _RC2 003A                                          _RA7 002F  
                                        _RE1 0049                                          _RE2 004A  
                                        _ISR 03BF                                          u545 002A  
                                        u650 0170                                          u735 00B3  
                                        u745 00C8                                          fsr0 0004  
                                        indf 0000                               ?_RF_Set_RxMode 0070  
                                       ?_ISR 0070                     __end_of_Enable_Interrupt 0424  
                                       l1281 0000                                         l1290 0000  
                                       l5200 0265                                         l5202 0000  
                                       l2572 0000                                         l5141 0000  
                                       l2569 0000                                         l5161 0000  
                                       l5164 0000                                         l5173 0000  
                                       l5191 0000                                         l5167 0000  
                                       l5184 025B                                         l5185 0000  
                                       l5194 0000                                         l5178 01C6  
                                       l7211 0000                                         l5179 0000  
                                       l5188 0000                                         l5199 0264  
                                       l5851 0000                                         l9781 012F  
                                       l9783 0000                                         l9778 0122  
                                       _PIE1 008C                                         _PIR1 000C  
                      RF_Write_Buff@reg_addr 0052                                         _WPUB 0095  
                           send@uSendContent 0053                        RF_Carrier@RF_cal_data 0378  
                                       _main 038C                                         _send 015E  
                            __end_of_RF_Init 0240                                         btemp 007E  
                                       start 0011                                _RF_Write_Buff 0248  
                       RF_Read_Buff@byte_ctr 0054                             _last_PORTB_value 0078  
                       RF_Read_Buff@reg_addr 0053                             ??_RF_ClearStatus 0075  
                                      ??_ISR 0070                                  ?_TIMER1_ISR 0070  
                     RF_Carrier@RF_cal2_data 035F                             __end_of_IIC_Init 041D  
                               rx_data@crc16 005C                                 rx_data@crc18 005F  
                                      l14000 0000                                        l14002 0000  
                                      l10476 0000                                        l14020 0000  
                                      l14100 0000                                        l14006 0000  
                                      l14022 0107                                        l14102 0000  
                                      l14110 0000                                        l14024 0135  
                                      l14016 0000                                        l14008 0000  
                                      l14032 0000                                        l14040 0000  
                                      l14104 0000                                        l14120 0000  
                                      l14112 0000                                        l14018 012C  
                                      l14034 0000                                        l14042 0000  
                                      l14130 0000                                        l14122 0000  
                                      l14114 0000                                        l14106 0000  
                                      l14210 0000                                        l14202 0000  
                                      l14036 0141                                        l14028 0000  
                                      l14052 0000                                        l14044 0000  
                                      l14060 0000                                        l14140 0000  
                                      l14132 0000                                        l14124 0000  
                                      l14116 0000                                        l14108 0000  
                                      l14220 009D                                        l14212 0000  
                                      l13174 0000                                        l14038 0000  
                                      l14054 024D                                        l14046 0000  
                                      l14070 0000                                        l14150 0000  
                                      l14142 0000                                        l14134 0000  
                                      l14126 0000                                        l14118 0000  
                                      l14222 0000                                        l13176 0000  
                                      l14048 0000                                        l14064 0000  
                                      l14056 0000                                        l14072 0000  
                                      l14080 0000                                        l14144 0000  
                                      l14136 0000                                        l14128 0000  
                                      l14160 0000                                        l14240 0000  
                                      l14224 0000                                        l14216 0000  
                                      l14208 0082                                        l13178 0000  
                                      l13194 0000                                        l14066 01B7  
                                      l14058 0000                                        l14074 0000  
                                      l14090 0000                                        l14082 0000  
                                      l14154 0000                                        l14146 0000  
                                      l14138 0000                                        l14250 0000  
                                      l14242 0000                                        l14068 0000  
                                      l14084 0000                                        l14148 0000  
                                      l14156 0000                                        l14164 0000  
                                      l14180 0000                                        l14260 0000  
                                      l14244 0000                                        l14228 0000  
                                      l14086 0000                                        l14078 0000  
                                      l14158 0000                                        l14166 028D  
                                      l14246 0000                                        l14238 0000  
                                      l14262 00FF                                        l11783 016A  
                                      l14096 0173                                        l14088 0000  
                                      l14176 0000                                        l14168 0000  
                                      l14256 00F2                                        l14248 0000  
                                      l14264 0100                                        l14184 0000  
                                      l14280 0000                                        l14272 0000  
                                      l11785 0000                                        l14098 0000  
                                      l14178 0000                                        l14258 0000  
                                      l14194 0055                                        l14186 0000  
                                      l14290 0000                                        l14282 0000  
                                      l14274 0000                                        l12771 0000  
                                      l14196 0000                                        l14268 0000  
                                      l14292 0000                                        l14284 0000  
                                      l14276 0000                                        l13582 0000  
                                      l14198 0000                                        l14294 0000  
                                      l14286 0000                                        l14278 0000  
                                      l13920 0000                                        l14296 0000  
                                      l14288 0000                                        l13922 0000  
                                      l14298 03BB                                        l13924 0022  
                                      l13942 0038                                        l13934 0032  
                                      l13950 0000                                        l13928 002D  
                                      l13952 0000                                        l13960 0000  
                                      l13946 003A                                        l13954 0000  
                                      l13962 0000                                        l13948 0024  
                                      l13956 0000                                        l13964 0000  
                                      l13958 0000                                        l13990 0000  
                                      l13982 0000                                        l13976 0000  
                                      l13992 018F                                        l13984 0184  
                                      l13978 0000                                        l13986 0000  
                                      l13996 0000                                        l13988 0000  
                                      ?_main 0070                                        ?_send 0070  
                                      _T1CON 0010                                        _TMR1H 000F  
                                      _TMR1L 000E                                        _TRISB 0086  
                                      _TRISC 0087                                        pclath 000A  
                                      send@i 0054                             __end_of_SPI_init 0279  
                              RF_ReadReg@tmp 0051                           __size_of_RF_RxData 0011  
                            __end_of_rx_data 0102                                        status 0003  
                                      wtemp0 007E                                  ?_RF_ReadReg 0070  
                             ?_RF_Write_Buff 0050                             __end_of_Delay_us 01A1  
                               __end_of_main 03BF                                 __end_of_send 0184  
                            ??_soft_delay_ms 0075                                 ?_recive_task 0070  
                                     ??_main 0075                                       ??_send 0075  
                            ??_RF_Set_RxMode 0075                     _system_set_CPU_frequency 041D  
                                  ??_RF_Init 0075                                       i1l1297 03C7  
                                     i1l2582 0000                                       _INTCON 000B  
                        __size_of_TIMER1_ISR 0008                                       _OSCCON 008F  
                                     _TRISB1 0431                                       _TRISA3 042B  
                                     _TRISA4 042C                                       _TRISA5 042D  
                                     _TRISA7 042F                                       _TRISE1 0449  
                                     _TRISE2 044A                                       _SPI_RW 025D  
                              ??_Timer1_Init 0075                             __end_of_key_Init 0417  
                                     _memcpy 013A                                       _rf_buf 003C  
                          __end_of_RF_RxData 01B2                                       clrloop 0403  
                        __size_of_RF_ReadReg 0009                                   UpdateCRC@i 0055  
                                 UpdateCRC@k 0054                           __size_of_UpdateCRC 0038  
                                     saved_w 007E                                 _crc_2_4G_lib 033A  
                                  ??_rx_data 0058                              ??_RF_Write_Buff 0075  
                                  ?_IIC_Init 0070                       RF_Carrier@Dem_cal_data 038A  
                        SPI_RW@read_reg_addr 004E                               __pcstackCOMMON 0070  
                               __pidataBANK0 0000                          __end_of_Timer1_Init 0411  
                               ?_RF_WriteReg 0050                        RF_RxData@payload_buff 0057  
                                  ?_SPI_init 0070                                    ?_Delay_us 004E  
                             _RX_ADDRESS_DEF 0384                            ?_Enable_Interrupt 0070  
                                 __pbssBANK0 0020                           RF_Init@RF_cal_data 037E  
                                 _ble_crc_38 0310                                   ??_IIC_Init 0075  
                         ??_Enable_Interrupt 0075                                      ?_SPI_RW 0070  
                          __end_of_UpdateCRC 013A                                   __pmaintext 038C  
                              ?_Timer1_start 004E                               soft_delay_ms@i 0050  
                             soft_delay_ms@j 0052                               soft_delay_ms@k 0053  
                               ??_TIMER1_ISR 0070                                   __pintentry 0004  
                                    SPI_RW@i 004F                                      ?_memcpy 004E  
                       __size_of_recive_task 0008                               rx_data@rx_flag 0061  
                                 ??_SPI_init 0075                                      i1l13200 0000  
                                    i1l13210 0000                                      i1l13204 0000  
                                    i1l13206 0000                                      i1l13208 0000  
                                    i1l13196 0000                                      i1l13198 0000  
                                 ??_Delay_us 0075                                      _OSCTUNE 0090  
                                    _RF_Init 01C8                                    ?_key_Init 0070  
                         __end_of_TIMER1_ISR 03DA                                 ??_RF_ReadReg 0075  
                            __size_of_SPI_RW 0015                                  _Timer1_Init 040A  
                             ??_Timer1_start 0051                   ??_system_set_CPU_frequency 0075  
                            __size_of_memcpy 0024                                      _crc_lab 034F  
                               __size_of_ISR 0013                           __end_of_RF_ReadReg 028D  
                            _Timer0_set_time 0077                                      _rx_data 0046  
                            _Timer1_set_time 0075                         end_of_initialization 03FF  
                                 ??_key_Init 0075                                ?_RF_ClearFIFO 0070  
                                    memcpy@d 0056                                      memcpy@n 0050  
                                    memcpy@s 0054                                    Delay_us@i 0050  
                              ?_RF_GetStatus 0070  Timer1_start@Timer1_ISR_execution_total_time 0050  
                      __end_of_soft_delay_ms 003E                      RF_Carrier@Dem_cal2_data 0375  
                       __size_of_RF_WriteReg 0008                                ?_RF_Read_Buff 0050  
                    __size_of_RF_ClearStatus 0004                                    _RF_RxData 01A1  
                      __end_of_RF_Set_RxMode 0022                           RF_Write_Buff@pBuff 0050  
                                  _AdvData_3 0381                               ??_RF_ClearFIFO 0075  
                             __end_of_SPI_RW 0272                            __size_of_IIC_Init 0006  
                       RF_Init@Dem_cal2_data 037B                               ??_RF_GetStatus 0075  
                                rx_data@rand 005E                               __end_of_memcpy 015E  
                             ??_RF_Read_Buff 0052                          start_initialization 03F0  
                          __size_of_SPI_init 0007                                   ?_RF_RxData 0055  
                                __end_of_ISR 03D2                    Timer1_Init@TIMER1_DIVIDER 004E  
                       __end_of_Timer1_start 03F0                            __size_of_Delay_us 001D  
                             _TX_ADDRESS_DEF 0387                                     ??_SPI_RW 0075  
                      __end_of_RF_Write_Buff 025D                          RF_Init@RF_cal2_data 0365  
                  __size_of_Enable_Interrupt 0002                                  __pdataBANK0 0063  
           __end_of_system_set_CPU_frequency 0422                                    _UpdateCRC 0102  
                                   ??_memcpy 0052                           UpdateCRC@CRC_input 0053  
                               send@uContent 0052                                  __pbssCOMMON 0075  
                              __pcstackBANK0 004E                                     ?_RF_Init 0070  
                           UpdateCRC@CRC_acc 0056                            __size_of_key_Init 0006  
                        _virtual_timer_group 0020                                 ?_Timer1_Init 0070  
                              ??_recive_task 0075                                    __ptext740 015E  
                                  __ptext732 003E                                    __ptext741 0284  
                                  __ptext733 0046                                    __ptext750 0422  
                                  __ptext742 01B2                                    __ptext734 01A1  
                                  __ptext751 03DA                                    __ptext743 0248  
                                  __ptext735 028D                                    __ptext752 040A  
                                  __ptext744 0240                                    __ptext736 027D  
                                  __ptext753 0411                                    __ptext745 013A  
                                  __ptext737 0279                                    __ptext754 0417  
                                  __ptext746 0102                                    __ptext738 0013  
                                  __ptext755 0022                                    __ptext747 0184  
                                  __ptext739 01C8                                    __ptext756 041D  
                                  __ptext748 025D                                    __ptext757 03BF  
                                  __ptext749 0272                                    __ptext758 03D2  
                                  __ptext759 0000                                   ?_UpdateCRC 004E  
                       __end_of_RF_ClearFIFO 0284                              soft_delay_ms@ms 004E  
                                  __pstrings 0300                               _RF_ClearStatus 028D  
                                ??_RF_RxData 0056                           RF_ReadReg@reg_addr 0050  
                       __end_of_RF_GetStatus 027D                                     ?_rx_data 0070  
                            RF_RxData@length 0055                            interrupt_function 0004  
                                   _IIC_Init 0417                         __end_of_RF_Read_Buff 01C8  
             ISR@peripheral_intterrupt_touch 0074                        RF_Carrier@BB_cal_data 036B  
                                __stringbase 030F                       __end_of_RF_ClearStatus 0291  
                                   _SPI_init 0272                          __end_of_recive_task 0046  
                      __size_of_Timer1_start 0016                                  _frame_count 0063  
                                   _Delay_us 0184                           RF_Read_Buff@length 0051  
                        RF_Init@Dem_cal_data 038B                             __size_of_RF_Init 0078  
          __size_of_system_set_CPU_frequency 0005                    ?_system_set_CPU_frequency 0070  
                             RF_Write_Buff@i 0053                                 _Timer1_start 03DA  
                           _Enable_Interrupt 0422                                  ??_UpdateCRC 0050  
                              ??_RF_WriteReg 0075                              ?_RF_ClearStatus 0070  
                         Timer1_start@T_nums 004E                             __size_of_rx_data 00BC  
                                   _key_Init 0411                       __size_of_soft_delay_ms 001C  
                              __size_of_main 0033                                __size_of_send 0026  
                                   clear_ram 0402                        __size_of_RF_ClearFIFO 0007  
                     __size_of_RF_Set_RxMode 000F                         __size_of_Timer1_Init 0007  
                                _recive_task 003E                            RF_Read_Buff@pBuff 0050  
                      __size_of_RF_GetStatus 0004                        RF_WriteReg@write_data 0050  
                        __end_of_RF_WriteReg 0248                                     memcpy@d1 0053  
                                   memcpy@s1 004E                                   Delay_us@us 004E  
                                   intlevel1 0000                        __size_of_RF_Read_Buff 0016  
                               _RF_ClearFIFO 027D                                 UpdateCRC@len 004E  
                                  stringcode 030A                                 _RF_GetStatus 0279  
                        RF_WriteReg@reg_addr 0051                                     rx_data@i 0062  
                                 _TIMER1_ISR 03D2                                _soft_delay_ms 0022  
                                 _OPTION_REG 0081                       __size_of_RF_Write_Buff 0015  
                               _RF_Read_Buff 01B2                                     stringdir 030A  
                                   stringtab 0300                                _RF_Set_RxMode 0013  
                          _ADC_digital_value 0026                                   _RF_ReadReg 0284  
      system_set_CPU_frequency@CPU_Frequency 004E  
